# SymbolsHelper-Confirmed: 21.1.1 amd64 arm64 armhf hurd-i386 i386 loong64 powerpc ppc64 ppc64el riscv64 s390x sparc64 x32
libLLVMSPIRVLib.so.21.1 #PACKAGE# #MINVER#
* Build-Depends-Package: libllvmspirvlib-21-dev
 _ZGVZNKSt8__detail11_AnyMatcherINSt7__cxx1112regex_traitsIcEELb0ELb0ELb0EEclEcE5__nul@Base 0
 _ZGVZNKSt8__detail11_AnyMatcherINSt7__cxx1112regex_traitsIcEELb0ELb0ELb1EEclEcE5__nul@Base 0
 _ZGVZNKSt8__detail11_AnyMatcherINSt7__cxx1112regex_traitsIcEELb0ELb1ELb0EEclEcE5__nul@Base 0
 _ZGVZNKSt8__detail11_AnyMatcherINSt7__cxx1112regex_traitsIcEELb0ELb1ELb1EEclEcE5__nul@Base 0
 _ZN4llvm10writeSpirvEPNS_6ModuleERKN5SPIRV14TranslatorOptsERSoRNSt7__cxx1112basic_stringIcSt11char_traitsIcESaIcEEE@Base 0
 _ZN4llvm10writeSpirvEPNS_6ModuleERSoRNSt7__cxx1112basic_stringIcSt11char_traitsIcESaIcEEE@Base 0
 _ZN4llvm16getSpecConstInfoERSiRSt6vectorINS_15SpecConstInfoTyESaIS2_EE@Base 16
 _ZN4llvm18convertSpirvToLLVMERNS_11LLVMContextERN5SPIRV11SPIRVModuleERKNS2_14TranslatorOptsERNSt7__cxx1112basic_stringIcSt11char_traitsIcESaIcEEE@Base 0
 _ZN4llvm18convertSpirvToLLVMERNS_11LLVMContextERN5SPIRV11SPIRVModuleERNSt7__cxx1112basic_stringIcSt11char_traitsIcESaIcEEE@Base 0
 _ZN4llvm19mangleOpenClBuiltinERKNSt7__cxx1112basic_stringIcSt11char_traitsIcESaIcEEENS_8ArrayRefIPNS_4TypeEEERS5_@Base 0
 _ZN4llvm21createSPIRVWriterPassERSo@Base 0
 _ZN4llvm21createSPIRVWriterPassERSoRKN5SPIRV14TranslatorOptsE@Base 0
 _ZN4llvm22createOCLToSPIRVLegacyEv@Base 13
 _ZN4llvm22regularizeLlvmForSpirvEPNS_6ModuleERNSt7__cxx1112basic_stringIcSt11char_traitsIcESaIcEEE@Base 0
 _ZN4llvm22regularizeLlvmForSpirvEPNS_6ModuleERNSt7__cxx1112basic_stringIcSt11char_traitsIcESaIcEEERKN5SPIRV14TranslatorOptsE@Base 0
 _ZN4llvm23createLLVMToSPIRVLegacyEPN5SPIRV11SPIRVModuleE@Base 13
 _ZN4llvm24createSPIRVToOCL12LegacyEv@Base 13
 _ZN4llvm24createSPIRVToOCL20LegacyEv@Base 13
 _ZN4llvm26createOCLTypeToSPIRVLegacyEv@Base 13
 _ZN4llvm26createSPIRVBIsLoweringPassERNS_6ModuleEN5SPIRV17BIsRepresentationE@Base 0
 _ZN4llvm26createSPIRVLowerBoolLegacyEv@Base 13
 _ZN4llvm29createSPIRVLowerMemmoveLegacyEv@Base 13
 _ZN4llvm30createPreprocessMetadataLegacyEv@Base 13
 _ZN4llvm30initializeOCLToSPIRVLegacyPassERNS_12PassRegistryE@Base 13
 _ZN4llvm31createSPIRVLowerConstExprLegacyEv@Base 13
 _ZN4llvm31createSPIRVLowerOCLBlocksLegacyEv@Base 13
 _ZN4llvm31createSPIRVRegularizeLLVMLegacyEv@Base 13
 _ZN4llvm31initializeLLVMToSPIRVLegacyPassERNS_12PassRegistryE@Base 13
 _ZN4llvm32initializeSPIRVToOCL12LegacyPassERNS_12PassRegistryE@Base 13
 _ZN4llvm32initializeSPIRVToOCL20LegacyPassERNS_12PassRegistryE@Base 13
 _ZN4llvm34initializeOCLTypeToSPIRVLegacyPassERNS_12PassRegistryE@Base 13
 _ZN4llvm34initializeSPIRVLowerBoolLegacyPassERNS_12PassRegistryE@Base 13
 _ZN4llvm35createSPIRVLowerLLVMIntrinsicLegacyERKN5SPIRV14TranslatorOptsE@Base 19
 _ZN4llvm37initializeSPIRVLowerMemmoveLegacyPassERNS_12PassRegistryE@Base 13
#MISSING: 19# _ZN4llvm38createSPIRVLowerSaddWithOverflowLegacyEv@Base 13
 _ZN4llvm38initializePreprocessMetadataLegacyPassERNS_12PassRegistryE@Base 13
 _ZN4llvm39initializeSPIRVLowerConstExprLegacyPassERNS_12PassRegistryE@Base 13
 _ZN4llvm39initializeSPIRVLowerOCLBlocksLegacyPassERNS_12PassRegistryE@Base 13
 _ZN4llvm39initializeSPIRVRegularizeLLVMLegacyPassERNS_12PassRegistryE@Base 13
#MISSING: 19# (optional=lto)_ZN4llvm3Any6TypeIdIPKNS_6ModuleEE2IdE@Base 16
 _ZN4llvm43initializeSPIRVLowerLLVMIntrinsicLegacyPassERNS_12PassRegistryE@Base 19
 _ZN4llvm46createSPIRVLowerBitCastToNonStandardTypeLegacyERKN5SPIRV14TranslatorOptsE@Base 14
#MISSING: 19# _ZN4llvm46initializeSPIRVLowerSaddWithOverflowLegacyPassERNS_12PassRegistryE@Base 13
 _ZN4llvm54initializeSPIRVLowerBitCastToNonStandardTypeLegacyPassERNS_12PassRegistryE@Base 13
 _ZN4llvm9readSpirvERNS_11LLVMContextERKN5SPIRV14TranslatorOptsERSiRPNS_6ModuleERNSt7__cxx1112basic_stringIcSt11char_traitsIcESaIcEEE@Base 0
 _ZN4llvm9readSpirvERNS_11LLVMContextERSiRPNS_6ModuleERNSt7__cxx1112basic_stringIcSt11char_traitsIcESaIcEEE@Base 0
 _ZN5SPIRV12convertSpirvERNSt7__cxx1112basic_stringIcSt11char_traitsIcESaIcEEES6_S6_b@Base 0
 _ZN5SPIRV12convertSpirvERSiRSoRNSt7__cxx1112basic_stringIcSt11char_traitsIcESaIcEEEbb@Base 0
 _ZN5SPIRV14TranslatorOpts19enableAllExtensionsEv@Base 19
 _ZN5SPIRV14TranslatorOpts30setSPIRVAllowUnknownIntrinsicsEN4llvm11SmallVectorINS1_9StringRefELj4EEE@Base 13
 _ZN5SPIRV14getSpirvReportERSi@Base 17.0.7
 _ZN5SPIRV14getSpirvReportERSiRi@Base 17.0.7
 _ZN5SPIRV15getErrorMessageB5cxx11Ei@Base 18
 _ZN5SPIRV15readSpirvModuleERSiRKNS_14TranslatorOptsERNSt7__cxx1112basic_stringIcSt11char_traitsIcESaIcEEE@Base 0
 _ZN5SPIRV15readSpirvModuleERSiRNSt7__cxx1112basic_stringIcSt11char_traitsIcESaIcEEE@Base 0
 _ZN5SPIRV17formatSpirvReportERKNS_17SPIRVModuleReportE@Base 17.0.7
 _ZN5SPIRV18SPIRVUseTextFormatE@Base 0
 (optional=templinst|subst|arch=any-amd64 powerpc s390x)_ZN9__gnu_cxx12__to_xstringINSt7__cxx1112basic_stringIcSt11char_traitsIcESaIcEEEcEET_PFiPT0_{size_t}PKS8_P13__va_list_tagE{size_t}SB_z@Base 18.1.1
 (optional=templinst|subst|arch=any-i386 ppc64 ppc64el)_ZN9__gnu_cxx12__to_xstringINSt7__cxx1112basic_stringIcSt11char_traitsIcESaIcEEEcEET_PFiPT0_{size_t}PKS8_PcE{size_t}SB_z@Base 18.1.1
 (optional=templinst|subst|arch=loong64 mips64el riscv64 sparc64)_ZN9__gnu_cxx12__to_xstringINSt7__cxx1112basic_stringIcSt11char_traitsIcESaIcEEEcEET_PFiPT0_{size_t}PKS8_PvE{size_t}SB_z@Base 18.1.1
 (optional=templinst|subst|arch=arm64 armel armhf)_ZN9__gnu_cxx12__to_xstringINSt7__cxx1112basic_stringIcSt11char_traitsIcESaIcEEEcEET_PFiPT0_{size_t}PKS8_St9__va_listE{size_t}SB_z@Base 18.1.1
 (optional=lto)_ZNK4llvm4Type20getStructElementTypeEj@Base 21
 (optional=lto)_ZNK4llvm4Type22getPointerAddressSpaceEv@Base 21
 _ZNK5SPIRV14TranslatorOpts17validateFnVarOptsEv@Base 20.1.6
 _ZNK5SPIRV14TranslatorOpts25isUnknownIntrinsicAllowedEPN4llvm13IntrinsicInstE@Base 13
 _ZNK5SPIRV14TranslatorOpts29getAllowedSPIRVExtensionNamesB5cxx11ERSt8functionIFbNS_11ExtensionIDEEE@Base 20
 _ZNK5SPIRV14TranslatorOpts36isSPIRVAllowUnknownIntrinsicsEnabledEv@Base 13
 (optional=templinst)_ZNKSt10_HashtableIN3spv14ExecutionModelESt4pairIKS1_St3setIjSt4lessIjESaIjEEESaIS9_ENSt8__detail10_Select1stESt8equal_toIS1_ESt4hashIS1_ENSB_18_Mod_range_hashingENSB_20_Default_ranged_hashENSB_20_Prime_rehash_policyENSB_17_Hashtable_traitsILb0ELb0ELb1EEEE4findERS3_@Base 20.1.6
 (optional=templinst|arch=amd64 arm64 hurd-amd64 loong64 mips64el ppc64el riscv64)_ZNKSt10_HashtableIjSt4pairIKjmESaIS2_ENSt8__detail10_Select1stESt8equal_toIjESt4hashIjENS4_18_Mod_range_hashingENS4_20_Default_ranged_hashENS4_20_Prime_rehash_policyENS4_17_Hashtable_traitsILb0ELb0ELb1EEEE4findERS1_@Base 20.1.6
 (optional=templinst|arch=armel armhf)_ZNKSt10_HashtableIjSt4pairIKjyESaIS2_ENSt8__detail10_Select1stESt8equal_toIjESt4hashIjENS4_18_Mod_range_hashingENS4_20_Default_ranged_hashENS4_20_Prime_rehash_policyENS4_17_Hashtable_traitsILb0ELb0ELb1EEEE4findERS1_@Base 20.1.6
 (optional=templinst|arch=armel armhf loong64 mips64el riscv64)_ZNKSt10_HashtableIjjSaIjENSt8__detail9_IdentityESt8equal_toIjESt4hashIjENS1_18_Mod_range_hashingENS1_20_Default_ranged_hashENS1_20_Prime_rehash_policyENS1_17_Hashtable_traitsILb0ELb1ELb1EEEE4findERKj@Base 21.1.0-2~gcc15~
 (optional=templinst)_ZNKSt7__cxx1112regex_traitsIcE16lookup_classnameIPKcEENS1_10_RegexMaskET_S6_b@Base 0
 (optional=templinst)_ZNKSt7__cxx1112regex_traitsIcE18lookup_collatenameIPKcEENS_12basic_stringIcSt11char_traitsIcESaIcEEET_SA_@Base 0
 (optional=templinst)_ZNKSt7__cxx1114regex_iteratorIPKccNS_12regex_traitsIcEEEeqERKS5_@Base 14
#MISSING: 21.1.0-2~gcc15~# (optional=templinst)_ZNKSt8_Rb_treeINSt7__cxx1112basic_stringIcSt11char_traitsIcESaIcEEESt4pairIKS5_N3spv2OpEESt10_Select1stISA_ESt4lessIS5_ESaISA_EE4findERS7_@Base 0
#MISSING: 21.1.0-2~gcc15~# (optional=templinst)_ZNKSt8_Rb_treeINSt7__cxx1112basic_stringIcSt11char_traitsIcESaIcEEESt4pairIKS5_N3spv7BuiltInEESt10_Select1stISA_ESt4lessIS5_ESaISA_EE4findERS7_@Base 16.0.11
#MISSING: 21.1.0-2~gcc15~# (optional=templinst)_ZNKSt8_Rb_treeINSt7__cxx1112basic_stringIcSt11char_traitsIcESaIcEEESt4pairIKS5_N9OpenCLLIB11EntrypointsEESt10_Select1stISA_ESt4lessIS5_ESaISA_EE4findERS7_@Base 18.1.1-2~gcc14~
 (optional=templinst)_ZNKSt8__detail9_ExecutorIN9__gnu_cxx17__normal_iteratorIPKcNSt7__cxx1112basic_stringIcSt11char_traitsIcESaIcEEEEESaINS5_9sub_matchISB_EEENS5_12regex_traitsIcEELb0EE16_M_word_boundaryEv@Base 18.1.13
 (optional=templinst)_ZNKSt8__detail9_ExecutorIN9__gnu_cxx17__normal_iteratorIPKcNSt7__cxx1112basic_stringIcSt11char_traitsIcESaIcEEEEESaINS5_9sub_matchISB_EEENS5_12regex_traitsIcEELb1EE16_M_word_boundaryEv@Base 18.1.13
 (optional=templinst)_ZNKSt8__detail9_ExecutorIPKcSaINSt7__cxx119sub_matchIS2_EEENS3_12regex_traitsIcEELb0EE16_M_word_boundaryEv@Base 0
 (optional=templinst)_ZNKSt8__detail9_ExecutorIPKcSaINSt7__cxx119sub_matchIS2_EEENS3_12regex_traitsIcEELb1EE16_M_word_boundaryEv@Base 0
 (optional=templinst|subst)_ZNSt10_HashtableIN10SPIRVDebug16ExpressionOpCodeESt4pairIKS1_jESaIS4_ENSt8__detail10_Select1stESt8equal_toIS1_ESt4hashIS1_ENS6_18_Mod_range_hashingENS6_20_Default_ranged_hashENS6_20_Prime_rehash_policyENS6_17_Hashtable_traitsILb0ELb0ELb1EEEE21_M_insert_unique_nodeE{size_t}{size_t}PNS6_10_Hash_nodeIS4_Lb0EEE{size_t}@Base 19
#MISSING: 21.1.0-2~gcc15~# (optional=templinst)_ZNSt10_HashtableIN3spv14ExecutionModelESt4pairIKS1_St3setIjSt4lessIjESaIjEEESaIS9_ENSt8__detail10_Select1stESt8equal_toIS1_ESt4hashIS1_ENSB_18_Mod_range_hashingENSB_20_Default_ranged_hashENSB_20_Prime_rehash_policyENSB_17_Hashtable_traitsILb0ELb0ELb1EEEE5clearEv@Base 21
 (optional=templinst)_ZNSt10_HashtableIN3spv14ExecutionModelESt4pairIKS1_St3setIjSt4lessIjESaIjEEESaIS9_ENSt8__detail10_Select1stESt8equal_toIS1_ESt4hashIS1_ENSB_18_Mod_range_hashingENSB_20_Default_ranged_hashENSB_20_Prime_rehash_policyENSB_17_Hashtable_traitsILb0ELb0ELb1EEEED1Ev@Base 20.1.6
 (optional=templinst)_ZNSt10_HashtableIN3spv14ExecutionModelESt4pairIKS1_St3setIjSt4lessIjESaIjEEESaIS9_ENSt8__detail10_Select1stESt8equal_toIS1_ESt4hashIS1_ENSB_18_Mod_range_hashingENSB_20_Default_ranged_hashENSB_20_Prime_rehash_policyENSB_17_Hashtable_traitsILb0ELb0ELb1EEEED2Ev@Base 20.1.6
 (optional=templinst|subst)_ZNSt10_HashtableIN5SPIRV19SPIRVExtInstSetKindESt4pairIKS1_jESaIS4_ENSt8__detail10_Select1stESt8equal_toIS1_ESt4hashIS1_ENS6_18_Mod_range_hashingENS6_20_Default_ranged_hashENS6_20_Prime_rehash_policyENS6_17_Hashtable_traitsILb0ELb0ELb1EEEE21_M_insert_unique_nodeE{size_t}{size_t}PNS6_10_Hash_nodeIS4_Lb0EEE{size_t}@Base 19
 (optional=templinst|arch=!any-i386 !powerpc !ppc64 !s390x)_ZNSt10_HashtableINSt7__cxx1112basic_stringIcSt11char_traitsIcESaIcEEESt4pairIKS5_jESaIS8_ENSt8__detail10_Select1stESt8equal_toIS5_ESt4hashIS5_ENSA_18_Mod_range_hashingENSA_20_Default_ranged_hashENSA_20_Prime_rehash_policyENSA_17_Hashtable_traitsILb1ELb0ELb1EEEE4findERS7_@Base 21.1.0-2~gcc15~
 (optional=templinst|arch=loong64 mips64el riscv64 sparc64)_ZNSt10_HashtableIPKN4llvm8FunctionES3_SaIS3_ENSt8__detail9_IdentityESt8equal_toIS3_ESt4hashIS3_ENS5_18_Mod_range_hashingENS5_20_Default_ranged_hashENS5_20_Prime_rehash_policyENS5_17_Hashtable_traitsILb0ELb1ELb1EEEE15_M_emplace_uniqIJRKS3_EEESt4pairINS5_14_Node_iteratorIS3_Lb1ELb0EEEbEDpOT_@Base 21.1.0-2~gcc15~
 (optional=templinst|subst)_ZNSt10_HashtableIPKN4llvm8FunctionES3_SaIS3_ENSt8__detail9_IdentityESt8equal_toIS3_ESt4hashIS3_ENS5_18_Mod_range_hashingENS5_20_Default_ranged_hashENS5_20_Prime_rehash_policyENS5_17_Hashtable_traitsILb0ELb1ELb1EEEE21_M_insert_unique_nodeE{size_t}{size_t}PNS5_10_Hash_nodeIS3_Lb0EEE{size_t}@Base 0
 (optional=templinst|subst)_ZNSt10_HashtableIjSt4pairIKj{uint64_t}ESaIS2_ENSt8__detail10_Select1stESt8equal_toIjESt4hashIjENS4_18_Mod_range_hashingENS4_20_Default_ranged_hashENS4_20_Prime_rehash_policyENS4_17_Hashtable_traitsILb0ELb0ELb1EEEE18_M_assign_elementsIRKSF_EEvOT_@Base 0
#MISSING: 21.1.0-2~gcc15~# (optional=templinst|subst|arch=any-amd64 arm64 ppc64el)_ZNSt10_HashtableIjSt4pairIKj{uint64_t}ESaIS2_ENSt8__detail10_Select1stESt8equal_toIjESt4hashIjENS4_18_Mod_range_hashingENS4_20_Default_ranged_hashENS4_20_Prime_rehash_policyENS4_17_Hashtable_traitsILb0ELb0ELb1EEEE9_M_assignIRKSF_NS4_17_ReuseOrAllocNodeISaINS4_10_Hash_nodeIS2_Lb0EEEEEEEEvOT_RKT0_@Base 0
 (optional=templinst|arch=loong64 mips64el riscv64 sparc64)_ZNSt10_HashtableIjjSaIjENSt8__detail9_IdentityESt8equal_toIjESt4hashIjENS1_18_Mod_range_hashingENS1_20_Default_ranged_hashENS1_20_Prime_rehash_policyENS1_17_Hashtable_traitsILb0ELb1ELb1EEEE15_M_emplace_uniqIJRKjEEESt4pairINS1_14_Node_iteratorIjLb1ELb0EEEbEDpOT_@Base 21.1.0-2~gcc15~
 (optional=templinst|subst)_ZNSt10_HashtableIjjSaIjENSt8__detail9_IdentityESt8equal_toIjESt4hashIjENS1_18_Mod_range_hashingENS1_20_Default_ranged_hashENS1_20_Prime_rehash_policyENS1_17_Hashtable_traitsILb0ELb1ELb1EEEE21_M_insert_unique_nodeE{size_t}{size_t}PNS1_10_Hash_nodeIjLb0EEE{size_t}@Base 18.1.1
 (optional=templinst|subst)_ZNSt11_Deque_baseIlSaIlEE17_M_initialize_mapE{size_t}@Base 0
 (optional=templinst)_ZNSt5dequeINSt8__detail9_StateSeqINSt7__cxx1112regex_traitsIcEEEESaIS5_EE16_M_push_back_auxIJRKS5_EEEvDpOT_@Base 0
 (optional=templinst|arch=!x32)_ZNSt5dequeINSt8__detail9_StateSeqINSt7__cxx1112regex_traitsIcEEEESaIS5_EE16_M_push_back_auxIJS5_EEEvDpOT_@Base 0
 (optional=templinst|subst)_ZNSt5dequeINSt8__detail9_StateSeqINSt7__cxx1112regex_traitsIcEEEESaIS5_EE17_M_reallocate_mapE{size_t}b@Base 0
 (optional=templinst)_ZNSt5dequeIlSaIlEE16_M_push_back_auxIJRKlEEEvDpOT_@Base 0
 (optional=templinst|subst)_ZNSt5dequeIlSaIlEE17_M_reallocate_mapE{size_t}b@Base 21.1.0-2~gcc15~
#MISSING: 21.1.0-2~gcc15~# (optional=templinst)_ZNSt6vectorIN3spv10CapabilityESaIS1_EE17_M_realloc_appendIJRKS1_EEEvDpOT_@Base 18.1.1-2~gcc14~
#MISSING: 21.1.0-2~gcc15~# (optional=templinst)_ZNSt6vectorIN3spv10CapabilityESaIS1_EE17_M_realloc_appendIJS1_EEEvDpOT_@Base 18.1.1-2~gcc14~
 (optional=templinst|subst)_ZNSt6vectorIN3spv15AccessQualifierESaIS1_EE17_M_default_appendE{size_t}@Base 0
#MISSING: 21.1.0-2~gcc15~# (optional=templinst)_ZNSt6vectorIN3spv15AccessQualifierESaIS1_EE17_M_realloc_appendIJRKS1_EEEvDpOT_@Base 18.1.1-2~gcc14~
 (optional=templinst)_ZNSt6vectorIN4llvm15SpecConstInfoTyESaIS1_EE17_M_realloc_appendIJS1_EEEvDpOT_@Base 18.1.1-2~gcc14~
#MISSING: 21.1.0-2~gcc15~# (optional=templinst)_ZNSt6vectorINSt7__cxx1112basic_stringIcSt11char_traitsIcESaIcEEESaIS5_EE17_M_realloc_appendIJRKS5_EEEvDpOT_@Base 18.1.1-2~gcc14~
#MISSING: 21.1.0-2~gcc15~# (optional=templinst)_ZNSt6vectorINSt7__cxx1112basic_stringIcSt11char_traitsIcESaIcEEESaIS5_EE17_M_realloc_appendIJRS5_EEEvDpOT_@Base 20
 (optional=templinst)_ZNSt6vectorINSt7__cxx1112basic_stringIcSt11char_traitsIcESaIcEEESaIS5_EE17_M_realloc_appendIJS5_EEEvDpOT_@Base 18.1.1-2~gcc14~
 (optional=templinst)_ZNSt6vectorINSt7__cxx1112regex_traitsIcE10_RegexMaskESaIS3_EE17_M_realloc_appendIJRKS3_EEEvDpOT_@Base 18.1.1-2~gcc14~
 (optional=templinst|subst)_ZNSt6vectorINSt7__cxx119sub_matchIN9__gnu_cxx17__normal_iteratorIPKcNS0_12basic_stringIcSt11char_traitsIcESaIcEEEEEEESaISC_EE14_M_fill_assignE{size_t}RKSC_@Base 18.1.13
 (optional=templinst|subst)_ZNSt6vectorINSt7__cxx119sub_matchIPKcEESaIS4_EE14_M_fill_assignE{size_t}RKS4_@Base 0
 (optional=templinst)_ZNSt6vectorINSt8__detail6_StateIcEESaIS2_EE17_M_realloc_appendIJS2_EEEvDpOT_@Base 18.1.1-2~gcc14~
#MISSING: 21.1.0-2~gcc15~# (optional=templinst)_ZNSt6vectorIPN4llvm8FunctionESaIS2_EE17_M_realloc_appendIJS2_EEEvDpOT_@Base 18.1.1-2~gcc14~
 (optional=templinst)_ZNSt6vectorIS_INSt7__cxx1112basic_stringIcSt11char_traitsIcESaIcEEESaIS5_EESaIS7_EE17_M_realloc_appendIJS7_EEEvDpOT_@Base 18.1.1-2~gcc14~
 (optional=templinst)_ZNSt6vectorISt4pairINSt7__cxx1112basic_stringIcSt11char_traitsIcESaIcEEES6_ESaIS7_EE17_M_realloc_appendIJS7_EEEvDpOT_@Base 18.1.1-2~gcc14~
 (optional=templinst|arch=armel armhf mips64el riscv64 sparc64)_ZNSt6vectorISt4pairIccESaIS1_EE17_M_realloc_appendIJS1_EEEvDpOT_@Base 18.1.1-2~gcc14~
#MISSING: 21.1.0-2~gcc15~# (optional=templinst|arch-bits=64)_ZNSt6vectorISt4pairIjjESaIS1_EE17_M_realloc_appendIJN3spv15LoopControlMaskERjEEEvDpOT_@Base 18.1.1-2~gcc14~
 (optional=templinst|arch=armel armhf any-i386 powerpc x32)_ZNSt6vectorISt4pairIlS_INSt7__cxx119sub_matchIN9__gnu_cxx17__normal_iteratorIPKcNS1_12basic_stringIcSt11char_traitsIcESaIcEEEEEEESaISD_EEESaISG_EE17_M_realloc_appendIJRlRKSF_EEEvDpOT_@Base 18.1.13
 (optional=templinst|arch=armel armhf any-i386 powerpc x32)_ZNSt6vectorISt4pairIlS_INSt7__cxx119sub_matchIPKcEESaIS5_EEESaIS8_EE17_M_realloc_appendIJRlRKS7_EEEvDpOT_@Base 18.1.1-2~gcc14~
#MISSING: 21.1.0-2~gcc15~# (optional=templinst)_ZNSt6vectorIcSaIcEE17_M_realloc_appendIJcEEEvDpOT_@Base 18.1.1-2~gcc14~
 (optional=templinst)_ZNSt6vectorIiSaIiEE17_M_realloc_appendIJiEEEvDpOT_@Base 18.1.1-2~gcc14~
#MISSING: 21.1.0-2~gcc15~# (optional=templinst|subst)_ZNSt6vectorIjSaIjEE14_M_fill_insertEN9__gnu_cxx17__normal_iteratorIPjS1_EE{size_t}RKj@Base 12
 (optional=templinst|subst)_ZNSt6vectorIjSaIjEE17_M_default_appendE{size_t}@Base 0
#MISSING: 21.1.0-2~gcc15~# (optional=templinst)_ZNSt6vectorIjSaIjEE17_M_realloc_appendIJRKjEEEvDpOT_@Base 18.1.1-2~gcc14~
#MISSING: 21.1.0-2~gcc15~# (optional=templinst)_ZNSt6vectorIjSaIjEE17_M_realloc_appendIJjEEEvDpOT_@Base 18.1.1-2~gcc14~
#MISSING: 21.1.0-2~gcc15~# (optional=templinst|arch-bits=64)_ZNSt6vectorImSaImEE17_M_realloc_appendIJRKmEEEvDpOT_@Base 18.1.1-2~gcc14~
 (optional=templinst|subst|arch=any-i386)_ZNSt6vectorI{uint64_t}SaI{uint64_t}EE17_M_realloc_appendIJ{uint64_t}EEEvDpOT_@Base 18.1.1-2~gcc14~
 (optional=templinst|subst)_ZNSt7__cxx1112basic_stringIcSt11char_traitsIcESaIcEE12_M_constructILb1EEEvPKc{size_t}@Base 21.1.0-2~gcc15~
 (optional=templinst)_ZNSt8_Rb_treeIN10SPIRVDebug11InstructionESt4pairIKS1_NSt7__cxx1112basic_stringIcSt11char_traitsIcESaIcEEEESt10_Select1stISA_ESt4lessIS1_ESaISA_EE22_M_emplace_hint_uniqueIJRKSt21piecewise_construct_tSt5tupleIJRS3_EESL_IJEEEEESt17_Rb_tree_iteratorISA_ESt23_Rb_tree_const_iteratorISA_EDpOT_@Base 18.1.1-2~gcc14~
 (optional=templinst)_ZNSt8_Rb_treeIN18NonSemanticAuxData11InstructionESt4pairIKS1_NSt7__cxx1112basic_stringIcSt11char_traitsIcESaIcEEEESt10_Select1stISA_ESt4lessIS1_ESaISA_EE22_M_emplace_hint_uniqueIJRKSt21piecewise_construct_tSt5tupleIJRS3_EESL_IJEEEEESt17_Rb_tree_iteratorISA_ESt23_Rb_tree_const_iteratorISA_EDpOT_@Base 18.1.1-2~gcc14~
 (optional=templinst)_ZNSt8_Rb_treeIN3spv10CapabilityESt4pairIKS1_NSt7__cxx1112basic_stringIcSt11char_traitsIcESaIcEEEESt10_Select1stISA_ESt4lessIS1_ESaISA_EE22_M_emplace_hint_uniqueIJRKSt21piecewise_construct_tSt5tupleIJRS3_EESL_IJEEEEESt17_Rb_tree_iteratorISA_ESt23_Rb_tree_const_iteratorISA_EDpOT_@Base 18.1.1-2~gcc14~
 (optional=templinst)_ZNSt8_Rb_treeIN3spv10CapabilityESt4pairIKS1_St6vectorIS1_SaIS1_EEESt10_Select1stIS7_ESt4lessIS1_ESaIS7_EE22_M_emplace_hint_uniqueIJRKSt21piecewise_construct_tSt5tupleIJRS3_EESI_IJEEEEESt17_Rb_tree_iteratorIS7_ESt23_Rb_tree_const_iteratorIS7_EDpOT_@Base 18.1.1-2~gcc14~
 (optional=templinst)_ZNSt8_Rb_treeIN3spv10DecorationESt4pairIKS1_NSt7__cxx1112basic_stringIcSt11char_traitsIcESaIcEEEESt10_Select1stISA_ESt4lessIS1_ESaISA_EE22_M_emplace_hint_uniqueIJRKSt21piecewise_construct_tSt5tupleIJRS3_EESL_IJEEEEESt17_Rb_tree_iteratorISA_ESt23_Rb_tree_const_iteratorISA_EDpOT_@Base 18.1.1-2~gcc14~
 (optional=templinst)_ZNSt8_Rb_treeIN3spv10DecorationESt4pairIKS1_St6vectorINS0_10CapabilityESaIS5_EEESt10_Select1stIS8_ESt4lessIS1_ESaIS8_EE22_M_emplace_hint_uniqueIJRKSt21piecewise_construct_tSt5tupleIJRS3_EESJ_IJEEEEESt17_Rb_tree_iteratorIS8_ESt23_Rb_tree_const_iteratorIS8_EDpOT_@Base 18.1.1-2~gcc14~
 (optional=templinst)_ZNSt8_Rb_treeIN3spv11LinkageTypeESt4pairIKS1_NSt7__cxx1112basic_stringIcSt11char_traitsIcESaIcEEEESt10_Select1stISA_ESt4lessIS1_ESaISA_EE22_M_emplace_hint_uniqueIJRKSt21piecewise_construct_tSt5tupleIJRS3_EESL_IJEEEEESt17_Rb_tree_iteratorISA_ESt23_Rb_tree_const_iteratorISA_EDpOT_@Base 18.1.1-2~gcc14~
 (optional=templinst)_ZNSt8_Rb_treeIN3spv12StorageClassESt4pairIKS1_St6vectorINS0_10CapabilityESaIS5_EEESt10_Select1stIS8_ESt4lessIS1_ESaIS8_EE22_M_emplace_hint_uniqueIJRKSt21piecewise_construct_tSt5tupleIJRS3_EESJ_IJEEEEESt17_Rb_tree_iteratorIS8_ESt23_Rb_tree_const_iteratorIS8_EDpOT_@Base 18.1.1-2~gcc14~
 (optional=templinst)_ZNSt8_Rb_treeIN3spv13ExecutionModeESt4pairIKS1_St6vectorINS0_10CapabilityESaIS5_EEESt10_Select1stIS8_ESt4lessIS1_ESaIS8_EE22_M_emplace_hint_uniqueIJRKSt21piecewise_construct_tSt5tupleIJRS3_EESJ_IJEEEEESt17_Rb_tree_iteratorIS8_ESt23_Rb_tree_const_iteratorIS8_EDpOT_@Base 18.1.1-2~gcc14~
 (optional=templinst)_ZNSt8_Rb_treeIN3spv14ExecutionModelESt4pairIKS1_St6vectorINS0_10CapabilityESaIS5_EEESt10_Select1stIS8_ESt4lessIS1_ESaIS8_EE22_M_emplace_hint_uniqueIJRKSt21piecewise_construct_tSt5tupleIJRS3_EESJ_IJEEEEESt17_Rb_tree_iteratorIS8_ESt23_Rb_tree_const_iteratorIS8_EDpOT_@Base 18.1.1-2~gcc14~
 (optional=templinst)_ZNSt8_Rb_treeIN3spv14FPRoundingModeESt4pairIKS1_NSt7__cxx1112basic_stringIcSt11char_traitsIcESaIcEEEESt10_Select1stISA_ESt4lessIS1_ESaISA_EE22_M_emplace_hint_uniqueIJRKSt21piecewise_construct_tSt5tupleIJRS3_EESL_IJEEEEESt17_Rb_tree_iteratorISA_ESt23_Rb_tree_const_iteratorISA_EDpOT_@Base 18.1.1-2~gcc14~
 (optional=templinst)_ZNSt8_Rb_treeIN3spv14GroupOperationESt4pairIKS1_NSt7__cxx1112basic_stringIcSt11char_traitsIcESaIcEEEESt10_Select1stISA_ESt4lessIS1_ESaISA_EE22_M_emplace_hint_uniqueIJRKSt21piecewise_construct_tSt5tupleIJRS3_EESL_IJEEEEESt17_Rb_tree_iteratorISA_ESt23_Rb_tree_const_iteratorISA_EDpOT_@Base 18.1.1-2~gcc14~
 (optional=templinst)_ZNSt8_Rb_treeIN3spv15AccessQualifierESt4pairIKS1_NSt7__cxx1112basic_stringIcSt11char_traitsIcESaIcEEEESt10_Select1stISA_ESt4lessIS1_ESaISA_EE22_M_emplace_hint_uniqueIJRKSt21piecewise_construct_tSt5tupleIJRS3_EESL_IJEEEEESt17_Rb_tree_iteratorISA_ESt23_Rb_tree_const_iteratorISA_EDpOT_@Base 18.1.1-2~gcc14~
 (optional=templinst)_ZNSt8_Rb_treeIN3spv19HostAccessQualifierESt4pairIKS1_NSt7__cxx1112basic_stringIcSt11char_traitsIcESaIcEEEESt10_Select1stISA_ESt4lessIS1_ESaISA_EE22_M_emplace_hint_uniqueIJRKSt21piecewise_construct_tSt5tupleIJRS3_EESL_IJEEEEESt17_Rb_tree_iteratorISA_ESt23_Rb_tree_const_iteratorISA_EDpOT_@Base 18.1.1-2~gcc14~
 (optional=templinst)_ZNSt8_Rb_treeIN3spv27InitializationModeQualifierESt4pairIKS1_NSt7__cxx1112basic_stringIcSt11char_traitsIcESaIcEEEESt10_Select1stISA_ESt4lessIS1_ESaISA_EE22_M_emplace_hint_uniqueIJRKSt21piecewise_construct_tSt5tupleIJRS3_EESL_IJEEEEESt17_Rb_tree_iteratorISA_ESt23_Rb_tree_const_iteratorISA_EDpOT_@Base 18.1.1-2~gcc14~
 (optional=templinst)_ZNSt8_Rb_treeIN3spv29NamedMaximumNumberOfRegistersESt4pairIKS1_NSt7__cxx1112basic_stringIcSt11char_traitsIcESaIcEEEESt10_Select1stISA_ESt4lessIS1_ESaISA_EE22_M_emplace_hint_uniqueIJRKSt21piecewise_construct_tSt5tupleIJRS3_EESL_IJEEEEESt17_Rb_tree_iteratorISA_ESt23_Rb_tree_const_iteratorISA_EDpOT_@Base 18.1.14
 (optional=templinst)_ZNSt8_Rb_treeIN3spv2OpESt4pairIKS1_NSt7__cxx1112basic_stringIcSt11char_traitsIcESaIcEEEESt10_Select1stISA_ESt4lessIS1_ESaISA_EE22_M_emplace_hint_uniqueIJRKSt21piecewise_construct_tSt5tupleIJRS3_EESL_IJEEEEESt17_Rb_tree_iteratorISA_ESt23_Rb_tree_const_iteratorISA_EDpOT_@Base 18.1.1-2~gcc14~
 (optional=templinst)_ZNSt8_Rb_treeIN3spv5ScopeESt4pairIKS1_NSt7__cxx1112basic_stringIcSt11char_traitsIcESaIcEEEESt10_Select1stISA_ESt4lessIS1_ESaISA_EE22_M_emplace_hint_uniqueIJRKSt21piecewise_construct_tSt5tupleIJRS3_EESL_IJEEEEESt17_Rb_tree_iteratorISA_ESt23_Rb_tree_const_iteratorISA_EDpOT_@Base 18.1.1-2~gcc14~
 (optional=templinst)_ZNSt8_Rb_treeIN3spv7BuiltInESt4pairIKS1_NSt7__cxx1112basic_stringIcSt11char_traitsIcESaIcEEEESt10_Select1stISA_ESt4lessIS1_ESaISA_EE22_M_emplace_hint_uniqueIJRKSt21piecewise_construct_tSt5tupleIJRS3_EESL_IJEEEEESt17_Rb_tree_iteratorISA_ESt23_Rb_tree_const_iteratorISA_EDpOT_@Base 18.1.1-2~gcc14~
 (optional=templinst)_ZNSt8_Rb_treeIN3spv7BuiltInESt4pairIKS1_St6vectorINS0_10CapabilityESaIS5_EEESt10_Select1stIS8_ESt4lessIS1_ESaIS8_EE22_M_emplace_hint_uniqueIJRKSt21piecewise_construct_tSt5tupleIJRS3_EESJ_IJEEEEESt17_Rb_tree_iteratorIS8_ESt23_Rb_tree_const_iteratorIS8_EDpOT_@Base 18.1.1-2~gcc14~
#MISSING: 18.1.14# (optional=templinst)_ZNSt8_Rb_treeIN3spv8internal37InternalNamedMaximumNumberOfRegistersESt4pairIKS2_NSt7__cxx1112basic_stringIcSt11char_traitsIcESaIcEEEESt10_Select1stISB_ESt4lessIS2_ESaISB_EE22_M_emplace_hint_uniqueIJRKSt21piecewise_construct_tSt5tupleIJRS4_EESM_IJEEEEESt17_Rb_tree_iteratorISB_ESt23_Rb_tree_const_iteratorISB_EDpOT_@Base 18.1.1-2~gcc14~
 (optional=templinst)_ZNSt8_Rb_treeIN5SPIRV11ExtensionIDESt4pairIKS1_NSt7__cxx1112basic_stringIcSt11char_traitsIcESaIcEEEESt10_Select1stISA_ESt4lessIS1_ESaISA_EE22_M_emplace_hint_uniqueIJRKSt21piecewise_construct_tSt5tupleIJRS3_EESL_IJEEEEESt17_Rb_tree_iteratorISA_ESt23_Rb_tree_const_iteratorISA_EDpOT_@Base 18.1.1-2~gcc14~
 (optional=templinst)_ZNSt8_Rb_treeIN5SPIRV14SPIRVErrorCodeESt4pairIKS1_NSt7__cxx1112basic_stringIcSt11char_traitsIcESaIcEEEESt10_Select1stISA_ESt4lessIS1_ESaISA_EE22_M_emplace_hint_uniqueIJRKSt21piecewise_construct_tSt5tupleIJRS3_EESL_IJEEEEESt17_Rb_tree_iteratorISA_ESt23_Rb_tree_const_iteratorISA_EDpOT_@Base 18.1.1-2~gcc14~
 (optional=templinst)_ZNSt8_Rb_treeIN5SPIRV19SPIRVExtInstSetKindESt4pairIKS1_NSt7__cxx1112basic_stringIcSt11char_traitsIcESaIcEEEESt10_Select1stISA_ESt4lessIS1_ESaISA_EE22_M_emplace_hint_uniqueIJRKSt21piecewise_construct_tSt5tupleIJRS3_EESL_IJEEEEESt17_Rb_tree_iteratorISA_ESt23_Rb_tree_const_iteratorISA_EDpOT_@Base 18.1.1-2~gcc14~
 (optional=templinst|arch=any-amd64 arm64 loong64 mips64el ppc64el riscv64 sparc64)_ZNSt8_Rb_treeIN7OCLUtil6OclExt4KindES2_St9_IdentityIS2_ESt4lessIS2_ESaIS2_EE16_M_insert_uniqueIRKS2_EESt4pairISt17_Rb_tree_iteratorIS2_EbEOT_@Base 0
 (optional=templinst)_ZNSt8_Rb_treeIN7OCLUtil6OclExt4KindESt4pairIKS2_NSt7__cxx1112basic_stringIcSt11char_traitsIcESaIcEEEESt10_Select1stISB_ESt4lessIS2_ESaISB_EE22_M_emplace_hint_uniqueIJRKSt21piecewise_construct_tSt5tupleIJRS4_EESM_IJEEEEESt17_Rb_tree_iteratorISB_ESt23_Rb_tree_const_iteratorISB_EDpOT_@Base 18.1.1-2~gcc14~
 (optional=templinst)_ZNSt8_Rb_treeIN9OpenCLLIB11EntrypointsESt4pairIKS1_NSt7__cxx1112basic_stringIcSt11char_traitsIcESaIcEEEESt10_Select1stISA_ESt4lessIS1_ESaISA_EE22_M_emplace_hint_uniqueIJRKSt21piecewise_construct_tSt5tupleIJRS3_EESL_IJEEEEESt17_Rb_tree_iteratorISA_ESt23_Rb_tree_const_iteratorISA_EDpOT_@Base 18.1.1-2~gcc14~
#MISSING: 21.1.0-2~gcc15~# (optional=templinst)_ZNSt8_Rb_treeINSt7__cxx1112basic_stringIcSt11char_traitsIcESaIcEEES5_St9_IdentityIS5_ESt4lessIS5_ESaIS5_EE11equal_rangeERKS5_@Base 21
 (optional=templinst|arch=any-amd64 arm64 loong64 mips64el ppc64el riscv64 sparc64)_ZNSt8_Rb_treeINSt7__cxx1112basic_stringIcSt11char_traitsIcESaIcEEES5_St9_IdentityIS5_ESt4lessIS5_ESaIS5_EE16_M_insert_uniqueIRKS5_EESt4pairISt17_Rb_tree_iteratorIS5_EbEOT_@Base 0
 (optional=templinst|arch=any-amd64 arm64 loong64 mips64el ppc64el riscv64 sparc64)_ZNSt8_Rb_treeINSt7__cxx1112basic_stringIcSt11char_traitsIcESaIcEEES5_St9_IdentityIS5_ESt4lessIS5_ESaIS5_EE16_M_insert_uniqueIS5_EESt4pairISt17_Rb_tree_iteratorIS5_EbEOT_@Base 0
#MISSING: 21.1.0-2~gcc15~# (optional=templinst)_ZNSt8_Rb_treeINSt7__cxx1112basic_stringIcSt11char_traitsIcESaIcEEES5_St9_IdentityIS5_ESt4lessIS5_ESaIS5_EE4findERKS5_@Base 14
#MISSING: 21.1.0-2~gcc15~# (optional=templinst|arch=armel armhf any-i386 powerpc ppc64 s390x)_ZNSt8_Rb_treeINSt7__cxx1112basic_stringIcSt11char_traitsIcESaIcEEESt4pairIKS5_N10SPIRVDebug11InstructionEESt10_Select1stISA_ESt4lessIS5_ESaISA_EE22_M_emplace_hint_uniqueIJRKSt21piecewise_construct_tSt5tupleIJRS7_EESL_IJEEEEESt17_Rb_tree_iteratorISA_ESt23_Rb_tree_const_iteratorISA_EDpOT_@Base 18.1.1-2~gcc14~
#MISSING: 21.1.0-2~gcc15~# (optional=templinst|arch=armel armhf any-i386 powerpc ppc64 s390x)_ZNSt8_Rb_treeINSt7__cxx1112basic_stringIcSt11char_traitsIcESaIcEEESt4pairIKS5_N18NonSemanticAuxData11InstructionEESt10_Select1stISA_ESt4lessIS5_ESaISA_EE22_M_emplace_hint_uniqueIJRKSt21piecewise_construct_tSt5tupleIJRS7_EESL_IJEEEEESt17_Rb_tree_iteratorISA_ESt23_Rb_tree_const_iteratorISA_EDpOT_@Base 18.1.1-2~gcc14~
#MISSING: 21.1.0-2~gcc15~# (optional=templinst|arch=armel armhf any-i386 powerpc ppc64 s390x)_ZNSt8_Rb_treeINSt7__cxx1112basic_stringIcSt11char_traitsIcESaIcEEESt4pairIKS5_N3spv10CapabilityEESt10_Select1stISA_ESt4lessIS5_ESaISA_EE22_M_emplace_hint_uniqueIJRKSt21piecewise_construct_tSt5tupleIJRS7_EESL_IJEEEEESt17_Rb_tree_iteratorISA_ESt23_Rb_tree_const_iteratorISA_EDpOT_@Base 18.1.1-2~gcc14~
#MISSING: 21.1.0-2~gcc15~# (optional=templinst|arch=armel armhf any-i386 powerpc ppc64 s390x)_ZNSt8_Rb_treeINSt7__cxx1112basic_stringIcSt11char_traitsIcESaIcEEESt4pairIKS5_N3spv10DecorationEESt10_Select1stISA_ESt4lessIS5_ESaISA_EE22_M_emplace_hint_uniqueIJRKSt21piecewise_construct_tSt5tupleIJRS7_EESL_IJEEEEESt17_Rb_tree_iteratorISA_ESt23_Rb_tree_const_iteratorISA_EDpOT_@Base 18.1.1-2~gcc14~
#MISSING: 21.1.0-2~gcc15~# (optional=templinst|arch=armel armhf any-i386 powerpc ppc64 s390x)_ZNSt8_Rb_treeINSt7__cxx1112basic_stringIcSt11char_traitsIcESaIcEEESt4pairIKS5_N3spv11LinkageTypeEESt10_Select1stISA_ESt4lessIS5_ESaISA_EE22_M_emplace_hint_uniqueIJRKSt21piecewise_construct_tSt5tupleIJRS7_EESL_IJEEEEESt17_Rb_tree_iteratorISA_ESt23_Rb_tree_const_iteratorISA_EDpOT_@Base 18.1.1-2~gcc14~
#MISSING: 21.1.0-2~gcc15~# (optional=templinst|arch=armel armhf any-i386 powerpc ppc64 s390x)_ZNSt8_Rb_treeINSt7__cxx1112basic_stringIcSt11char_traitsIcESaIcEEESt4pairIKS5_N3spv14FPRoundingModeEESt10_Select1stISA_ESt4lessIS5_ESaISA_EE22_M_emplace_hint_uniqueIJRKSt21piecewise_construct_tSt5tupleIJRS7_EESL_IJEEEEESt17_Rb_tree_iteratorISA_ESt23_Rb_tree_const_iteratorISA_EDpOT_@Base 18.1.1-2~gcc14~
#MISSING: 21.1.0-2~gcc15~# (optional=templinst|arch=armel armhf any-i386 powerpc ppc64 s390x)_ZNSt8_Rb_treeINSt7__cxx1112basic_stringIcSt11char_traitsIcESaIcEEESt4pairIKS5_N3spv14GroupOperationEESt10_Select1stISA_ESt4lessIS5_ESaISA_EE22_M_emplace_hint_uniqueIJRKSt21piecewise_construct_tSt5tupleIJRS7_EESL_IJEEEEESt17_Rb_tree_iteratorISA_ESt23_Rb_tree_const_iteratorISA_EDpOT_@Base 18.1.1-2~gcc14~
#MISSING: 21.1.0-2~gcc15~# (optional=templinst|arch=armel armhf any-i386 powerpc ppc64 s390x)_ZNSt8_Rb_treeINSt7__cxx1112basic_stringIcSt11char_traitsIcESaIcEEESt4pairIKS5_N3spv15AccessQualifierEESt10_Select1stISA_ESt4lessIS5_ESaISA_EE22_M_emplace_hint_uniqueIJRKSt21piecewise_construct_tSt5tupleIJRS7_EESL_IJEEEEESt17_Rb_tree_iteratorISA_ESt23_Rb_tree_const_iteratorISA_EDpOT_@Base 18.1.1-2~gcc14~
#MISSING: 21.1.0-2~gcc15~# (optional=templinst|arch=armel armhf any-i386 powerpc ppc64 s390x)_ZNSt8_Rb_treeINSt7__cxx1112basic_stringIcSt11char_traitsIcESaIcEEESt4pairIKS5_N3spv19HostAccessQualifierEESt10_Select1stISA_ESt4lessIS5_ESaISA_EE22_M_emplace_hint_uniqueIJRKSt21piecewise_construct_tSt5tupleIJRS7_EESL_IJEEEEESt17_Rb_tree_iteratorISA_ESt23_Rb_tree_const_iteratorISA_EDpOT_@Base 18.1.1-2~gcc14~
#MISSING: 21.1.0-2~gcc15~# (optional=templinst|arch=armel armhf any-i386 powerpc ppc64 s390x)_ZNSt8_Rb_treeINSt7__cxx1112basic_stringIcSt11char_traitsIcESaIcEEESt4pairIKS5_N3spv27InitializationModeQualifierEESt10_Select1stISA_ESt4lessIS5_ESaISA_EE22_M_emplace_hint_uniqueIJRKSt21piecewise_construct_tSt5tupleIJRS7_EESL_IJEEEEESt17_Rb_tree_iteratorISA_ESt23_Rb_tree_const_iteratorISA_EDpOT_@Base 18.1.1-2~gcc14~
#MISSING: 21.1.0-2~gcc15~# (optional=templinst)_ZNSt8_Rb_treeINSt7__cxx1112basic_stringIcSt11char_traitsIcESaIcEEESt4pairIKS5_N3spv29NamedMaximumNumberOfRegistersEESt10_Select1stISA_ESt4lessIS5_ESaISA_EE22_M_emplace_hint_uniqueIJRKSt21piecewise_construct_tSt5tupleIJRS7_EESL_IJEEEEESt17_Rb_tree_iteratorISA_ESt23_Rb_tree_const_iteratorISA_EDpOT_@Base 18.1.14
#MISSING: 21.1.0-2~gcc15~# (optional=templinst)_ZNSt8_Rb_treeINSt7__cxx1112basic_stringIcSt11char_traitsIcESaIcEEESt4pairIKS5_N3spv2OpEESt10_Select1stISA_ESt4lessIS5_ESaISA_EE22_M_emplace_hint_uniqueIJRKSt21piecewise_construct_tSt5tupleIJRS7_EESL_IJEEEEESt17_Rb_tree_iteratorISA_ESt23_Rb_tree_const_iteratorISA_EDpOT_@Base 18.1.1-2~gcc14~
#MISSING: 21.1.0-2~gcc15~# (optional=templinst|arch=armel armhf any-i386 powerpc ppc64 s390x)_ZNSt8_Rb_treeINSt7__cxx1112basic_stringIcSt11char_traitsIcESaIcEEESt4pairIKS5_N3spv5ScopeEESt10_Select1stISA_ESt4lessIS5_ESaISA_EE22_M_emplace_hint_uniqueIJRKSt21piecewise_construct_tSt5tupleIJRS7_EESL_IJEEEEESt17_Rb_tree_iteratorISA_ESt23_Rb_tree_const_iteratorISA_EDpOT_@Base 18.1.1-2~gcc14~
#MISSING: 18.1.1-2~gcc14# (optional=templinst)_ZNSt8_Rb_treeINSt7__cxx1112basic_stringIcSt11char_traitsIcESaIcEEESt4pairIKS5_N3spv5ScopeEESt10_Select1stISA_ESt4lessIS5_ESaISA_EE24_M_get_insert_unique_posERS7_@Base 14
#MISSING: 18.1.1-2~gcc14# (optional=templinst|arch=any-amd64 arm64 mips64el ppc64el riscv64 sparc64)_ZNSt8_Rb_treeINSt7__cxx1112basic_stringIcSt11char_traitsIcESaIcEEESt4pairIKS5_N3spv5ScopeEESt10_Select1stISA_ESt4lessIS5_ESaISA_EE29_M_get_insert_hint_unique_posESt23_Rb_tree_const_iteratorISA_ERS7_@Base 14
#MISSING: 21.1.0-2~gcc15~# (optional=templinst|arch=armel armhf any-i386 powerpc ppc64 s390x)_ZNSt8_Rb_treeINSt7__cxx1112basic_stringIcSt11char_traitsIcESaIcEEESt4pairIKS5_N3spv7BuiltInEESt10_Select1stISA_ESt4lessIS5_ESaISA_EE22_M_emplace_hint_uniqueIJRKSt21piecewise_construct_tSt5tupleIJRS7_EESL_IJEEEEESt17_Rb_tree_iteratorISA_ESt23_Rb_tree_const_iteratorISA_EDpOT_@Base 18.1.1-2~gcc14~
#MISSING: 18.1.14# (optional=templinst)_ZNSt8_Rb_treeINSt7__cxx1112basic_stringIcSt11char_traitsIcESaIcEEESt4pairIKS5_N3spv8internal37InternalNamedMaximumNumberOfRegistersEESt10_Select1stISB_ESt4lessIS5_ESaISB_EE22_M_emplace_hint_uniqueIJRKSt21piecewise_construct_tSt5tupleIJRS7_EESM_IJEEEEESt17_Rb_tree_iteratorISB_ESt23_Rb_tree_const_iteratorISB_EDpOT_@Base 18.1.1-2~gcc14~
#MISSING: 21.1.0-2~gcc15~# (optional=templinst|arch=armel armhf any-i386 powerpc ppc64 s390x)_ZNSt8_Rb_treeINSt7__cxx1112basic_stringIcSt11char_traitsIcESaIcEEESt4pairIKS5_N5SPIRV11ExtensionIDEESt10_Select1stISA_ESt4lessIS5_ESaISA_EE22_M_emplace_hint_uniqueIJRKSt21piecewise_construct_tSt5tupleIJRS7_EESL_IJEEEEESt17_Rb_tree_iteratorISA_ESt23_Rb_tree_const_iteratorISA_EDpOT_@Base 18.1.1-2~gcc14~
#MISSING: 21.1.0-2~gcc15~# (optional=templinst)_ZNSt8_Rb_treeINSt7__cxx1112basic_stringIcSt11char_traitsIcESaIcEEESt4pairIKS5_N5SPIRV14SPIRVErrorCodeEESt10_Select1stISA_ESt4lessIS5_ESaISA_EE22_M_emplace_hint_uniqueIJRKSt21piecewise_construct_tSt5tupleIJRS7_EESL_IJEEEEESt17_Rb_tree_iteratorISA_ESt23_Rb_tree_const_iteratorISA_EDpOT_@Base 18.1.1-2~gcc14~
#MISSING: 21.1.0-2~gcc15~# (optional=templinst)_ZNSt8_Rb_treeINSt7__cxx1112basic_stringIcSt11char_traitsIcESaIcEEESt4pairIKS5_N5SPIRV19SPIRVExtInstSetKindEESt10_Select1stISA_ESt4lessIS5_ESaISA_EE22_M_emplace_hint_uniqueIJRKSt21piecewise_construct_tSt5tupleIJRS7_EESL_IJEEEEESt17_Rb_tree_iteratorISA_ESt23_Rb_tree_const_iteratorISA_EDpOT_@Base 18.1.1-2~gcc14~
#MISSING: 21.1.0-2~gcc15~# (optional=templinst|arch=armel armhf any-i386 powerpc ppc64 s390x)_ZNSt8_Rb_treeINSt7__cxx1112basic_stringIcSt11char_traitsIcESaIcEEESt4pairIKS5_N7OCLUtil6OclExt4KindEESt10_Select1stISB_ESt4lessIS5_ESaISB_EE22_M_emplace_hint_uniqueIJRKSt21piecewise_construct_tSt5tupleIJRS7_EESM_IJEEEEESt17_Rb_tree_iteratorISB_ESt23_Rb_tree_const_iteratorISB_EDpOT_@Base 18.1.1-2~gcc14~
#MISSING: 21.1.0-2~gcc15~# (optional=templinst|arch=armel armhf any-i386 powerpc ppc64 s390x)_ZNSt8_Rb_treeINSt7__cxx1112basic_stringIcSt11char_traitsIcESaIcEEESt4pairIKS5_N9OpenCLLIB11EntrypointsEESt10_Select1stISA_ESt4lessIS5_ESaISA_EE22_M_emplace_hint_uniqueIJRKSt21piecewise_construct_tSt5tupleIJRS7_EESL_IJEEEEESt17_Rb_tree_iteratorISA_ESt23_Rb_tree_const_iteratorISA_EDpOT_@Base 18.1.1-2~gcc14~
#MISSING: 19# (optional=templinst|arch=armel armhf)_ZNSt8_Rb_treeINSt7__cxx1112basic_stringIcSt11char_traitsIcESaIcEEESt4pairIKS5_jESt10_Select1stIS8_ESt4lessIS5_ESaIS8_EE22_M_emplace_hint_uniqueIJRKSt21piecewise_construct_tSt5tupleIJRS7_EESJ_IJEEEEESt17_Rb_tree_iteratorIS8_ESt23_Rb_tree_const_iteratorIS8_EDpOT_@Base 18.1.1-2~gcc14~
 (optional=templinst|arch=any-amd64 arm64 loong64 mips64el ppc64el riscv64 sparc64)_ZNSt8_Rb_treeIPN4llvm8FunctionES2_St9_IdentityIS2_ESt4lessIS2_ESaIS2_EE16_M_insert_uniqueIRKS2_EESt4pairISt17_Rb_tree_iteratorIS2_EbEOT_@Base 0
 (optional=templinst|arch=any-amd64 arm64 loong64 mips64el ppc64el riscv64 sparc64)_ZNSt8_Rb_treeISt4pairIjNSt7__cxx1112basic_stringIcSt11char_traitsIcESaIcEEEES7_St9_IdentityIS7_ESt4lessIS7_ESaIS7_EE11equal_rangeERKS7_@Base 20.1.6
 (optional=templinst|arch=any-amd64 arm64 loong64 mips64el ppc64el riscv64 sparc64)_ZNSt8_Rb_treeISt4pairIjNSt7__cxx1112basic_stringIcSt11char_traitsIcESaIcEEEES7_St9_IdentityIS7_ESt4lessIS7_ESaIS7_EE16_M_insert_uniqueIS7_EES0_ISt17_Rb_tree_iteratorIS7_EbEOT_@Base 20.1.6
 (optional=templinst|arch=armel armhf any-i386 powerpc ppc64 s390x)_ZNSt8_Rb_treeISt6vectorIN3spv10CapabilityESaIS2_EESt4pairIKS4_NS1_10DecorationEESt10_Select1stIS8_ESt4lessIS4_ESaIS8_EE22_M_emplace_hint_uniqueIJRKSt21piecewise_construct_tSt5tupleIJRS6_EESJ_IJEEEEESt17_Rb_tree_iteratorIS8_ESt23_Rb_tree_const_iteratorIS8_EDpOT_@Base 18.1.1-2~gcc14~
 (optional=templinst)_ZNSt8_Rb_treeISt6vectorIN3spv10CapabilityESaIS2_EESt4pairIKS4_NS1_10DecorationEESt10_Select1stIS8_ESt4lessIS4_ESaIS8_EE24_M_get_insert_unique_posERS6_@Base 0
 (optional=templinst|arch=any-amd64 arm64 loong64 mips64el ppc64el riscv64 sparc64)_ZNSt8_Rb_treeISt6vectorIN3spv10CapabilityESaIS2_EESt4pairIKS4_NS1_10DecorationEESt10_Select1stIS8_ESt4lessIS4_ESaIS8_EE29_M_get_insert_hint_unique_posESt23_Rb_tree_const_iteratorIS8_ERS6_@Base 0
 (optional=templinst|arch=armel armhf any-i386 powerpc ppc64 s390x)_ZNSt8_Rb_treeISt6vectorIN3spv10CapabilityESaIS2_EESt4pairIKS4_NS1_12StorageClassEESt10_Select1stIS8_ESt4lessIS4_ESaIS8_EE22_M_emplace_hint_uniqueIJRKSt21piecewise_construct_tSt5tupleIJRS6_EESJ_IJEEEEESt17_Rb_tree_iteratorIS8_ESt23_Rb_tree_const_iteratorIS8_EDpOT_@Base 18.1.1-2~gcc14~
 (optional=templinst)_ZNSt8_Rb_treeISt6vectorIN3spv10CapabilityESaIS2_EESt4pairIKS4_NS1_12StorageClassEESt10_Select1stIS8_ESt4lessIS4_ESaIS8_EE24_M_get_insert_unique_posERS6_@Base 0
 (optional=templinst|arch=any-amd64 arm64 loong64 mips64el ppc64el riscv64 sparc64)_ZNSt8_Rb_treeISt6vectorIN3spv10CapabilityESaIS2_EESt4pairIKS4_NS1_12StorageClassEESt10_Select1stIS8_ESt4lessIS4_ESaIS8_EE29_M_get_insert_hint_unique_posESt23_Rb_tree_const_iteratorIS8_ERS6_@Base 0
 (optional=templinst|arch=armel armhf any-i386 powerpc ppc64 s390x)_ZNSt8_Rb_treeISt6vectorIN3spv10CapabilityESaIS2_EESt4pairIKS4_NS1_13ExecutionModeEESt10_Select1stIS8_ESt4lessIS4_ESaIS8_EE22_M_emplace_hint_uniqueIJRKSt21piecewise_construct_tSt5tupleIJRS6_EESJ_IJEEEEESt17_Rb_tree_iteratorIS8_ESt23_Rb_tree_const_iteratorIS8_EDpOT_@Base 18.1.1-2~gcc14~
 (optional=templinst)_ZNSt8_Rb_treeISt6vectorIN3spv10CapabilityESaIS2_EESt4pairIKS4_NS1_13ExecutionModeEESt10_Select1stIS8_ESt4lessIS4_ESaIS8_EE24_M_get_insert_unique_posERS6_@Base 0
 (optional=templinst|arch=any-amd64 arm64 loong64 mips64el ppc64el riscv64 sparc64)_ZNSt8_Rb_treeISt6vectorIN3spv10CapabilityESaIS2_EESt4pairIKS4_NS1_13ExecutionModeEESt10_Select1stIS8_ESt4lessIS4_ESaIS8_EE29_M_get_insert_hint_unique_posESt23_Rb_tree_const_iteratorIS8_ERS6_@Base 0
 (optional=templinst|arch=armel armhf any-i386 powerpc ppc64 s390x)_ZNSt8_Rb_treeISt6vectorIN3spv10CapabilityESaIS2_EESt4pairIKS4_NS1_14ExecutionModelEESt10_Select1stIS8_ESt4lessIS4_ESaIS8_EE22_M_emplace_hint_uniqueIJRKSt21piecewise_construct_tSt5tupleIJRS6_EESJ_IJEEEEESt17_Rb_tree_iteratorIS8_ESt23_Rb_tree_const_iteratorIS8_EDpOT_@Base 18.1.1-2~gcc14~
 (optional=templinst)_ZNSt8_Rb_treeISt6vectorIN3spv10CapabilityESaIS2_EESt4pairIKS4_NS1_14ExecutionModelEESt10_Select1stIS8_ESt4lessIS4_ESaIS8_EE24_M_get_insert_unique_posERS6_@Base 0
 (optional=templinst|arch=any-amd64 arm64 loong64 mips64el ppc64el riscv64 sparc64)_ZNSt8_Rb_treeISt6vectorIN3spv10CapabilityESaIS2_EESt4pairIKS4_NS1_14ExecutionModelEESt10_Select1stIS8_ESt4lessIS4_ESaIS8_EE29_M_get_insert_hint_unique_posESt23_Rb_tree_const_iteratorIS8_ERS6_@Base 0
 (optional=templinst|arch=armel armhf any-i386 powerpc ppc64 s390x)_ZNSt8_Rb_treeISt6vectorIN3spv10CapabilityESaIS2_EESt4pairIKS4_NS1_7BuiltInEESt10_Select1stIS8_ESt4lessIS4_ESaIS8_EE22_M_emplace_hint_uniqueIJRKSt21piecewise_construct_tSt5tupleIJRS6_EESJ_IJEEEEESt17_Rb_tree_iteratorIS8_ESt23_Rb_tree_const_iteratorIS8_EDpOT_@Base 18.1.1-2~gcc14~
 (optional=templinst)_ZNSt8_Rb_treeISt6vectorIN3spv10CapabilityESaIS2_EESt4pairIKS4_NS1_7BuiltInEESt10_Select1stIS8_ESt4lessIS4_ESaIS8_EE24_M_get_insert_unique_posERS6_@Base 12
 (optional=templinst|arch=any-amd64 arm64 loong64 mips64el ppc64el riscv64 sparc64)_ZNSt8_Rb_treeISt6vectorIN3spv10CapabilityESaIS2_EESt4pairIKS4_NS1_7BuiltInEESt10_Select1stIS8_ESt4lessIS4_ESaIS8_EE29_M_get_insert_hint_unique_posESt23_Rb_tree_const_iteratorIS8_ERS6_@Base 12
 (optional=templinst|arch=armel armhf any-i386 powerpc ppc64 s390x)_ZNSt8_Rb_treeISt6vectorIN3spv10CapabilityESaIS2_EESt4pairIKS4_S2_ESt10_Select1stIS7_ESt4lessIS4_ESaIS7_EE22_M_emplace_hint_uniqueIJRKSt21piecewise_construct_tSt5tupleIJRS6_EESI_IJEEEEESt17_Rb_tree_iteratorIS7_ESt23_Rb_tree_const_iteratorIS7_EDpOT_@Base 18.1.1-2~gcc14~
 (optional=templinst)_ZNSt8_Rb_treeISt6vectorIN3spv10CapabilityESaIS2_EESt4pairIKS4_S2_ESt10_Select1stIS7_ESt4lessIS4_ESaIS7_EE24_M_get_insert_unique_posERS6_@Base 0
 (optional=templinst|arch=any-amd64 arm64 loong64 mips64el ppc64el riscv64 sparc64)_ZNSt8_Rb_treeISt6vectorIN3spv10CapabilityESaIS2_EESt4pairIKS4_S2_ESt10_Select1stIS7_ESt4lessIS4_ESaIS7_EE29_M_get_insert_hint_unique_posESt23_Rb_tree_const_iteratorIS7_ERS6_@Base 0
 (optional=templinst)_ZNSt8_Rb_treeIjjSt9_IdentityIjESt4lessIjESaIjEE16_M_insert_uniqueIRKjEESt4pairISt17_Rb_tree_iteratorIjEbEOT_@Base 0
 (optional=templinst|arch=any-amd64 arm64 loong64 mips64el ppc64el riscv64 sparc64)_ZNSt8_Rb_treeIjjSt9_IdentityIjESt4lessIjESaIjEE16_M_insert_uniqueIjEESt4pairISt17_Rb_tree_iteratorIjEbEOT_@Base 13
 (optional=templinst|arch=any-amd64 any-i386)_ZNSt8__detail17__regex_algo_implIN9__gnu_cxx17__normal_iteratorIPKcNSt7__cxx1112basic_stringIcSt11char_traitsIcESaIcEEEEESaINS5_9sub_matchISB_EEEcNS5_12regex_traitsIcEEEEbT_SH_RNS5_13match_resultsISH_T0_EERKNS5_11basic_regexIT1_T2_EENSt15regex_constants15match_flag_typeENS_20_RegexExecutorPolicyEb@Base 18.1.13
 (optional=templinst)_ZNSt8__detail17__regex_algo_implIPKcSaINSt7__cxx119sub_matchIS2_EEEcNS3_12regex_traitsIcEEEEbT_S9_RNS3_13match_resultsIS9_T0_EERKNS3_11basic_regexIT1_T2_EENSt15regex_constants15match_flag_typeENS_20_RegexExecutorPolicyEb@Base 0
 (optional=templinst)_ZNSt8__detail18__to_chars_10_implIjEEvPcjT_@Base 0
 (optional=templinst|subst)_ZNSt8__detail18__to_chars_10_implI{uint64_t}EEvPcjT_@Base 16
 (optional=templinst)_ZNSt8__detail8_ScannerIcE12_M_eat_classEc@Base 0
 (optional=templinst)_ZNSt8__detail8_ScannerIcE14_M_scan_normalEv@Base 0
 (optional=templinst)_ZNSt8__detail8_ScannerIcE16_M_scan_in_braceEv@Base 0
 (optional=templinst)_ZNSt8__detail8_ScannerIcE17_M_eat_escape_awkEv@Base 0
 (optional=templinst)_ZNSt8__detail8_ScannerIcE18_M_eat_escape_ecmaEv@Base 0
 (optional=templinst)_ZNSt8__detail8_ScannerIcE18_M_scan_in_bracketEv@Base 0
 (optional=templinst)_ZNSt8__detail8_ScannerIcE19_M_eat_escape_posixEv@Base 0
 (optional=templinst)_ZNSt8__detail8_ScannerIcEC1EPKcS3_NSt15regex_constants18syntax_option_typeESt6locale@Base 0
 (optional=templinst)_ZNSt8__detail8_ScannerIcEC2EPKcS3_NSt15regex_constants18syntax_option_typeESt6locale@Base 0
 (optional=templinst)_ZNSt8__detail9_CompilerINSt7__cxx1112regex_traitsIcEEE11_M_try_charEv@Base 0
 (optional=templinst)_ZNSt8__detail9_CompilerINSt7__cxx1112regex_traitsIcEEE12_M_assertionEv@Base 0
 (optional=templinst)_ZNSt8__detail9_CompilerINSt7__cxx1112regex_traitsIcEEE13_M_quantifierEv@Base 0
 (optional=templinst)_ZNSt8__detail9_CompilerINSt7__cxx1112regex_traitsIcEEE14_M_alternativeEv@Base 0
 (optional=templinst)_ZNSt8__detail9_CompilerINSt7__cxx1112regex_traitsIcEEE14_M_disjunctionEv@Base 0
 (optional=templinst)_ZNSt8__detail9_CompilerINSt7__cxx1112regex_traitsIcEEE16_M_cur_int_valueEi@Base 0
 (optional=templinst)_ZNSt8__detail9_CompilerINSt7__cxx1112regex_traitsIcEEE18_M_expression_termILb0ELb0EEEbRNS4_13_BracketStateERNS_15_BracketMatcherIS3_XT_EXT0_EEE@Base 0
 (optional=templinst)_ZNSt8__detail9_CompilerINSt7__cxx1112regex_traitsIcEEE18_M_expression_termILb0ELb1EEEbRNS4_13_BracketStateERNS_15_BracketMatcherIS3_XT_EXT0_EEE@Base 0
 (optional=templinst)_ZNSt8__detail9_CompilerINSt7__cxx1112regex_traitsIcEEE18_M_expression_termILb1ELb0EEEbRNS4_13_BracketStateERNS_15_BracketMatcherIS3_XT_EXT0_EEE@Base 0
 (optional=templinst)_ZNSt8__detail9_CompilerINSt7__cxx1112regex_traitsIcEEE18_M_expression_termILb1ELb1EEEbRNS4_13_BracketStateERNS_15_BracketMatcherIS3_XT_EXT0_EEE@Base 0
 (optional=templinst)_ZNSt8__detail9_CompilerINSt7__cxx1112regex_traitsIcEEE21_M_bracket_expressionEv@Base 0
 (optional=templinst)_ZNSt8__detail9_CompilerINSt7__cxx1112regex_traitsIcEEE25_M_insert_bracket_matcherILb0ELb0EEEvb@Base 0
 (optional=templinst)_ZNSt8__detail9_CompilerINSt7__cxx1112regex_traitsIcEEE25_M_insert_bracket_matcherILb0ELb1EEEvb@Base 0
 (optional=templinst)_ZNSt8__detail9_CompilerINSt7__cxx1112regex_traitsIcEEE25_M_insert_bracket_matcherILb1ELb0EEEvb@Base 0
 (optional=templinst)_ZNSt8__detail9_CompilerINSt7__cxx1112regex_traitsIcEEE25_M_insert_bracket_matcherILb1ELb1EEEvb@Base 0
 (optional=templinst)_ZNSt8__detail9_CompilerINSt7__cxx1112regex_traitsIcEEE33_M_insert_character_class_matcherILb0ELb0EEEvv@Base 0
 (optional=templinst)_ZNSt8__detail9_CompilerINSt7__cxx1112regex_traitsIcEEE33_M_insert_character_class_matcherILb0ELb1EEEvv@Base 0
 (optional=templinst)_ZNSt8__detail9_CompilerINSt7__cxx1112regex_traitsIcEEE33_M_insert_character_class_matcherILb1ELb0EEEvv@Base 0
 (optional=templinst)_ZNSt8__detail9_CompilerINSt7__cxx1112regex_traitsIcEEE33_M_insert_character_class_matcherILb1ELb1EEEvv@Base 0
 (optional=templinst)_ZNSt8__detail9_CompilerINSt7__cxx1112regex_traitsIcEEE7_M_atomEv@Base 0
 (optional=templinst)_ZNSt8__detail9_CompilerINSt7__cxx1112regex_traitsIcEEEC1EPKcS6_RKSt6localeNSt15regex_constants18syntax_option_typeE@Base 0
 (optional=templinst)_ZNSt8__detail9_CompilerINSt7__cxx1112regex_traitsIcEEEC2EPKcS6_RKSt6localeNSt15regex_constants18syntax_option_typeE@Base 0
 (optional=templinst)_ZNSt8__detail9_ExecutorIN9__gnu_cxx17__normal_iteratorIPKcNSt7__cxx1112basic_stringIcSt11char_traitsIcESaIcEEEEESaINS5_9sub_matchISB_EEENS5_12regex_traitsIcEELb0EE12_M_lookaheadEl@Base 18.1.13
 (optional=templinst)_ZNSt8__detail9_ExecutorIN9__gnu_cxx17__normal_iteratorIPKcNSt7__cxx1112basic_stringIcSt11char_traitsIcESaIcEEEEESaINS5_9sub_matchISB_EEENS5_12regex_traitsIcEELb0EE16_M_rep_once_moreENSH_11_Match_modeEl@Base 18.1.13
 (optional=templinst)_ZNSt8__detail9_ExecutorIN9__gnu_cxx17__normal_iteratorIPKcNSt7__cxx1112basic_stringIcSt11char_traitsIcESaIcEEEEESaINS5_9sub_matchISB_EEENS5_12regex_traitsIcEELb0EE17_M_handle_backrefENSH_11_Match_modeEl@Base 18.1.13
 (optional=templinst)_ZNSt8__detail9_ExecutorIN9__gnu_cxx17__normal_iteratorIPKcNSt7__cxx1112basic_stringIcSt11char_traitsIcESaIcEEEEESaINS5_9sub_matchISB_EEENS5_12regex_traitsIcEELb0EE6_M_dfsENSH_11_Match_modeEl@Base 18.1.13
 (optional=templinst)_ZNSt8__detail9_ExecutorIN9__gnu_cxx17__normal_iteratorIPKcNSt7__cxx1112basic_stringIcSt11char_traitsIcESaIcEEEEESaINS5_9sub_matchISB_EEENS5_12regex_traitsIcEELb1EE12_M_lookaheadEl@Base 18.1.13
 (optional=templinst)_ZNSt8__detail9_ExecutorIN9__gnu_cxx17__normal_iteratorIPKcNSt7__cxx1112basic_stringIcSt11char_traitsIcESaIcEEEEESaINS5_9sub_matchISB_EEENS5_12regex_traitsIcEELb1EE16_M_rep_once_moreENSH_11_Match_modeEl@Base 18.1.13
 (optional=templinst)_ZNSt8__detail9_ExecutorIN9__gnu_cxx17__normal_iteratorIPKcNSt7__cxx1112basic_stringIcSt11char_traitsIcESaIcEEEEESaINS5_9sub_matchISB_EEENS5_12regex_traitsIcEELb1EE17_M_handle_backrefENSH_11_Match_modeEl@Base 18.1.13
 (optional=templinst)_ZNSt8__detail9_ExecutorIN9__gnu_cxx17__normal_iteratorIPKcNSt7__cxx1112basic_stringIcSt11char_traitsIcESaIcEEEEESaINS5_9sub_matchISB_EEENS5_12regex_traitsIcEELb1EE6_M_dfsENSH_11_Match_modeEl@Base 18.1.13
 (optional=templinst)_ZNSt8__detail9_ExecutorIPKcSaINSt7__cxx119sub_matchIS2_EEENS3_12regex_traitsIcEELb0EE12_M_lookaheadEl@Base 0
 (optional=templinst)_ZNSt8__detail9_ExecutorIPKcSaINSt7__cxx119sub_matchIS2_EEENS3_12regex_traitsIcEELb0EE16_M_rep_once_moreENS9_11_Match_modeEl@Base 0
 (optional=templinst)_ZNSt8__detail9_ExecutorIPKcSaINSt7__cxx119sub_matchIS2_EEENS3_12regex_traitsIcEELb0EE17_M_handle_backrefENS9_11_Match_modeEl@Base 0
 (optional=templinst)_ZNSt8__detail9_ExecutorIPKcSaINSt7__cxx119sub_matchIS2_EEENS3_12regex_traitsIcEELb0EE6_M_dfsENS9_11_Match_modeEl@Base 0
 (optional=templinst)_ZNSt8__detail9_ExecutorIPKcSaINSt7__cxx119sub_matchIS2_EEENS3_12regex_traitsIcEELb1EE12_M_lookaheadEl@Base 0
 (optional=templinst)_ZNSt8__detail9_ExecutorIPKcSaINSt7__cxx119sub_matchIS2_EEENS3_12regex_traitsIcEELb1EE16_M_rep_once_moreENS9_11_Match_modeEl@Base 0
 (optional=templinst)_ZNSt8__detail9_ExecutorIPKcSaINSt7__cxx119sub_matchIS2_EEENS3_12regex_traitsIcEELb1EE17_M_handle_backrefENS9_11_Match_modeEl@Base 0
 (optional=templinst)_ZNSt8__detail9_ExecutorIPKcSaINSt7__cxx119sub_matchIS2_EEENS3_12regex_traitsIcEELb1EE6_M_dfsENS9_11_Match_modeEl@Base 0
 (optional=templinst)_ZNSt8__detail9_Map_baseIN3spv14ExecutionModelESt4pairIKS2_St3setIjSt4lessIjESaIjEEESaISA_ENS_10_Select1stESt8equal_toIS2_ESt4hashIS2_ENS_18_Mod_range_hashingENS_20_Default_ranged_hashENS_20_Prime_rehash_policyENS_17_Hashtable_traitsILb0ELb0ELb1EEELb1EEixERS4_@Base 19
 (optional=templinst)_ZNSt8__detail9_Map_baseINSt7__cxx1112basic_stringIcSt11char_traitsIcESaIcEEESt4pairIKS6_jESaIS9_ENS_10_Select1stESt8equal_toIS6_ESt4hashIS6_ENS_18_Mod_range_hashingENS_20_Default_ranged_hashENS_20_Prime_rehash_policyENS_17_Hashtable_traitsILb1ELb0ELb1EEELb1EEixERS8_@Base 21.1.0-2~gcc15~
#MISSING: 21.1.0-2~gcc15~# (optional=templinst)_ZNSt8__detail9_Map_baseIjSt4pairIKjN5SPIRV19SPIRVExtInstSetKindEESaIS5_ENS_10_Select1stESt8equal_toIjESt4hashIjENS_18_Mod_range_hashingENS_20_Default_ranged_hashENS_20_Prime_rehash_policyENS_17_Hashtable_traitsILb0ELb0ELb1EEELb1EEixERS2_@Base 19
 (optional=templinst)_ZNSt8__detail9_StateSeqINSt7__cxx1112regex_traitsIcEEE8_M_cloneEv@Base 0
#MISSING: 21.1.0-2~gcc15~# (optional=templinst|subst)_ZSt17__rotate_adaptiveIN9__gnu_cxx17__normal_iteratorIPSt4pairIjjESt6vectorIS3_SaIS3_EEEES4_{ssize_t}ET_S9_S9_S9_T1_SA_T0_SA_@Base 13
 _ZSt19piecewise_construct@Base 16
#MISSING: 19# (optional=lto)_ZTIN4llvm3Any11StorageBaseE@Base 16
#MISSING: 19# (optional=lto)_ZTIN4llvm3Any11StorageImplIPKNS_6ModuleEEE@Base 16
 (arch=armel riscv64)_ZTIN9__gnu_cxx7__mutexE@Base 13
 _ZTINSt8__detail11_AnyMatcherINSt7__cxx1112regex_traitsIcEELb0ELb0ELb0EEE@Base 13
 _ZTINSt8__detail11_AnyMatcherINSt7__cxx1112regex_traitsIcEELb0ELb0ELb1EEE@Base 13
 _ZTINSt8__detail11_AnyMatcherINSt7__cxx1112regex_traitsIcEELb0ELb1ELb0EEE@Base 13
 _ZTINSt8__detail11_AnyMatcherINSt7__cxx1112regex_traitsIcEELb0ELb1ELb1EEE@Base 13
 _ZTINSt8__detail11_AnyMatcherINSt7__cxx1112regex_traitsIcEELb1ELb0ELb0EEE@Base 13
 _ZTINSt8__detail11_AnyMatcherINSt7__cxx1112regex_traitsIcEELb1ELb0ELb1EEE@Base 13
 _ZTINSt8__detail11_AnyMatcherINSt7__cxx1112regex_traitsIcEELb1ELb1ELb0EEE@Base 13
 _ZTINSt8__detail11_AnyMatcherINSt7__cxx1112regex_traitsIcEELb1ELb1ELb1EEE@Base 13
 _ZTINSt8__detail12_CharMatcherINSt7__cxx1112regex_traitsIcEELb0ELb0EEE@Base 13
 _ZTINSt8__detail12_CharMatcherINSt7__cxx1112regex_traitsIcEELb0ELb1EEE@Base 13
 _ZTINSt8__detail12_CharMatcherINSt7__cxx1112regex_traitsIcEELb1ELb0EEE@Base 13
 _ZTINSt8__detail12_CharMatcherINSt7__cxx1112regex_traitsIcEELb1ELb1EEE@Base 13
 _ZTINSt8__detail15_BracketMatcherINSt7__cxx1112regex_traitsIcEELb0ELb0EEE@Base 13
 _ZTINSt8__detail15_BracketMatcherINSt7__cxx1112regex_traitsIcEELb0ELb1EEE@Base 13
 _ZTINSt8__detail15_BracketMatcherINSt7__cxx1112regex_traitsIcEELb1ELb0EEE@Base 13
 _ZTINSt8__detail15_BracketMatcherINSt7__cxx1112regex_traitsIcEELb1ELb1EEE@Base 13
 (arch=armel riscv64)_ZTISt11_Mutex_baseILN9__gnu_cxx12_Lock_policyE1EE@Base 13
 (arch=!armel !riscv64)_ZTISt11_Mutex_baseILN9__gnu_cxx12_Lock_policyE2EE@Base 13
 (arch=armel riscv64)_ZTISt16_Sp_counted_baseILN9__gnu_cxx12_Lock_policyE1EE@Base 13
 (arch=!armel !riscv64)_ZTISt16_Sp_counted_baseILN9__gnu_cxx12_Lock_policyE2EE@Base 13
 (arch=armel armhf)_ZTISt19_Sp_make_shared_tag@Base 13
 (optional=lto|arch=armel riscv64)_ZTISt23_Sp_counted_ptr_inplaceINSt8__detail4_NFAINSt7__cxx1112regex_traitsIcEEEESaIvELN9__gnu_cxx12_Lock_policyE1EE@Base 13
 (optional=lto|arch=!armel !riscv64)_ZTISt23_Sp_counted_ptr_inplaceINSt8__detail4_NFAINSt7__cxx1112regex_traitsIcEEEESaIvELN9__gnu_cxx12_Lock_policyE2EE@Base 13
#MISSING: 19# (optional=lto)_ZTSN4llvm3Any11StorageBaseE@Base 16
#MISSING: 19# (optional=lto)_ZTSN4llvm3Any11StorageImplIPKNS_6ModuleEEE@Base 16
 (arch=armel riscv64)_ZTSN9__gnu_cxx7__mutexE@Base 13
 _ZTSNSt8__detail11_AnyMatcherINSt7__cxx1112regex_traitsIcEELb0ELb0ELb0EEE@Base 13
 _ZTSNSt8__detail11_AnyMatcherINSt7__cxx1112regex_traitsIcEELb0ELb0ELb1EEE@Base 13
 _ZTSNSt8__detail11_AnyMatcherINSt7__cxx1112regex_traitsIcEELb0ELb1ELb0EEE@Base 13
 _ZTSNSt8__detail11_AnyMatcherINSt7__cxx1112regex_traitsIcEELb0ELb1ELb1EEE@Base 13
 _ZTSNSt8__detail11_AnyMatcherINSt7__cxx1112regex_traitsIcEELb1ELb0ELb0EEE@Base 13
 _ZTSNSt8__detail11_AnyMatcherINSt7__cxx1112regex_traitsIcEELb1ELb0ELb1EEE@Base 13
 _ZTSNSt8__detail11_AnyMatcherINSt7__cxx1112regex_traitsIcEELb1ELb1ELb0EEE@Base 13
 _ZTSNSt8__detail11_AnyMatcherINSt7__cxx1112regex_traitsIcEELb1ELb1ELb1EEE@Base 13
 _ZTSNSt8__detail12_CharMatcherINSt7__cxx1112regex_traitsIcEELb0ELb0EEE@Base 13
 _ZTSNSt8__detail12_CharMatcherINSt7__cxx1112regex_traitsIcEELb0ELb1EEE@Base 13
 _ZTSNSt8__detail12_CharMatcherINSt7__cxx1112regex_traitsIcEELb1ELb0EEE@Base 13
 _ZTSNSt8__detail12_CharMatcherINSt7__cxx1112regex_traitsIcEELb1ELb1EEE@Base 13
 _ZTSNSt8__detail15_BracketMatcherINSt7__cxx1112regex_traitsIcEELb0ELb0EEE@Base 13
 _ZTSNSt8__detail15_BracketMatcherINSt7__cxx1112regex_traitsIcEELb0ELb1EEE@Base 13
 _ZTSNSt8__detail15_BracketMatcherINSt7__cxx1112regex_traitsIcEELb1ELb0EEE@Base 13
 _ZTSNSt8__detail15_BracketMatcherINSt7__cxx1112regex_traitsIcEELb1ELb1EEE@Base 13
 (arch=armel riscv64)_ZTSSt11_Mutex_baseILN9__gnu_cxx12_Lock_policyE1EE@Base 13
 (arch=!armel !riscv64)_ZTSSt11_Mutex_baseILN9__gnu_cxx12_Lock_policyE2EE@Base 13
 (arch=armel riscv64)_ZTSSt16_Sp_counted_baseILN9__gnu_cxx12_Lock_policyE1EE@Base 13
 (arch=!armel !riscv64)_ZTSSt16_Sp_counted_baseILN9__gnu_cxx12_Lock_policyE2EE@Base 13
 _ZTSSt19_Sp_make_shared_tag@Base 13
 (arch=armel riscv64)_ZTSSt23_Sp_counted_ptr_inplaceINSt8__detail4_NFAINSt7__cxx1112regex_traitsIcEEEESaIvELN9__gnu_cxx12_Lock_policyE1EE@Base 13
 (arch=!armel !riscv64)_ZTSSt23_Sp_counted_ptr_inplaceINSt8__detail4_NFAINSt7__cxx1112regex_traitsIcEEEESaIvELN9__gnu_cxx12_Lock_policyE2EE@Base 13
#MISSING: 19# (optional=lto)_ZTVN4llvm3Any11StorageBaseE@Base 17
#MISSING: 19# (optional=lto)_ZTVN4llvm3Any11StorageImplIPKNS_6ModuleEEE@Base 16
#MISSING: 21# (optional=lto|arch=armel riscv64)_ZTVSt16_Sp_counted_baseILN9__gnu_cxx12_Lock_policyE1EE@Base 17
#MISSING: 21# (optional=lto|arch=!armel !riscv64)_ZTVSt16_Sp_counted_baseILN9__gnu_cxx12_Lock_policyE2EE@Base 17
 (optional=lto|arch=armel riscv64)_ZTVSt23_Sp_counted_ptr_inplaceINSt8__detail4_NFAINSt7__cxx1112regex_traitsIcEEEESaIvELN9__gnu_cxx12_Lock_policyE1EE@Base 0
 (optional=lto|arch=!armel !riscv64)_ZTVSt23_Sp_counted_ptr_inplaceINSt8__detail4_NFAINSt7__cxx1112regex_traitsIcEEEESaIvELN9__gnu_cxx12_Lock_policyE2EE@Base 0
 (optional=templinst)_ZZNKSt7__cxx1112regex_traitsIcE16lookup_classnameIPKcEENS1_10_RegexMaskET_S6_bE12__classnames@Base 0
 (optional=templinst)_ZZNKSt7__cxx1112regex_traitsIcE18lookup_collatenameIPKcEENS_12basic_stringIcSt11char_traitsIcESaIcEEET_SA_E14__collatenames@Base 0
 (optional=templinst)_ZZNKSt8__detail11_AnyMatcherINSt7__cxx1112regex_traitsIcEELb0ELb0ELb0EEclEcE5__nul@Base 0
 (optional=templinst)_ZZNKSt8__detail11_AnyMatcherINSt7__cxx1112regex_traitsIcEELb0ELb0ELb1EEclEcE5__nul@Base 0
 (optional=templinst)_ZZNKSt8__detail11_AnyMatcherINSt7__cxx1112regex_traitsIcEELb0ELb1ELb0EEclEcE5__nul@Base 0
 (optional=templinst)_ZZNKSt8__detail11_AnyMatcherINSt7__cxx1112regex_traitsIcEELb0ELb1ELb1EEclEcE5__nul@Base 0
 (optional=templinst)_ZZNKSt8__detail9_ExecutorIN9__gnu_cxx17__normal_iteratorIPKcNSt7__cxx1112basic_stringIcSt11char_traitsIcESaIcEEEEESaINS5_9sub_matchISB_EEENS5_12regex_traitsIcEELb0EE10_M_is_wordEcE3__s@Base 18.1.13
 (optional=templinst)_ZZNKSt8__detail9_ExecutorIN9__gnu_cxx17__normal_iteratorIPKcNSt7__cxx1112basic_stringIcSt11char_traitsIcESaIcEEEEESaINS5_9sub_matchISB_EEENS5_12regex_traitsIcEELb1EE10_M_is_wordEcE3__s@Base 18.1.13
 (optional=templinst)_ZZNKSt8__detail9_ExecutorIPKcSaINSt7__cxx119sub_matchIS2_EEENS3_12regex_traitsIcEELb0EE10_M_is_wordEcE3__s@Base 0
 (optional=templinst)_ZZNKSt8__detail9_ExecutorIPKcSaINSt7__cxx119sub_matchIS2_EEENS3_12regex_traitsIcEELb1EE10_M_is_wordEcE3__s@Base 0
 _ZZNSt19_Sp_make_shared_tag5_S_tiEvE5__tag@Base 0
#MISSING: 21# (optional=templinst|arch=!powerpc !ppc64)_ZZNSt9once_flag18_Prepare_executionC4IZSt9call_onceIRFPvRN4llvm12PassRegistryEEJSt17reference_wrapperIS5_EEEvRS_OT_DpOT0_EUlvE_EERSC_ENUlvE_4_FUNEv@Base 0
 (optional=templinst|arch=!powerpc !ppc64)_ZZNSt9once_flag18_Prepare_executionC4IZSt9call_onceIRFvRN4llvm12PassRegistryEEJSt17reference_wrapperIS4_EEEvRS_OT_DpOT0_EUlvE_EERSB_ENUlvE_4_FUNEv@Base 21
