# SymbolsHelper-Confirmed: 15.0.0 amd64
libLLVMSPIRVLib.so.15 #PACKAGE# #MINVER#
* Build-Depends-Package: libllvmspirvlib-15-dev
 _Z13mapDebugFlagsN4llvm6DINode7DIFlagsE@Base 0
 _Z15transDebugFlagsPKN4llvm6DINodeE@Base 0
 _Z17addPassesForSPIRVRN4llvm11PassManagerINS_6ModuleENS_15AnalysisManagerIS1_JEEEJEEERKN5SPIRV14TranslatorOptsE@Base 15
#MISSING: 15# _Z17addPassesForSPIRVRN4llvm6legacy11PassManagerERKN5SPIRV14TranslatorOptsE@Base 0
 _Z17adjustAccessFlagsPN4llvm7DIScopeEj@Base 12
 _Z17isValidLLVMModulePN4llvm6ModuleERN5SPIRV13SPIRVErrorLogE@Base 0
 _ZGVZN5SPIRV8SPIRVMapIN10SPIRVDebug11InstructionENSt7__cxx1112basic_stringIcSt11char_traitsIcESaIcEEEvE6getMapEvE3Map@Base 0
 _ZGVZN5SPIRV8SPIRVMapIN10SPIRVDebug11InstructionENSt7__cxx1112basic_stringIcSt11char_traitsIcESaIcEEEvE7getRMapEvE3Map@Base 0
 _ZGVZN5SPIRV8SPIRVMapIN17VectorComputeUtil11VCFloatTypeE14VCFloatControlvE6getMapEvE3Map@Base 0
 _ZGVZN5SPIRV8SPIRVMapIN17VectorComputeUtil11VCFloatTypeEjvE6getMapEvE3Map@Base 0
 _ZGVZN5SPIRV8SPIRVMapIN17VectorComputeUtil11VCFloatTypeEjvE7getRMapEvE3Map@Base 0
 _ZGVZN5SPIRV8SPIRVMapIN3spv10CapabilityENSt7__cxx1112basic_stringIcSt11char_traitsIcESaIcEEEvE6getMapEvE3Map@Base 0
 _ZGVZN5SPIRV8SPIRVMapIN3spv10CapabilityENSt7__cxx1112basic_stringIcSt11char_traitsIcESaIcEEEvE7getRMapEvE3Map@Base 0
 _ZGVZN5SPIRV8SPIRVMapIN3spv10CapabilityESt6vectorIS2_SaIS2_EEvE6getMapEvE3Map@Base 0
 _ZGVZN5SPIRV8SPIRVMapIN3spv10DecorationENSt7__cxx1112basic_stringIcSt11char_traitsIcESaIcEEEvE6getMapEvE3Map@Base 0
 _ZGVZN5SPIRV8SPIRVMapIN3spv10DecorationENSt7__cxx1112basic_stringIcSt11char_traitsIcESaIcEEEvE7getRMapEvE3Map@Base 0
 _ZGVZN5SPIRV8SPIRVMapIN3spv10DecorationESt6vectorINS1_10CapabilityESaIS4_EEvE6getMapEvE3Map@Base 0
 _ZGVZN5SPIRV8SPIRVMapIN3spv11LinkageTypeENSt7__cxx1112basic_stringIcSt11char_traitsIcESaIcEEEvE6getMapEvE3Map@Base 0
 _ZGVZN5SPIRV8SPIRVMapIN3spv11LinkageTypeENSt7__cxx1112basic_stringIcSt11char_traitsIcESaIcEEEvE7getRMapEvE3Map@Base 0
 _ZGVZN5SPIRV8SPIRVMapIN3spv12FPDenormModeENS1_13ExecutionModeEvE6getMapEvE3Map@Base 0
 _ZGVZN5SPIRV8SPIRVMapIN3spv12StorageClassESt6vectorINS1_10CapabilityESaIS4_EEvE6getMapEvE3Map@Base 0
 _ZGVZN5SPIRV8SPIRVMapIN3spv13ExecutionModeESt6vectorINS1_10CapabilityESaIS4_EEvE6getMapEvE3Map@Base 0
 _ZGVZN5SPIRV8SPIRVMapIN3spv14ExecutionModelESt6vectorINS1_10CapabilityESaIS4_EEvE6getMapEvE3Map@Base 0
 _ZGVZN5SPIRV8SPIRVMapIN3spv14FPRoundingModeE14VCFloatControlvE6getMapEvE3Map@Base 0
 _ZGVZN5SPIRV8SPIRVMapIN3spv14FPRoundingModeE14VCFloatControlvE7getRMapEvE3Map@Base 0
 _ZGVZN5SPIRV8SPIRVMapIN3spv14FPRoundingModeENS1_13ExecutionModeEvE6getMapEvE3Map@Base 0
 _ZGVZN5SPIRV8SPIRVMapIN3spv15FPOperationModeE14VCFloatControlvE6getMapEvE3Map@Base 0
 _ZGVZN5SPIRV8SPIRVMapIN3spv15FPOperationModeE14VCFloatControlvE7getRMapEvE3Map@Base 0
 _ZGVZN5SPIRV8SPIRVMapIN3spv15FPOperationModeENS1_13ExecutionModeEvE6getMapEvE3Map@Base 0
 _ZGVZN5SPIRV8SPIRVMapIN3spv2OpENSt7__cxx1112basic_stringIcSt11char_traitsIcESaIcEEEvE6getMapEvE3Map@Base 0
 _ZGVZN5SPIRV8SPIRVMapIN3spv2OpENSt7__cxx1112basic_stringIcSt11char_traitsIcESaIcEEEvE7getRMapEvE3Map@Base 0
 _ZGVZN5SPIRV8SPIRVMapIN3spv2OpES2_NS_14IntBoolOpMapIdEE6getMapEvE3Map@Base 0
 _ZGVZN5SPIRV8SPIRVMapIN3spv2OpES2_NS_14IntBoolOpMapIdEE7getRMapEvE3Map@Base 0
 _ZGVZN5SPIRV8SPIRVMapIN3spv5ScopeENSt7__cxx1112basic_stringIcSt11char_traitsIcESaIcEEEvE6getMapEvE3Map@Base 14
 _ZGVZN5SPIRV8SPIRVMapIN3spv7BuiltInENSt7__cxx1112basic_stringIcSt11char_traitsIcESaIcEEEvE6getMapEvE3Map@Base 0
 _ZGVZN5SPIRV8SPIRVMapIN3spv7BuiltInENSt7__cxx1112basic_stringIcSt11char_traitsIcESaIcEEEvE7getRMapEvE3Map@Base 0
 _ZGVZN5SPIRV8SPIRVMapIN3spv7BuiltInESt6vectorINS1_10CapabilityESaIS4_EEvE6getMapEvE3Map@Base 12
 _ZGVZN5SPIRV8SPIRVMapIN3spv8internal25InternalJointMatrixLayoutENSt7__cxx1112basic_stringIcSt11char_traitsIcESaIcEEEvE6getMapEvE3Map@Base 14
 _ZGVZN5SPIRV8SPIRVMapIN4llvm13AtomicRMWInst5BinOpEN3spv2OpEvE6getMapEvE3Map@Base 0
 _ZGVZN5SPIRV8SPIRVMapIN4llvm5dwarf12LocationAtomEN10SPIRVDebug16ExpressionOpCodeEvE6getMapEvE3Map@Base 0
 _ZGVZN5SPIRV8SPIRVMapIN4llvm5dwarf12LocationAtomEN10SPIRVDebug16ExpressionOpCodeEvE7getRMapEvE3Map@Base 0
 _ZGVZN5SPIRV8SPIRVMapIN4llvm5dwarf3TagEN10SPIRVDebug16CompositeTypeTagEvE6getMapEvE3Map@Base 0
 _ZGVZN5SPIRV8SPIRVMapIN4llvm5dwarf3TagEN10SPIRVDebug16TypeQualifierTagEvE6getMapEvE3Map@Base 0
 _ZGVZN5SPIRV8SPIRVMapIN4llvm5dwarf3TagEN10SPIRVDebug16TypeQualifierTagEvE7getRMapEvE3Map@Base 0
 _ZGVZN5SPIRV8SPIRVMapIN4llvm5dwarf3TagEN10SPIRVDebug17ImportedEntityTagEvE6getMapEvE3Map@Base 0
 _ZGVZN5SPIRV8SPIRVMapIN4llvm5dwarf8TypeKindEN10SPIRVDebug11EncodingTagEvE6getMapEvE3Map@Base 0
 _ZGVZN5SPIRV8SPIRVMapIN4llvm5dwarf8TypeKindEN10SPIRVDebug11EncodingTagEvE7getRMapEvE3Map@Base 0
 _ZGVZN5SPIRV8SPIRVMapIN4llvm7CmpInst9PredicateEN3spv2OpEvE6getMapEvE3Map@Base 0
 _ZGVZN5SPIRV8SPIRVMapIN4llvm7CmpInst9PredicateEN3spv2OpEvE7getRMapEvE3Map@Base 0
 _ZGVZN5SPIRV8SPIRVMapIN4llvm9Attribute8AttrKindEN3spv19FunctionControlMaskEvE6getMapEvE3Map@Base 0
 _ZGVZN5SPIRV8SPIRVMapIN4llvm9Attribute8AttrKindEN3spv26FunctionParameterAttributeEvE6getMapEvE3Map@Base 14
 _ZGVZN5SPIRV8SPIRVMapIN4llvm9Attribute8AttrKindEN3spv26FunctionParameterAttributeEvE7getRMapEvE3Map@Base 0
 _ZGVZN5SPIRV8SPIRVMapIN7OCLUtil12OCLScopeKindEN3spv5ScopeEvE6getMapEvE3Map@Base 0
 _ZGVZN5SPIRV8SPIRVMapIN7OCLUtil12OCLScopeKindEN3spv5ScopeEvE7getRMapEvE3Map@Base 0
 _ZGVZN5SPIRV8SPIRVMapIN7OCLUtil15OCLMemFenceKindEN3spv19MemorySemanticsMaskEvE6getMapEvE3Map@Base 0
 _ZGVZN5SPIRV8SPIRVMapIN7OCLUtil15OCLMemOrderKindEjN3spv19MemorySemanticsMaskEE6getMapEvE3Map@Base 0
 _ZGVZN5SPIRV8SPIRVMapIN7OCLUtil15OCLMemOrderKindEjN3spv19MemorySemanticsMaskEE7getRMapEvE3Map@Base 0
 _ZGVZN5SPIRV8SPIRVMapIN7OCLUtil23OCLMemFenceExtendedKindEN3spv19MemorySemanticsMaskEvE6getMapEvE3Map@Base 0
 _ZGVZN5SPIRV8SPIRVMapIN7OCLUtil23OCLMemFenceExtendedKindEN3spv19MemorySemanticsMaskEvE7getRMapEvE3Map@Base 0
 _ZGVZN5SPIRV8SPIRVMapIN7OCLUtil6OclExt4KindEN3spv10CapabilityEvE6getMapEvE3Map@Base 0
 _ZGVZN5SPIRV8SPIRVMapIN7OCLUtil6OclExt4KindEN3spv10CapabilityEvE7getRMapEvE3Map@Base 0
 _ZGVZN5SPIRV8SPIRVMapIN7OCLUtil6OclExt4KindENSt7__cxx1112basic_stringIcSt11char_traitsIcESaIcEEEvE6getMapEvE3Map@Base 0
 _ZGVZN5SPIRV8SPIRVMapIN7OCLUtil6OclExt4KindENSt7__cxx1112basic_stringIcSt11char_traitsIcESaIcEEEvE7getRMapEvE3Map@Base 0
 _ZGVZN5SPIRV8SPIRVMapIN9OpenCLLIB11EntrypointsENSt7__cxx1112basic_stringIcSt11char_traitsIcESaIcEEEvE6getMapEvE3Map@Base 0
 _ZGVZN5SPIRV8SPIRVMapIN9OpenCLLIB11EntrypointsENSt7__cxx1112basic_stringIcSt11char_traitsIcESaIcEEEvE7getRMapEvE3Map@Base 0
 _ZGVZN5SPIRV8SPIRVMapINS_11ExtensionIDENSt7__cxx1112basic_stringIcSt11char_traitsIcESaIcEEEvE6getMapEvE3Map@Base 0
 _ZGVZN5SPIRV8SPIRVMapINS_11ExtensionIDENSt7__cxx1112basic_stringIcSt11char_traitsIcESaIcEEEvE7getRMapEvE3Map@Base 0
 _ZGVZN5SPIRV8SPIRVMapINS_14SPIRVErrorCodeENSt7__cxx1112basic_stringIcSt11char_traitsIcESaIcEEEvE6getMapEvE3Map@Base 0
 _ZGVZN5SPIRV8SPIRVMapINS_16SPIRAddressSpaceEN3spv12StorageClassEvE6getMapEvE3Map@Base 0
 _ZGVZN5SPIRV8SPIRVMapINS_16SPIRAddressSpaceEN3spv12StorageClassEvE7getRMapEvE3Map@Base 0
 _ZGVZN5SPIRV8SPIRVMapINS_19SPIRVExtInstSetKindENSt7__cxx1112basic_stringIcSt11char_traitsIcESaIcEEENS_20SPIRVExtSetShortNameEE6getMapEvE3Map@Base 0
 _ZGVZN5SPIRV8SPIRVMapINS_19SPIRVExtInstSetKindENSt7__cxx1112basic_stringIcSt11char_traitsIcESaIcEEENS_20SPIRVExtSetShortNameEE7getRMapEvE3Map@Base 0
 _ZGVZN5SPIRV8SPIRVMapINS_19SPIRVExtInstSetKindENSt7__cxx1112basic_stringIcSt11char_traitsIcESaIcEEEvE6getMapEvE3Map@Base 0
 _ZGVZN5SPIRV8SPIRVMapINS_19SPIRVExtInstSetKindENSt7__cxx1112basic_stringIcSt11char_traitsIcESaIcEEEvE7getRMapEvE3Map@Base 0
 _ZGVZN5SPIRV8SPIRVMapINSt7__cxx1112basic_stringIcSt11char_traitsIcESaIcEEEN3spv14FPRoundingModeEvE6getMapEvE3Map@Base 0
 _ZGVZN5SPIRV8SPIRVMapINSt7__cxx1112basic_stringIcSt11char_traitsIcESaIcEEEN3spv14FPRoundingModeEvE7getRMapEvE3Map@Base 0
 _ZGVZN5SPIRV8SPIRVMapINSt7__cxx1112basic_stringIcSt11char_traitsIcESaIcEEEN3spv14GroupOperationEvE6getMapEvE3Map@Base 0
 _ZGVZN5SPIRV8SPIRVMapINSt7__cxx1112basic_stringIcSt11char_traitsIcESaIcEEEN3spv15AccessQualifierEvE6getMapEvE3Map@Base 0
 _ZGVZN5SPIRV8SPIRVMapINSt7__cxx1112basic_stringIcSt11char_traitsIcESaIcEEEN3spv15AccessQualifierEvE7getRMapEvE3Map@Base 0
 _ZGVZN5SPIRV8SPIRVMapINSt7__cxx1112basic_stringIcSt11char_traitsIcESaIcEEEN3spv2OpEN7OCLUtil12OCL12BuiltinEE7getRMapEvE3Map@Base 0
 _ZGVZN5SPIRV8SPIRVMapINSt7__cxx1112basic_stringIcSt11char_traitsIcESaIcEEEN3spv2OpEN7OCLUtil13OCLOpaqueTypeEE6getMapEvE3Map@Base 0
 _ZGVZN5SPIRV8SPIRVMapINSt7__cxx1112basic_stringIcSt11char_traitsIcESaIcEEEN3spv2OpEN7OCLUtil13OCLOpaqueTypeEE7getRMapEvE3Map@Base 0
 _ZGVZN5SPIRV8SPIRVMapINSt7__cxx1112basic_stringIcSt11char_traitsIcESaIcEEEN3spv2OpENS_15SPIRVOpaqueTypeEE6getMapEvE3Map@Base 0
 _ZGVZN5SPIRV8SPIRVMapINSt7__cxx1112basic_stringIcSt11char_traitsIcESaIcEEEN3spv2OpENS_15SPIRVOpaqueTypeEE7getRMapEvE3Map@Base 13
 _ZGVZN5SPIRV8SPIRVMapINSt7__cxx1112basic_stringIcSt11char_traitsIcESaIcEEEN3spv2OpENS_16SPIRVInstructionEE6getMapEvE3Map@Base 0
 _ZGVZN5SPIRV8SPIRVMapINSt7__cxx1112basic_stringIcSt11char_traitsIcESaIcEEEN3spv2OpENS_16SPIRVInstructionEE7getRMapEvE3Map@Base 0
 _ZGVZN5SPIRV8SPIRVMapINSt7__cxx1112basic_stringIcSt11char_traitsIcESaIcEEEN3spv2OpENS_22SPIRVArbFloatIntelInstEE7getRMapEvE3Map@Base 0
 _ZGVZN5SPIRV8SPIRVMapINSt7__cxx1112basic_stringIcSt11char_traitsIcESaIcEEEN3spv2OpENS_22SPIRVTypeSubgroupINTELEE6getMapEvE3Map@Base 0
 _ZGVZN5SPIRV8SPIRVMapINSt7__cxx1112basic_stringIcSt11char_traitsIcESaIcEEEN3spv2OpENS_22SPIRVTypeSubgroupINTELEE7getRMapEvE3Map@Base 0
 _ZGVZN5SPIRV8SPIRVMapINSt7__cxx1112basic_stringIcSt11char_traitsIcESaIcEEEN3spv2OpENS_24SPIRVFixedPointIntelInstEE7getRMapEvE3Map@Base 12
 _ZGVZN5SPIRV8SPIRVMapINSt7__cxx1112basic_stringIcSt11char_traitsIcESaIcEEEN3spv2OpENS_26SPIRVSubgroupsAVCIntelInstEE6getMapEvE3Map@Base 0
 _ZGVZN5SPIRV8SPIRVMapINSt7__cxx1112basic_stringIcSt11char_traitsIcESaIcEEEN3spv2OpENS_26SPIRVSubgroupsAVCIntelInstEE7getRMapEvE3Map@Base 0
 _ZGVZN5SPIRV8SPIRVMapINSt7__cxx1112basic_stringIcSt11char_traitsIcESaIcEEEN3spv7BuiltInEvE6getMapEvE3Map@Base 0
 _ZGVZN5SPIRV8SPIRVMapINSt7__cxx1112basic_stringIcSt11char_traitsIcESaIcEEEN3spv7BuiltInEvE7getRMapEvE3Map@Base 0
 _ZGVZN5SPIRV8SPIRVMapINSt7__cxx1112basic_stringIcSt11char_traitsIcESaIcEEENS_24SPIRVTypeImageDescriptorEvE6getMapEvE3Map@Base 0
 _ZGVZN5SPIRV8SPIRVMapINSt7__cxx1112basic_stringIcSt11char_traitsIcESaIcEEENS_24SPIRVTypeImageDescriptorEvE7getRMapEvE3Map@Base 0
 _ZGVZN5SPIRV8SPIRVMapIjN3spv2OpEvE6getMapEvE3Map@Base 0
 _ZGVZN5SPIRV8SPIRVMapIjN3spv2OpEvE7getRMapEvE3Map@Base 0
 _ZGVZNKSt8__detail11_AnyMatcherINSt7__cxx1112regex_traitsIcEELb0ELb0ELb0EEclEcE5__nul@Base 0
 _ZGVZNKSt8__detail11_AnyMatcherINSt7__cxx1112regex_traitsIcEELb0ELb0ELb1EEclEcE5__nul@Base 0
 _ZGVZNKSt8__detail11_AnyMatcherINSt7__cxx1112regex_traitsIcEELb0ELb1ELb0EEclEcE5__nul@Base 0
 _ZGVZNKSt8__detail11_AnyMatcherINSt7__cxx1112regex_traitsIcEELb0ELb1ELb1EEclEcE5__nul@Base 0
 _ZN17VectorComputeUtil15getFPDenormModeEjNS_11VCFloatTypeE@Base 0
 _ZN17VectorComputeUtil17getFPRoundingModeEj@Base 0
 _ZN17VectorComputeUtil17getVCFloatControlEN3spv12FPDenormModeENS_11VCFloatTypeE@Base 0
 _ZN17VectorComputeUtil17getVCFloatControlEN3spv14FPRoundingModeE@Base 0
 _ZN17VectorComputeUtil17getVCFloatControlEN3spv15FPOperationModeE@Base 0
 _ZN17VectorComputeUtil18getFPOperationModeEj@Base 0
 _ZN17VectorComputeUtil22getVCBufferSurfaceNameB5cxx11EN3spv15AccessQualifierE@Base 0
 _ZN17VectorComputeUtil22getVCBufferSurfaceNameB5cxx11Ev@Base 0
 _ZN17VectorComputeUtil26getVCGlobalVarAddressSpaceEN3spv12StorageClassE@Base 0
 _ZN17VectorComputeUtil26getVCGlobalVarStorageClassEN5SPIRV16SPIRAddressSpaceE@Base 0
 _ZN18SPIRVTypeScavenger10typeModuleERN4llvm6ModuleE@Base 15
 _ZN18SPIRVTypeScavenger15correctUseTypesERN4llvm11InstructionE@Base 15
 _ZN18SPIRVTypeScavenger18deduceFunctionTypeERN4llvm8FunctionE@Base 15
 _ZN18SPIRVTypeScavenger20deduceIntrinsicTypesERN4llvm8FunctionEj@Base 15
 _ZN18SPIRVTypeScavenger21getPointerElementTypeEPN4llvm5ValueE@Base 15
 _ZN18SPIRVTypeScavenger25computePointerElementTypeEPN4llvm5ValueE@Base 15
 _ZN18SPIRVTypeScavenger29getArgumentPointerElementTypeEPN4llvm8FunctionEj@Base 15
 _ZN18SPIRVTypeScavenger7fixTypeERNS_12DeferredTypeEPN4llvm4TypeE@Base 15
 _ZN18SPIRVTypeScavenger9mergeTypeEPNS_12DeferredTypeES1_@Base 15
 _ZN4SPIR10AtomicType6EnumTyE@Base 0
 _ZN4SPIR10AtomicTypeC1ENS_8RefCountINS_9ParamTypeEEE@Base 0
 _ZN4SPIR10AtomicTypeC2ENS_8RefCountINS_9ParamTypeEEE@Base 0
 _ZN4SPIR10VectorType6EnumTyE@Base 0
 _ZN4SPIR10VectorTypeC1ENS_8RefCountINS_9ParamTypeEEEi@Base 0
 _ZN4SPIR10VectorTypeC2ENS_8RefCountINS_9ParamTypeEEEi@Base 0
 _ZN4SPIR11NameMangler6mangleERKNS_18FunctionDescriptorERNSt7__cxx1112basic_stringIcSt11char_traitsIcESaIcEEE@Base 0
 _ZN4SPIR11NameManglerC1ENS_11SPIRversionE@Base 0
 _ZN4SPIR11NameManglerC2ENS_11SPIRversionE@Base 0
 _ZN4SPIR11PointerType12setQualifierENS_17TypeAttributeEnumEb@Base 0
 _ZN4SPIR11PointerType15setAddressSpaceENS_17TypeAttributeEnumE@Base 0
 _ZN4SPIR11PointerType6EnumTyE@Base 0
 _ZN4SPIR11PointerTypeC1ENS_8RefCountINS_9ParamTypeEEE@Base 0
 _ZN4SPIR11PointerTypeC2ENS_8RefCountINS_9ParamTypeEEE@Base 0
 _ZN4SPIR12MangledTypesE@Base 0
 _ZN4SPIR13PrimitiveType6EnumTyE@Base 0
 _ZN4SPIR13PrimitiveTypeC1ENS_17TypePrimitiveEnumE@Base 0
 _ZN4SPIR13PrimitiveTypeC2ENS_17TypePrimitiveEnumE@Base 0
 _ZN4SPIR15UserDefinedType6EnumTyE@Base 0
 _ZN4SPIR15UserDefinedTypeC1ERKNSt7__cxx1112basic_stringIcSt11char_traitsIcESaIcEEE@Base 0
 _ZN4SPIR15UserDefinedTypeC2ERKNSt7__cxx1112basic_stringIcSt11char_traitsIcESaIcEEE@Base 0
 _ZN4SPIR16MangledAttributeE@Base 0
 _ZN4SPIR17ReadableAttributeE@Base 0
 _ZN4SPIR18FunctionDescriptor10nullStringB5cxx11Ev@Base 0
 _ZN4SPIR18FunctionDescriptor4nullEv@Base 0
 _ZN4SPIR18getPointeeManglingB5cxx11ENS_8RefCountINS_9ParamTypeEEE@Base 14
 _ZN4SPIR19getMangledAttributeENS_17TypeAttributeEnumE@Base 0
 _ZN4SPIR19getSupportedVersionENS_17TypePrimitiveEnumE@Base 0
 _ZN4SPIR20getReadableAttributeENS_17TypeAttributeEnumE@Base 0
 _ZN4SPIR22getSPIRVersionAsStringENS_11SPIRversionE@Base 0
 _ZN4SPIR22mangledPrimitiveStringENS_17TypePrimitiveEnumE@Base 0
 _ZN4SPIR23readablePrimitiveStringENS_17TypePrimitiveEnumE@Base 0
 _ZN4SPIR28getPointerAttributesManglingB5cxx11EPKNS_11PointerTypeE@Base 14
 _ZN4SPIR30mangledPrimitiveStringfromNameENSt7__cxx1112basic_stringIcSt11char_traitsIcESaIcEEE@Base 0
 _ZN4SPIR9BlockType6EnumTyE@Base 0
 _ZN4SPIR9BlockTypeC1Ev@Base 0
 _ZN4SPIR9BlockTypeC2Ev@Base 0
 _ZN4llvm10writeSpirvEPNS_6ModuleERKN5SPIRV14TranslatorOptsERSoRNSt7__cxx1112basic_stringIcSt11char_traitsIcESaIcEEE@Base 0
 _ZN4llvm10writeSpirvEPNS_6ModuleERSoRNSt7__cxx1112basic_stringIcSt11char_traitsIcESaIcEEE@Base 0
 _ZN4llvm15SPIRVWriterPass3runERNS_6ModuleE@Base 0
 (optional=templinst)_ZN4llvm15callDefaultCtorIN5SPIRV16OCLToSPIRVLegacyEEEPNS_4PassEv@Base 13
 (optional=templinst)_ZN4llvm15callDefaultCtorIN5SPIRV17LLVMToSPIRVLegacyEEEPNS_4PassEv@Base 13
 (optional=templinst)_ZN4llvm15callDefaultCtorIN5SPIRV18SPIRVToOCL12LegacyEEEPNS_4PassEv@Base 13
 (optional=templinst)_ZN4llvm15callDefaultCtorIN5SPIRV18SPIRVToOCL20LegacyEEEPNS_4PassEv@Base 13
 (optional=templinst)_ZN4llvm15callDefaultCtorIN5SPIRV20OCLTypeToSPIRVLegacyEEEPNS_4PassEv@Base 13
 (optional=templinst)_ZN4llvm15callDefaultCtorIN5SPIRV20SPIRVLowerBoolLegacyEEEPNS_4PassEv@Base 13
 (optional=templinst)_ZN4llvm15callDefaultCtorIN5SPIRV23SPIRVLowerMemmoveLegacyEEEPNS_4PassEv@Base 13
 (optional=templinst)_ZN4llvm15callDefaultCtorIN5SPIRV24PreprocessMetadataLegacyEEEPNS_4PassEv@Base 13
 (optional=templinst)_ZN4llvm15callDefaultCtorIN5SPIRV25SPIRVLowerConstExprLegacyEEEPNS_4PassEv@Base 13
 (optional=templinst)_ZN4llvm15callDefaultCtorIN5SPIRV25SPIRVLowerOCLBlocksLegacyEEEPNS_4PassEv@Base 15
 (optional=templinst)_ZN4llvm15callDefaultCtorIN5SPIRV25SPIRVRegularizeLLVMLegacyEEEPNS_4PassEv@Base 13
#MISSING: 15# (optional=templinst)_ZN4llvm15callDefaultCtorIN5SPIRV26SPIRVLowerSPIRBlocksLegacyEEEPNS_4PassEv@Base 13
 (optional=templinst)_ZN4llvm15callDefaultCtorIN5SPIRV30SPIRVLowerSaddIntrinsicsLegacyEEEPNS_4PassEv@Base 15
#MISSING: 15# (optional=templinst)_ZN4llvm15callDefaultCtorIN5SPIRV32SPIRVLowerSaddWithOverflowLegacyEEEPNS_4PassEv@Base 13
 (optional=templinst)_ZN4llvm15callDefaultCtorIN5SPIRV40SPIRVLowerBitCastToNonStandardTypeLegacyEEEPNS_4PassEv@Base 13
 _ZN4llvm16getSpecConstInfoERSiRSt6vectorISt4pairIjjESaIS3_EE@Base 0
 _ZN4llvm18convertSpirvToLLVMERNS_11LLVMContextERN5SPIRV11SPIRVModuleERKNS2_14TranslatorOptsERNSt7__cxx1112basic_stringIcSt11char_traitsIcESaIcEEE@Base 0
 _ZN4llvm18convertSpirvToLLVMERNS_11LLVMContextERN5SPIRV11SPIRVModuleERNSt7__cxx1112basic_stringIcSt11char_traitsIcESaIcEEE@Base 0
 (optional=templinst)_ZN4llvm19dyn_cast_if_presentINS_25OverflowingBinaryOperatorENS_5ValueEEEDaPT0_@Base 15
 _ZN4llvm19mangleOpenClBuiltinERKNSt7__cxx1112basic_stringIcSt11char_traitsIcESaIcEEENS_8ArrayRefIPNS_4TypeEEENS8_INS_14PointerIntPairISA_Lj1EbNS_21PointerLikeTypeTraitsISA_EENS_18PointerIntPairInfoISA_Lj1ESE_EEEEEERS5_@Base 15
#MISSING: 15# _ZN4llvm19mangleOpenClBuiltinERKNSt7__cxx1112basic_stringIcSt11char_traitsIcESaIcEEENS_8ArrayRefIPNS_4TypeEEERS5_@Base 0
 _ZN4llvm21createSPIRVWriterPassERSo@Base 0
 _ZN4llvm21createSPIRVWriterPassERSoRKN5SPIRV14TranslatorOptsE@Base 0
 _ZN4llvm22createOCLToSPIRVLegacyEv@Base 13
 _ZN4llvm22regularizeLlvmForSpirvEPNS_6ModuleERNSt7__cxx1112basic_stringIcSt11char_traitsIcESaIcEEE@Base 0
 _ZN4llvm22regularizeLlvmForSpirvEPNS_6ModuleERNSt7__cxx1112basic_stringIcSt11char_traitsIcESaIcEEERKN5SPIRV14TranslatorOptsE@Base 0
 (optional=templinst)_ZN4llvm23SmallVectorTemplateBaseINS_14WeakTrackingVHELb0EE4growEm@Base 15
 (optional=templinst|subst)_ZN4llvm23SmallVectorTemplateBaseINSt7__cxx1112basic_stringIcSt11char_traitsIcESaIcEEELb0EE4growE{size_t}@Base 14
 _ZN4llvm23createLLVMToSPIRVLegacyEPN5SPIRV11SPIRVModuleE@Base 13
 _ZN4llvm24createSPIRVToOCL12LegacyEv@Base 13
 _ZN4llvm24createSPIRVToOCL20LegacyEv@Base 13
 _ZN4llvm26createOCLTypeToSPIRVLegacyEv@Base 13
 _ZN4llvm26createSPIRVBIsLoweringPassERNS_6ModuleEN5SPIRV17BIsRepresentationE@Base 0
 _ZN4llvm26createSPIRVLowerBoolLegacyEv@Base 13
 _ZN4llvm29createSPIRVLowerMemmoveLegacyEv@Base 13
 _ZN4llvm30createPreprocessMetadataLegacyEv@Base 13
 _ZN4llvm30initializeOCLToSPIRVLegacyPassERNS_12PassRegistryE@Base 13
 _ZN4llvm31createSPIRVLowerConstExprLegacyEv@Base 13
 _ZN4llvm31createSPIRVLowerOCLBlocksLegacyEv@Base 13
 _ZN4llvm31createSPIRVRegularizeLLVMLegacyEv@Base 13
 _ZN4llvm31initializeLLVMToSPIRVLegacyPassERNS_12PassRegistryE@Base 13
#MISSING: 15# _ZN4llvm32createSPIRVLowerSPIRBlocksLegacyEv@Base 13
 _ZN4llvm32initializeSPIRVToOCL12LegacyPassERNS_12PassRegistryE@Base 13
 _ZN4llvm32initializeSPIRVToOCL20LegacyPassERNS_12PassRegistryE@Base 13
 _ZN4llvm34initializeOCLTypeToSPIRVLegacyPassERNS_12PassRegistryE@Base 13
 _ZN4llvm34initializeSPIRVLowerBoolLegacyPassERNS_12PassRegistryE@Base 13
 _ZN4llvm36createSPIRVLowerSaddIntrinsicsLegacyEv@Base 15
 _ZN4llvm37initializeSPIRVLowerMemmoveLegacyPassERNS_12PassRegistryE@Base 13
#MISSING: 15# _ZN4llvm38createSPIRVLowerSaddWithOverflowLegacyEv@Base 13
 _ZN4llvm38initializePreprocessMetadataLegacyPassERNS_12PassRegistryE@Base 13
 _ZN4llvm39initializeSPIRVLowerConstExprLegacyPassERNS_12PassRegistryE@Base 13
 _ZN4llvm39initializeSPIRVLowerOCLBlocksLegacyPassERNS_12PassRegistryE@Base 13
 _ZN4llvm39initializeSPIRVRegularizeLLVMLegacyPassERNS_12PassRegistryE@Base 13
#MISSING: 15# _ZN4llvm40initializeSPIRVLowerSPIRBlocksLegacyPassERNS_12PassRegistryE@Base 13
 _ZN4llvm44initializeSPIRVLowerSaddIntrinsicsLegacyPassERNS_12PassRegistryE@Base 15
 _ZN4llvm46createSPIRVLowerBitCastToNonStandardTypeLegacyERKN5SPIRV14TranslatorOptsE@Base 14
#MISSING: 15# _ZN4llvm46initializeSPIRVLowerSaddWithOverflowLegacyPassERNS_12PassRegistryE@Base 13
 _ZN4llvm54initializeSPIRVLowerBitCastToNonStandardTypeLegacyPassERNS_12PassRegistryE@Base 13
 (optional=templinst)_ZN4llvm8erase_ifINS_11SmallVectorISt4pairIjPNS_6MDNodeEELj2EEEZNS_13IRBuilderBase25AddOrRemoveMetadataToCopyEjS4_EUlRKS5_E_EEvRT_T0_@Base 12
 _ZN4llvm9readSpirvERNS_11LLVMContextERKN5SPIRV14TranslatorOptsERSiRPNS_6ModuleERNSt7__cxx1112basic_stringIcSt11char_traitsIcESaIcEEE@Base 0
 _ZN4llvm9readSpirvERNS_11LLVMContextERSiRPNS_6ModuleERNSt7__cxx1112basic_stringIcSt11char_traitsIcESaIcEEE@Base 0
 _ZN5SPIRV10EraseOCLMDE@Base 0
 _ZN5SPIRV10SPIRVEntry10getDecoderERSi@Base 0
 _ZN5SPIRV10SPIRVEntry11addDecorateEN3spv10DecorationE@Base 0
 _ZN5SPIRV10SPIRVEntry11addDecorateEN3spv10DecorationEj@Base 0
 _ZN5SPIRV10SPIRVEntry11addDecorateEPNS_13SPIRVDecorateE@Base 0
 _ZN5SPIRV10SPIRVEntry11addDecorateEPNS_15SPIRVDecorateIdE@Base 13
 _ZN5SPIRV10SPIRVEntry12createUniqueEN3spv2OpE@Base 0
 _ZN5SPIRV10SPIRVEntry12createUniqueENS_19SPIRVExtInstSetKindEj@Base 0
 _ZN5SPIRV10SPIRVEntry12setWordCountEj@Base 0
 _ZN5SPIRV10SPIRVEntry13eraseDecorateEN3spv10DecorationE@Base 0
 _ZN5SPIRV10SPIRVEntry13takeDecoratesEPS0_@Base 0
 _ZN5SPIRV10SPIRVEntry14setLinkageTypeEN3spv11LinkageTypeE@Base 0
 _ZN5SPIRV10SPIRVEntry15takeAnnotationsEPNS_12SPIRVForwardE@Base 0
 _ZN5SPIRV10SPIRVEntry15takeDecorateIdsEPS0_@Base 13
 _ZN5SPIRV10SPIRVEntry17addMemberDecorateEPNS_19SPIRVMemberDecorateE@Base 0
 _ZN5SPIRV10SPIRVEntry17addMemberDecorateEjN3spv10DecorationE@Base 0
 _ZN5SPIRV10SPIRVEntry17addMemberDecorateEjN3spv10DecorationEj@Base 0
 _ZN5SPIRV10SPIRVEntry19eraseMemberDecorateEjN3spv10DecorationE@Base 0
 _ZN5SPIRV10SPIRVEntry19takeMemberDecoratesEPS0_@Base 0
 _ZN5SPIRV10SPIRVEntry6createEN3spv2OpE@Base 0
 _ZN5SPIRV10SPIRVEntry6decodeERSi@Base 0
 _ZN5SPIRV10SPIRVEntry7setLineERKSt10shared_ptrIKNS_9SPIRVLineEE@Base 0
 _ZN5SPIRV10SPIRVEntry7setNameERKNSt7__cxx1112basic_stringIcSt11char_traitsIcESaIcEEE@Base 0
 _ZN5SPIRV10SPIRVEntry9setModuleEPNS_11SPIRVModuleE@Base 0
 _ZN5SPIRV10SPIRVValue11setVolatileEb@Base 0
 _ZN5SPIRV10SPIRVValue12setAlignmentEj@Base 0
 _ZN5SPIRV10SPIRVValue17setFPFastMathModeEj@Base 0
 (optional=templinst)_ZN5SPIRV10SPIRVValue26setNoIntegerDecorationWrapILN3spv10DecorationE4469EEEvb@Base 14
 (optional=templinst)_ZN5SPIRV10SPIRVValue26setNoIntegerDecorationWrapILN3spv10DecorationE4470EEEvb@Base 14
 _ZN5SPIRV10getFloat32EPN4llvm6ModuleEf@Base 0
 _ZN5SPIRV10getPostfixB5cxx11EN3spv10DecorationEj@Base 0
 _ZN5SPIRV10makeVectorEPN4llvm11InstructionERSt6vectorIPNS0_5ValueESaIS5_EESt4pairIN9__gnu_cxx17__normal_iteratorIPS5_S7_EESD_E@Base 0
 (optional=templinst)_ZN5SPIRV10mapBitMaskINS_8SPIRVMapIN7OCLUtil15OCLMemFenceKindEN3spv19MemorySemanticsMaskEvEEEEjj@Base 0
#MISSING: 15# _ZN5SPIRV10removeCastEPN4llvm5ValueE@Base 0
 _ZN5SPIRV11SPIRVModule17createSPIRVModuleERKNS_14TranslatorOptsE@Base 0
 _ZN5SPIRV11SPIRVModule17createSPIRVModuleEv@Base 0
 _ZN5SPIRV11SPIRVModuleC1Ev@Base 0
 _ZN5SPIRV11SPIRVModuleC2Ev@Base 0
 _ZN5SPIRV11SPIRVModuleD0Ev@Base 0
 _ZN5SPIRV11SPIRVModuleD1Ev@Base 0
 _ZN5SPIRV11SPIRVModuleD2Ev@Base 0
 _ZN5SPIRV11SPIRVSource6decodeERSi@Base 0
 _ZN5SPIRV11SPIRVString6decodeERSi@Base 0
 _ZN5SPIRV11SPIRVToLLVM10transAlignEPNS_10SPIRVValueEPN4llvm5ValueE@Base 0
 _ZN5SPIRV11SPIRVToLLVM10transValueEPNS_10SPIRVValueEPN4llvm8FunctionEPNS3_10BasicBlockEb@Base 0
 _ZN5SPIRV11SPIRVToLLVM10transValueERKSt6vectorIPNS_10SPIRVValueESaIS3_EEPN4llvm8FunctionEPNS8_10BasicBlockE@Base 0
 _ZN5SPIRV11SPIRVToLLVM11getErrorLogEv@Base 0
 _ZN5SPIRV11SPIRVToLLVM11mapFunctionEPNS_13SPIRVFunctionEPN4llvm8FunctionE@Base 0
 _ZN5SPIRV11SPIRVToLLVM11transAllAnyEPNS_16SPIRVInstructionEPN4llvm10BasicBlockE@Base 14
 _ZN5SPIRV11SPIRVToLLVM11transFPTypeEPNS_9SPIRVTypeE@Base 0
 _ZN5SPIRV11SPIRVToLLVM12transCmpInstEPNS_10SPIRVValueEPN4llvm10BasicBlockEPNS3_8FunctionE@Base 0
 _ZN5SPIRV11SPIRVToLLVM13transAsmINTELEPNS_13SPIRVAsmINTELE@Base 0
 _ZN5SPIRV11SPIRVToLLVM13transFunctionEPNS_13SPIRVFunctionE@Base 0
 _ZN5SPIRV11SPIRVToLLVM13transMetadataEv@Base 0
 _ZN5SPIRV11SPIRVToLLVM14setCallingConvEPN4llvm8CallInstE@Base 0
 _ZN5SPIRV11SPIRVToLLVM15transDecorationEPNS_10SPIRVValueEPN4llvm5ValueE@Base 0
 _ZN5SPIRV11SPIRVToLLVM15transRelationalEPNS_16SPIRVInstructionEPN4llvm10BasicBlockE@Base 14
 _ZN5SPIRV11SPIRVToLLVM15transTypeVectorERKSt6vectorIPNS_9SPIRVTypeESaIS3_EE@Base 0
 _ZN5SPIRV11SPIRVToLLVM15transVCTypeNameB5cxx11EPNS_27SPIRVTypeBufferSurfaceINTELE@Base 0
 _ZN5SPIRV11SPIRVToLLVM16BuiltInConstFuncE@Base 12
 _ZN5SPIRV11SPIRVToLLVM16transBlockInvokeEPNS_10SPIRVValueEPN4llvm10BasicBlockE@Base 0
 _ZN5SPIRV11SPIRVToLLVM16transConvertInstEPNS_10SPIRVValueEPN4llvm8FunctionEPNS3_10BasicBlockE@Base 0
 _ZN5SPIRV11SPIRVToLLVM16transGeneratorMDEv@Base 0
 _ZN5SPIRV11SPIRVToLLVM16transLinkageTypeEPKNS_10SPIRVValueE@Base 0
 _ZN5SPIRV11SPIRVToLLVM16transOCLMetadataEPNS_13SPIRVFunctionE@Base 0
 _ZN5SPIRV11SPIRVToLLVM17createCXXStructorEPKcRN4llvm15SmallVectorImplIPNS3_8FunctionEEE@Base 12
 _ZN5SPIRV11SPIRVToLLVM17transArbFloatInstEPNS_16SPIRVInstructionEPN4llvm10BasicBlockEb@Base 0
 _ZN5SPIRV11SPIRVToLLVM17transAsmCallINTELEPNS_17SPIRVAsmCallINTELEPN4llvm8FunctionEPNS3_10BasicBlockE@Base 0
 _ZN5SPIRV11SPIRVToLLVM17transPipeTypeNameB5cxx11EPNS_13SPIRVTypePipeE@Base 14
 _ZN5SPIRV11SPIRVToLLVM17transUserSemanticEPNS_13SPIRVFunctionE@Base 12
 _ZN5SPIRV11SPIRVToLLVM18getTranslatedValueEPNS_10SPIRVValueE@Base 0
 _ZN5SPIRV11SPIRVToLLVM18transFunctionAttrsEPNS_13SPIRVFunctionEPN4llvm8FunctionE@Base 15
 _ZN5SPIRV11SPIRVToLLVM18transSGSizeQueryBIEPNS_16SPIRVInstructionEPN4llvm10BasicBlockE@Base 0
 _ZN5SPIRV11SPIRVToLLVM18transWGSizeQueryBIEPNS_16SPIRVInstructionEPN4llvm10BasicBlockE@Base 0
 _ZN5SPIRV11SPIRVToLLVM19addMemAliasMetadataEPN4llvm11InstructionEjj@Base 13
 (optional=templinst)_ZN5SPIRV11SPIRVToLLVM19setLLVMLoopMetadataINS_14SPIRVLoopMergeEEEvPKT_PKN4llvm4LoopE@Base 0
 (optional=templinst)_ZN5SPIRV11SPIRVToLLVM19setLLVMLoopMetadataINS_21SPIRVLoopControlINTELEEEvPKT_PKN4llvm4LoopE@Base 0
 _ZN5SPIRV11SPIRVToLLVM19transFixedPointInstEPNS_16SPIRVInstructionEPN4llvm10BasicBlockE@Base 12
 _ZN5SPIRV11SPIRVToLLVM19transSourceLanguageEv@Base 0
 _ZN5SPIRV11SPIRVToLLVM20transAddressingModelEv@Base 0
 _ZN5SPIRV11SPIRVToLLVM20transBuiltinFromInstERKNSt7__cxx1112basic_stringIcSt11char_traitsIcESaIcEEEPNS_16SPIRVInstructionEPN4llvm10BasicBlockE@Base 0
 _ZN5SPIRV11SPIRVToLLVM20transGlobalCtorDtorsEPNS_13SPIRVVariableE@Base 12
 _ZN5SPIRV11SPIRVToLLVM20transSourceExtensionEv@Base 0
 _ZN5SPIRV11SPIRVToLLVM21transLLVMLoopMetadataEPKN4llvm8FunctionE@Base 0
 _ZN5SPIRV11SPIRVToLLVM21transOCLImageTypeNameB5cxx11EPNS_14SPIRVTypeImageE@Base 0
 _ZN5SPIRV11SPIRVToLLVM21transVMEImageTypeNameB5cxx11EPNS_22SPIRVTypeVmeImageINTELE@Base 13
 _ZN5SPIRV11SPIRVToLLVM22getPointerElementTypesEN4llvm8ArrayRefIPNS_9SPIRVTypeEEE@Base 15
 _ZN5SPIRV11SPIRVToLLVM22transGlobalAnnotationsEv@Base 0
 _ZN5SPIRV11SPIRVToLLVM22transTypeToOCLTypeNameB5cxx11EPNS_9SPIRVTypeEb@Base 0
 _ZN5SPIRV11SPIRVToLLVM23oclTransConstantSamplerEPNS_20SPIRVConstantSamplerEPN4llvm10BasicBlockE@Base 0
 _ZN5SPIRV11SPIRVToLLVM23transFPContractMetadataEv@Base 0
 _ZN5SPIRV11SPIRVToLLVM23transOCLBuiltinPostprocEPNS_16SPIRVInstructionEPN4llvm8CallInstEPNS3_10BasicBlockERKNSt7__cxx1112basic_stringIcSt11char_traitsIcESaIcEEE@Base 0
 _ZN5SPIRV11SPIRVToLLVM24transNonTemporalMetadataEPN4llvm11InstructionE@Base 0
 _ZN5SPIRV11SPIRVToLLVM25getLifetimeStartIntrinsicEPN4llvm11InstructionE@Base 0
 _ZN5SPIRV11SPIRVToLLVM25transFPGAFunctionMetadataEPNS_13SPIRVFunctionEPN4llvm8FunctionE@Base 12
 _ZN5SPIRV11SPIRVToLLVM25transIntelFPGADecorationsEPNS_10SPIRVValueEPN4llvm5ValueE@Base 0
 _ZN5SPIRV11SPIRVToLLVM25transOCLKernelArgTypeNameEPNS_22SPIRVFunctionParameterE@Base 0
 _ZN5SPIRV11SPIRVToLLVM25transSPIRVBuiltinFromInstEPNS_16SPIRVInstructionEPN4llvm10BasicBlockE@Base 0
 _ZN5SPIRV11SPIRVToLLVM26transOCLBuiltinFromExtInstEPNS_12SPIRVExtInstEPN4llvm10BasicBlockE@Base 0
 _ZN5SPIRV11SPIRVToLLVM26transVectorComputeMetadataEPNS_13SPIRVFunctionE@Base 0
 _ZN5SPIRV11SPIRVToLLVM27oclTransConstantPipeStorageEPNS_24SPIRVConstantPipeStorageE@Base 0
 _ZN5SPIRV11SPIRVToLLVM27transOCLPipeStorageTypeNameB5cxx11EPNS_20SPIRVTypePipeStorageE@Base 0
 _ZN5SPIRV11SPIRVToLLVM27transValueWithoutDecorationEPNS_10SPIRVValueEPN4llvm8FunctionEPNS3_10BasicBlockEb@Base 0
 _ZN5SPIRV11SPIRVToLLVM28transOCLSampledImageTypeNameB5cxx11EPNS_21SPIRVTypeSampledImageE@Base 0
 _ZN5SPIRV11SPIRVToLLVM28transShiftLogicalBitwiseInstEPNS_10SPIRVValueEPN4llvm10BasicBlockEPNS3_8FunctionE@Base 0
 _ZN5SPIRV11SPIRVToLLVM29expandOCLBuiltinWithScalarArgEPN4llvm8CallInstERKNSt7__cxx1112basic_stringIcSt11char_traitsIcESaIcEEE@Base 0
 _ZN5SPIRV11SPIRVToLLVM29transVarDecorationsToMetadataEPNS_10SPIRVValueEPN4llvm5ValueE@Base 14
 _ZN5SPIRV11SPIRVToLLVM30transOCLBuiltinFromInstPreprocEPNS_16SPIRVInstructionERPN4llvm4TypeERSt6vectorIPNS_10SPIRVValueESaIS9_EE@Base 0
 _ZN5SPIRV11SPIRVToLLVM31transOCLPipeTypeAccessQualifierB5cxx11EPNS_13SPIRVTypePipeE@Base 0
 _ZN5SPIRV11SPIRVToLLVM32transMemAliasingINTELDecorationsEPNS_10SPIRVValueEPN4llvm5ValueE@Base 13
 _ZN5SPIRV11SPIRVToLLVM32transOCLImageTypeAccessQualifierB5cxx11EPNS_14SPIRVTypeImageE@Base 0
 _ZN5SPIRV11SPIRVToLLVM34transFunctionDecorationsToMetadataEPNS_13SPIRVFunctionEPN4llvm8FunctionE@Base 14
 _ZN5SPIRV11SPIRVToLLVM42transFunctionPointerCallArgumentAttributesEPNS_10SPIRVValueEPN4llvm8CallInstEPNS_17SPIRVTypeFunctionE@Base 15
 _ZN5SPIRV11SPIRVToLLVM7mapTypeEPNS_9SPIRVTypeEPN4llvm4TypeE@Base 0
 _ZN5SPIRV11SPIRVToLLVM7setNameEPN4llvm5ValueEPNS_10SPIRVValueE@Base 0
 _ZN5SPIRV11SPIRVToLLVM8mapValueEPNS_10SPIRVValueEPN4llvm5ValueE@Base 0
 _ZN5SPIRV11SPIRVToLLVM9transTypeEPNS_9SPIRVTypeEb@Base 0
 _ZN5SPIRV11SPIRVToLLVM9translateEv@Base 0
 _ZN5SPIRV11SPIRVToLLVMC1EPN4llvm6ModuleEPNS_11SPIRVModuleE@Base 0
 _ZN5SPIRV11SPIRVToLLVMC2EPN4llvm6ModuleEPNS_11SPIRVModuleE@Base 0
 _ZN5SPIRV11addCallInstEPN4llvm6ModuleENS0_9StringRefEPNS0_4TypeENS0_8ArrayRefIPNS0_5ValueEEEPNS0_13AttributeListEPNS0_11InstructionEPNS_21BuiltinFuncMangleInfoES3_b@Base 0
 _ZN5SPIRV11getArgAsIntEPN4llvm8CallInstEj@Base 0
 _ZN5SPIRV11hasArrayArgEPN4llvm8FunctionE@Base 0
#MISSING: 15# _ZN5SPIRV11isSPIRVTypeEPN4llvm4TypeENS0_9StringRefEPS3_@Base 0
 _ZN5SPIRV11isSpirvTextERKNSt7__cxx1112basic_stringIcSt11char_traitsIcESaIcEEE@Base 0
 _ZN5SPIRV12SPIRVDecoder17ignoreInstructionEv@Base 0
 _ZN5SPIRV12SPIRVDecoder21getWordCountAndOpCodeEv@Base 0
 _ZN5SPIRV12SPIRVDecoder24getContinuedInstructionsEN3spv2OpE@Base 12
 (subst)_ZN5SPIRV12SPIRVDecoder6ignoreE{size_t}@Base 0
 _ZN5SPIRV12SPIRVDecoder8getEntryEv@Base 0
 _ZN5SPIRV12SPIRVDecoder8setScopeEPNS_10SPIRVEntryE@Base 0
 _ZN5SPIRV12SPIRVDecoderC1ERSiRNS_13SPIRVFunctionE@Base 0
 _ZN5SPIRV12SPIRVDecoderC1ERSiRNS_15SPIRVBasicBlockE@Base 0
 _ZN5SPIRV12SPIRVDecoderC2ERSiRNS_13SPIRVFunctionE@Base 0
 _ZN5SPIRV12SPIRVDecoderC2ERSiRNS_15SPIRVBasicBlockE@Base 0
 _ZN5SPIRV12addBlockBindEPN4llvm6ModuleEPNS0_8FunctionEPNS0_5ValueES6_S6_PNS0_11InstructionENS0_9StringRefE@Base 0
 _ZN5SPIRV12convertSpirvERNSt7__cxx1112basic_stringIcSt11char_traitsIcESaIcEEES6_S6_b@Base 0
 _ZN5SPIRV12convertSpirvERSiRSoRNSt7__cxx1112basic_stringIcSt11char_traitsIcESaIcEEEbb@Base 0
 _ZN5SPIRV12eraseIfNoUseEPN4llvm5ValueE@Base 0
 _ZN5SPIRV12eraseIfNoUseEPN4llvm8FunctionE@Base 0
 (subst)_ZN5SPIRV12expandVectorEPN4llvm11InstructionERSt6vectorIPNS0_5ValueESaIS5_EE{size_t}@Base 0
 _ZN5SPIRV12getArgumentsEPN4llvm8CallInstEjj@Base 0
 _ZN5SPIRV12getInt8PtrTyEPN4llvm11PointerTypeE@Base 0
 _ZN5SPIRV12getSizetTypeEPN4llvm6ModuleE@Base 0
 _ZN5SPIRV12isVoidFuncTyEPN4llvm12FunctionTypeE@Base 0
 (optional=templinst)_ZN5SPIRV12map2MDStringIN3spv5ScopeEEEPN4llvm15MetadataAsValueERNS3_11LLVMContextEPNS_10SPIRVValueE@Base 14
 (optional=templinst)_ZN5SPIRV12map2MDStringIN3spv8internal25InternalJointMatrixLayoutEEEPN4llvm15MetadataAsValueERNS4_11LLVMContextEPNS_10SPIRVValueE@Base 14
 _ZN5SPIRV12oclIsBuiltinEN4llvm9StringRefERS1_b@Base 0
 _ZN5SPIRV12removeFnAttrEPN4llvm8CallInstENS0_9Attribute8AttrKindE@Base 0
 _ZN5SPIRV13SPIRVDbgErrorE@Base 0
 _ZN5SPIRV13SPIRVDecorate12setWordCountEj@Base 0
 _ZN5SPIRV13SPIRVDecorate6decodeERSi@Base 0
 _ZN5SPIRV13SPIRVFunction10getDecoderERSi@Base 0
 _ZN5SPIRV13SPIRVFunction22foreachReturnValueAttrESt8functionIFvN3spv26FunctionParameterAttributeEEE@Base 0
 _ZN5SPIRV13SPIRVFunction6decodeERSi@Base 0
 _ZN5SPIRV13SPIRVFunction8decodeBBERNS_12SPIRVDecoderE@Base 0
 _ZN5SPIRV13UseTextFormatE@Base 0
 _ZN5SPIRV13castToInt8PtrEPN4llvm5ValueEPNS0_11InstructionE@Base 0
 _ZN5SPIRV13castToInt8PtrEPN4llvm8ConstantEj@Base 0
 _ZN5SPIRV13getArgAsScopeEPN4llvm8CallInstEj@Base 0
 _ZN5SPIRV13isSpirvBinaryERKNSt7__cxx1112basic_stringIcSt11char_traitsIcESaIcEEE@Base 0
 _ZN5SPIRV13mangleBuiltinB5cxx11EN4llvm9StringRefENS0_8ArrayRefIPNS0_4TypeEEEPNS_21BuiltinFuncMangleInfoE@Base 0
 _ZN5SPIRV14OCLToSPIRVBase12transBuiltinEPN4llvm8CallInstERN7OCLUtil19OCLBuiltinTransInfoE@Base 13
 _ZN5SPIRV14OCLToSPIRVBase12visitCallDotEPN4llvm8CallInstE@Base 13
 _ZN5SPIRV14OCLToSPIRVBase12visitCallDotEPN4llvm8CallInstENS1_9StringRefES4_@Base 15
 _ZN5SPIRV14OCLToSPIRVBase13runOCLToSPIRVERN4llvm6ModuleE@Base 13
 _ZN5SPIRV14OCLToSPIRVBase13visitCallInstERN4llvm8CallInstE@Base 13
 _ZN5SPIRV14OCLToSPIRVBase14visitCallLdexpEPN4llvm8CallInstENS1_9StringRefES4_@Base 14
 _ZN5SPIRV14OCLToSPIRVBase15getVecLoadWidthERKNSt7__cxx1112basic_stringIcSt11char_traitsIcESaIcEEE@Base 15
 _ZN5SPIRV14OCLToSPIRVBase15visitCallAllAnyEN3spv2OpEPN4llvm8CallInstE@Base 13
 _ZN5SPIRV14OCLToSPIRVBase15visitCallToAddrEPN4llvm8CallInstENS1_9StringRefE@Base 13
 _ZN5SPIRV14OCLToSPIRVBase16visitCallBarrierEPN4llvm8CallInstE@Base 13
 _ZN5SPIRV14OCLToSPIRVBase16visitCallConvertEPN4llvm8CallInstENS1_9StringRefES4_@Base 13
 _ZN5SPIRV14OCLToSPIRVBase16visitCallNDRangeEPN4llvm8CallInstENS1_9StringRefE@Base 13
 _ZN5SPIRV14OCLToSPIRVBase17visitCallGetFenceEPN4llvm8CallInstENS1_9StringRefE@Base 13
 _ZN5SPIRV14OCLToSPIRVBase17visitCallMemFenceEPN4llvm8CallInstENS1_9StringRefE@Base 13
 _ZN5SPIRV14OCLToSPIRVBase18transAtomicBuiltinEPN4llvm8CallInstERN7OCLUtil19OCLBuiltinTransInfoE@Base 13
 _ZN5SPIRV14OCLToSPIRVBase18transMemoryBarrierEPN4llvm8CallInstESt5tupleIJjN7OCLUtil15OCLMemOrderKindENS5_12OCLScopeKindEEE@Base 13
 _ZN5SPIRV14OCLToSPIRVBase18visitCallScalToVecEPN4llvm8CallInstENS1_9StringRefES4_@Base 13
 _ZN5SPIRV14OCLToSPIRVBase19eraseUselessConvertEPN4llvm8CallInstENS1_9StringRefES4_@Base 13
 _ZN5SPIRV14OCLToSPIRVBase19visitCallAtomicInitEPN4llvm8CallInstE@Base 13
 _ZN5SPIRV14OCLToSPIRVBase19visitCallRelationalEPN4llvm8CallInstENS1_9StringRefE@Base 13
 _ZN5SPIRV14OCLToSPIRVBase20visitCallAtomicCpp11EPN4llvm8CallInstENS1_9StringRefES4_@Base 13
 _ZN5SPIRV14OCLToSPIRVBase20visitCallKernelQueryEPN4llvm8CallInstENS1_9StringRefE@Base 13
 _ZN5SPIRV14OCLToSPIRVBase21transVecLoadStoreNameERNSt7__cxx1112basic_stringIcSt11char_traitsIcESaIcEEERKS6_b@Base 15
 _ZN5SPIRV14OCLToSPIRVBase21visitCallAtomicLegacyEPN4llvm8CallInstENS1_9StringRefES4_@Base 13
 _ZN5SPIRV14OCLToSPIRVBase21visitCallGetImageSizeEPN4llvm8CallInstENS1_9StringRefE@Base 13
 _ZN5SPIRV14OCLToSPIRVBase21visitCallGroupBuiltinEPN4llvm8CallInstENS1_9StringRefE@Base 13
 _ZN5SPIRV14OCLToSPIRVBase21visitCallVecLoadStoreEPN4llvm8CallInstENS1_9StringRefES4_@Base 13
 _ZN5SPIRV14OCLToSPIRVBase22visitCallAtomicCmpXchgEPN4llvm8CallInstE@Base 13
 _ZN5SPIRV14OCLToSPIRVBase22visitCallBuiltinSimpleEPN4llvm8CallInstENS1_9StringRefES4_@Base 13
 _ZN5SPIRV14OCLToSPIRVBase22visitCallEnqueueKernelEPN4llvm8CallInstENS1_9StringRefE@Base 13
 _ZN5SPIRV14OCLToSPIRVBase22visitCallReadImageMSAAEPN4llvm8CallInstENS1_9StringRefE@Base 13
 _ZN5SPIRV14OCLToSPIRVBase23visitCallReadWriteImageEPN4llvm8CallInstENS1_9StringRefE@Base 13
 _ZN5SPIRV14OCLToSPIRVBase24visitCallGetImageChannelEPN4llvm8CallInstENS1_9StringRefEj@Base 13
 _ZN5SPIRV14OCLToSPIRVBase27visitCallAsyncWorkGroupCopyEPN4llvm8CallInstENS1_9StringRefE@Base 13
 _ZN5SPIRV14OCLToSPIRVBase27visitSubgroupAVCBuiltinCallEPN4llvm8CallInstENS1_9StringRefE@Base 13
 _ZN5SPIRV14OCLToSPIRVBase27visitSubgroupBlockReadINTELEPN4llvm8CallInstE@Base 13
 _ZN5SPIRV14OCLToSPIRVBase28visitCallAtomicWorkItemFenceEPN4llvm8CallInstE@Base 13
 _ZN5SPIRV14OCLToSPIRVBase28visitSubgroupBlockWriteINTELEPN4llvm8CallInstE@Base 13
#MISSING: 15# _ZN5SPIRV14OCLToSPIRVBase29visitCallReadImageWithSamplerEPN4llvm8CallInstENS1_9StringRefE@Base 13
 _ZN5SPIRV14OCLToSPIRVBase29visitCallReadImageWithSamplerEPN4llvm8CallInstENS1_9StringRefES4_@Base 15
 _ZN5SPIRV14OCLToSPIRVBase31visitCallConvertAsBFloat16FloatEPN4llvm8CallInstENS1_9StringRefE@Base 14
 _ZN5SPIRV14OCLToSPIRVBase32visitCallConvertBFloat16AsUshortEPN4llvm8CallInstENS1_9StringRefE@Base 14
 _ZN5SPIRV14OCLToSPIRVBase33visitSubgroupImageMediaBlockINTELEPN4llvm8CallInstENS1_9StringRefE@Base 13
 _ZN5SPIRV14OCLToSPIRVBase34visitSubgroupAVCWrapperBuiltinCallEPN4llvm8CallInstEN3spv2OpENS1_9StringRefE@Base 13
 _ZN5SPIRV14OCLToSPIRVBase38visitSubgroupAVCBuiltinCallWithSamplerEPN4llvm8CallInstENS1_9StringRefE@Base 13
 _ZN5SPIRV14OCLToSPIRVPass3runERN4llvm6ModuleERNS1_15AnalysisManagerIS2_JEEE@Base 15
 _ZN5SPIRV14SPIRVDbgEnableE@Base 0
 _ZN5SPIRV14SPIRVExtension6decodeERSi@Base 0
 _ZN5SPIRV14SPIRVExtensionC1EPNS_11SPIRVModuleERKNSt7__cxx1112basic_stringIcSt11char_traitsIcESaIcEEE@Base 0
 _ZN5SPIRV14SPIRVExtensionC2EPNS_11SPIRVModuleERKNSt7__cxx1112basic_stringIcSt11char_traitsIcESaIcEEE@Base 0
 _ZN5SPIRV14SPIRVToOCLBase13visitCallInstERN4llvm8CallInstE@Base 13
 _ZN5SPIRV14SPIRVToOCLBase13visitCastInstERN4llvm8CastInstE@Base 13
 _ZN5SPIRV14SPIRVToOCLBase17getParameterTypesEPN4llvm8CallInstERNS1_15SmallVectorImplIPNS1_10StructTypeEEE@Base 15
 _ZN5SPIRV14SPIRVToOCLBase19translateOpaqueTypeB5cxx11EN4llvm9StringRefE@Base 15
 _ZN5SPIRV14SPIRVToOCLBase20getBallotBuiltinNameB5cxx11EPN4llvm8CallInstEN3spv2OpE@Base 13
 _ZN5SPIRV14SPIRVToOCLBase20getOCLPipeOpaqueTypeERN4llvm11SmallVectorINSt7__cxx1112basic_stringIcSt11char_traitsIcESaIcEEELj8EEE@Base 14
 _ZN5SPIRV14SPIRVToOCLBase20getRotateBuiltinNameB5cxx11EPN4llvm8CallInstEN3spv2OpE@Base 15
 _ZN5SPIRV14SPIRVToOCLBase20translateOpaqueTypesEv@Base 13
 _ZN5SPIRV14SPIRVToOCLBase20visitCallSPIRVAnyAllEPN4llvm8CallInstEN3spv2OpE@Base 14
 _ZN5SPIRV14SPIRVToOCLBase20visitCallSPIRVOCLExtEPN4llvm8CallInstEN9OpenCLLIB11EntrypointsE@Base 13
 _ZN5SPIRV14SPIRVToOCLBase20visitCallSPIRVPrintfEPN4llvm8CallInstEN9OpenCLLIB11EntrypointsE@Base 13
 _ZN5SPIRV14SPIRVToOCLBase20visitCallSPIRVVLoadnEPN4llvm8CallInstEN9OpenCLLIB11EntrypointsE@Base 13
 _ZN5SPIRV14SPIRVToOCLBase20visitCallSPIRVVStoreEPN4llvm8CallInstEN9OpenCLLIB11EntrypointsE@Base 13
 _ZN5SPIRV14SPIRVToOCLBase21getGroupBuiltinPrefixB5cxx11EPN4llvm8CallInstE@Base 13
 _ZN5SPIRV14SPIRVToOCLBase21getOCLImageOpaqueTypeERN4llvm11SmallVectorINSt7__cxx1112basic_stringIcSt11char_traitsIcESaIcEEELj8EEE@Base 13
 _ZN5SPIRV14SPIRVToOCLBase21visitCallSPIRVBuiltinEPN4llvm8CallInstEN3spv2OpE@Base 13
 _ZN5SPIRV14SPIRVToOCLBase21visitCallSPIRVBuiltinEPN4llvm8CallInstEN3spv7BuiltInE@Base 13
 _ZN5SPIRV14SPIRVToOCLBase23groupOCToOCLBuiltinNameB5cxx11EPN4llvm8CallInstEN3spv2OpE@Base 13
 _ZN5SPIRV14SPIRVToOCLBase24visitCallGroupWaitEventsEPN4llvm8CallInstEN3spv2OpE@Base 13
 _ZN5SPIRV14SPIRVToOCLBase24visitCallSPIRVCvtBuiltinEPN4llvm8CallInstEN3spv2OpENS1_9StringRefE@Base 13
 _ZN5SPIRV14SPIRVToOCLBase24visitCallSPIRVRelationalEPN4llvm8CallInstEN3spv2OpE@Base 14
 _ZN5SPIRV14SPIRVToOCLBase25visitCallSPIRVPipeBuiltinEPN4llvm8CallInstEN3spv2OpE@Base 13
 _ZN5SPIRV14SPIRVToOCLBase26mutateArgsForImageOperandsERSt6vectorIPN4llvm5ValueESaIS4_EEjRb@Base 15
 _ZN5SPIRV14SPIRVToOCLBase26visitCallSPIRVGroupBuiltinEPN4llvm8CallInstEN3spv2OpE@Base 13
 _ZN5SPIRV14SPIRVToOCLBase27visitCallAsyncWorkGroupCopyEPN4llvm8CallInstEN3spv2OpE@Base 13
 _ZN5SPIRV14SPIRVToOCLBase28visitCallBuildNDRangeBuiltInEPN4llvm8CallInstEN3spv2OpENS1_9StringRefE@Base 13
 _ZN5SPIRV14SPIRVToOCLBase28visitCallSPRIVImageQuerySizeEPN4llvm8CallInstE@Base 13
 _ZN5SPIRV14SPIRVToOCLBase30visitCallSPIRVImageReadBuiltInEPN4llvm8CallInstEN3spv2OpE@Base 13
 _ZN5SPIRV14SPIRVToOCLBase31getUniformArithmeticBuiltinNameB5cxx11EPN4llvm8CallInstEN3spv2OpE@Base 13
 _ZN5SPIRV14SPIRVToOCLBase31visitCallSPIRVImageQueryBuiltInEPN4llvm8CallInstEN3spv2OpE@Base 13
 _ZN5SPIRV14SPIRVToOCLBase31visitCallSPIRVImageWriteBuiltInEPN4llvm8CallInstEN3spv2OpE@Base 13
 _ZN5SPIRV14SPIRVToOCLBase33visitCallSPIRVBFloat16ConversionsEPN4llvm8CallInstEN3spv2OpE@Base 14
 _ZN5SPIRV14SPIRVToOCLBase34getNonUniformArithmeticBuiltinNameB5cxx11EPN4llvm8CallInstEN3spv2OpE@Base 13
 _ZN5SPIRV14SPIRVToOCLBase34visitCallSPIRVSubgroupINTELBuiltInEPN4llvm8CallInstEN3spv2OpE@Base 13
 _ZN5SPIRV14SPIRVToOCLBase36visitCallSPIRVGenericPtrMemSemanticsEPN4llvm8CallInstE@Base 14
 _ZN5SPIRV14SPIRVToOCLBase36visitCallSPIRVImageMediaBlockBuiltinEPN4llvm8CallInstEN3spv2OpE@Base 13
 _ZN5SPIRV14SPIRVToOCLBase37visitCallSPIRVAvcINTELEvaluateBuiltInEPN4llvm8CallInstEN3spv2OpE@Base 13
 _ZN5SPIRV14SPIRVToOCLBase40visitCallGenericCastToPtrExplicitBuiltInEPN4llvm8CallInstEN3spv2OpE@Base 13
 _ZN5SPIRV14SPIRVToOCLBase40visitCallSPIRVAvcINTELInstructionBuiltinEPN4llvm8CallInstEN3spv2OpE@Base 13
 _ZN5SPIRV14SPIRVToOCLBase43visitCallSPIRVImageSampleExplicitLodBuiltInEPN4llvm8CallInstEN3spv2OpE@Base 13
 _ZN5SPIRV14SPIRVTypeArray6decodeERSi@Base 0
 _ZN5SPIRV14SPIRVTypeArrayC1EPNS_11SPIRVModuleEjPNS_9SPIRVTypeEPNS_17SPIRVConstantBaseILN3spv2OpE43EEE@Base 0
 _ZN5SPIRV14SPIRVTypeArrayC2EPNS_11SPIRVModuleEjPNS_9SPIRVTypeEPNS_17SPIRVConstantBaseILN3spv2OpE43EEE@Base 0
 _ZN5SPIRV14TranslatorOpts30setSPIRVAllowUnknownIntrinsicsEN4llvm11SmallVectorINS1_9StringRefELj4EEE@Base 13
 _ZN5SPIRV14addDecorationsEPNS_10SPIRVValueERKN4llvm15SmallVectorImplINSt7__cxx1112basic_stringIcSt11char_traitsIcESaIcEEEEE@Base 0
 _ZN5SPIRV14getSPIRVFuncOCEN4llvm9StringRefEPNS0_15SmallVectorImplINSt7__cxx1112basic_stringIcSt11char_traitsIcESaIcEEEEE@Base 0
 _ZN5SPIRV14getSPIRVSourceB5cxx11EPN4llvm6ModuleE@Base 0
 _ZN5SPIRV14getSamplerTypeEPN4llvm6ModuleE@Base 0
#MISSING: 15# _ZN5SPIRV14isOCLImageTypeEPN4llvm4TypeEPNS0_9StringRefE@Base 0
 _ZN5SPIRV14isSYCLHalfTypeEPN4llvm4TypeE@Base 14
 (optional=templinst)_ZN5SPIRV14mutateCallInstEPN4llvm6ModuleEPNS0_8CallInstESt8functionIFNSt7__cxx1112basic_stringIcSt11char_traitsIcESaIcEEES4_RSt6vectorIPNS0_5ValueESaISE_EEEEPNS_21BuiltinFuncMangleInfoEPNS0_13AttributeListEb@Base 0
 (optional=templinst)_ZN5SPIRV14mutateCallInstEPN4llvm6ModuleEPNS0_8CallInstESt8functionIFNSt7__cxx1112basic_stringIcSt11char_traitsIcESaIcEEES4_RSt6vectorIPNS0_5ValueESaISE_EERPNS0_4TypeEEES5_IFPNS0_11InstructionES4_EEPNS_21BuiltinFuncMangleInfoEPNS0_13AttributeListEb@Base 0
 (optional=templinst)_ZN5SPIRV14mutateFunctionEPN4llvm8FunctionESt8functionIFNSt7__cxx1112basic_stringIcSt11char_traitsIcESaIcEEEPNS0_8CallInstERSt6vectorIPNS0_5ValueESaISE_EEEEPNS_21BuiltinFuncMangleInfoEPNS0_13AttributeListEb@Base 0
 (optional=templinst)_ZN5SPIRV14mutateFunctionEPN4llvm8FunctionESt8functionIFNSt7__cxx1112basic_stringIcSt11char_traitsIcESaIcEEEPNS0_8CallInstERSt6vectorIPNS0_5ValueESaISE_EERPNS0_4TypeEEES3_IFPNS0_11InstructionESB_EEPNS_21BuiltinFuncMangleInfoEPNS0_13AttributeListEb@Base 14
 _ZN5SPIRV14saveLLVMModuleEPN4llvm6ModuleERKNSt7__cxx1112basic_stringIcSt11char_traitsIcESaIcEEE@Base 0
 _ZN5SPIRV15EnableDbgOutputE@Base 0
 _ZN5SPIRV15LLVMToSPIRVBase10transAlignEPN4llvm5ValueEPNS_10SPIRVValueE@Base 13
 _ZN5SPIRV15LLVMToSPIRVBase10transValueEPN4llvm5ValueEPNS_15SPIRVBasicBlockEbNS0_13FuncTransModeE@Base 13
 _ZN5SPIRV15LLVMToSPIRVBase10transValueERKSt6vectorIPN4llvm5ValueESaIS4_EEPNS_15SPIRVBasicBlockE@Base 13
 _ZN5SPIRV15LLVMToSPIRVBase10transValueERKSt6vectorIPN4llvm5ValueESaIS4_EEPNS_15SPIRVBasicBlockEPNS_10SPIRVEntryE@Base 13
 _ZN5SPIRV15LLVMToSPIRVBase12getSizetTypeEj@Base 13
 _ZN5SPIRV15LLVMToSPIRVBase12transCmpInstEPN4llvm7CmpInstEPNS_15SPIRVBasicBlockE@Base 13
 _ZN5SPIRV15LLVMToSPIRVBase13getFPContractEPN4llvm8FunctionE@Base 13
 _ZN5SPIRV15LLVMToSPIRVBase13transAsmINTELEPN4llvm9InlineAsmE@Base 13
 _ZN5SPIRV15LLVMToSPIRVBase13transCallInstEPN4llvm8CallInstEPNS_15SPIRVBasicBlockE@Base 13
 _ZN5SPIRV15LLVMToSPIRVBase13transConstantEPN4llvm5ValueE@Base 13
 _ZN5SPIRV15LLVMToSPIRVBase13transFunctionEPN4llvm8FunctionE@Base 13
 _ZN5SPIRV15LLVMToSPIRVBase13transMetadataEv@Base 13
 _ZN5SPIRV15LLVMToSPIRVBase14getLoopControlEPKN4llvm10BranchInstERSt6vectorIjSaIjEE@Base 13
 _ZN5SPIRV15LLVMToSPIRVBase14joinFPContractEPN4llvm8FunctionENS0_10FPContractE@Base 13
 _ZN5SPIRV15LLVMToSPIRVBase14runLLVMToSPIRVERN4llvm6ModuleE@Base 13
 _ZN5SPIRV15LLVMToSPIRVBase14transArgumentsEPN4llvm8CallInstEPNS_15SPIRVBasicBlockEPNS_10SPIRVEntryE@Base 13
 _ZN5SPIRV15LLVMToSPIRVBase14transExtensionEv@Base 13
 _ZN5SPIRV15LLVMToSPIRVBase14transFenceInstEPN4llvm9FenceInstEPNS_15SPIRVBasicBlockE@Base 14
 _ZN5SPIRV15LLVMToSPIRVBase14transUnaryInstEPN4llvm16UnaryInstructionEPNS_15SPIRVBasicBlockE@Base 13
 _ZN5SPIRV15LLVMToSPIRVBase15transAtomicLoadEPN4llvm8LoadInstEPNS_15SPIRVBasicBlockE@Base 13
 _ZN5SPIRV15LLVMToSPIRVBase15transBinaryInstEPN4llvm14BinaryOperatorEPNS_15SPIRVBasicBlockE@Base 13
 _ZN5SPIRV15LLVMToSPIRVBase15transBoolOpCodeEPNS_10SPIRVValueEN3spv2OpE@Base 13
 _ZN5SPIRV15LLVMToSPIRVBase15transBuiltinSetEv@Base 13
 _ZN5SPIRV15LLVMToSPIRVBase15transDecorationEPN4llvm5ValueEPNS_10SPIRVValueE@Base 13
 _ZN5SPIRV15LLVMToSPIRVBase15transFPContractEv@Base 13
 _ZN5SPIRV15LLVMToSPIRVBase16isKnownIntrinsicEj@Base 13
 _ZN5SPIRV15LLVMToSPIRVBase16transAtomicStoreEPN4llvm9StoreInstEPNS_15SPIRVBasicBlockE@Base 13
 _ZN5SPIRV15LLVMToSPIRVBase16transLinkageTypeEPKN4llvm11GlobalValueE@Base 13
 _ZN5SPIRV15LLVMToSPIRVBase16transOCLMetadataEv@Base 13
 _ZN5SPIRV15LLVMToSPIRVBase16transPointerTypeEPN4llvm4TypeEj@Base 15
 _ZN5SPIRV15LLVMToSPIRVBase16transPointerTypeEPNS_9SPIRVTypeEj@Base 15
 _ZN5SPIRV15LLVMToSPIRVBase17mutateFuncArgTypeERKSt3mapIjPN4llvm4TypeESt4lessIjESaISt4pairIKjS4_EEEPNS2_8FunctionE@Base 13
 _ZN5SPIRV15LLVMToSPIRVBase17transAsmCallINTELEPN4llvm8CallInstEPNS_15SPIRVBasicBlockE@Base 13
 _ZN5SPIRV15LLVMToSPIRVBase17transFunctionDeclEPN4llvm8FunctionE@Base 13
 _ZN5SPIRV15LLVMToSPIRVBase18transBuiltinToInstEN4llvm9StringRefEPNS1_8CallInstEPNS_15SPIRVBasicBlockE@Base 13
 _ZN5SPIRV15LLVMToSPIRVBase18transExecutionModeEv@Base 13
 _ZN5SPIRV15LLVMToSPIRVBase18transIntrinsicInstEPN4llvm13IntrinsicInstEPNS_15SPIRVBasicBlockE@Base 13
 _ZN5SPIRV15LLVMToSPIRVBase18transScavengedTypeEPN4llvm5ValueE@Base 15
 _ZN5SPIRV15LLVMToSPIRVBase19transAddressingModeEv@Base 13
 _ZN5SPIRV15LLVMToSPIRVBase19transDirectCallInstEPN4llvm8CallInstEPNS_15SPIRVBasicBlockE@Base 13
 _ZN5SPIRV15LLVMToSPIRVBase19transSourceLanguageEv@Base 13
 _ZN5SPIRV15LLVMToSPIRVBase20getSPIRVFunctionTypeEPNS_9SPIRVTypeERKSt6vectorIS2_SaIS2_EE@Base 15
 _ZN5SPIRV15LLVMToSPIRVBase20isBuiltinTransToInstEPN4llvm8FunctionE@Base 13
 _ZN5SPIRV15LLVMToSPIRVBase20transGlobalVariablesEv@Base 13
 _ZN5SPIRV15LLVMToSPIRVBase20transSPIRVOpaqueTypeEN4llvm9StringRefEj@Base 15
#MISSING: 15# _ZN5SPIRV15LLVMToSPIRVBase20transSPIRVOpaqueTypeEPN4llvm4TypeE@Base 13
 _ZN5SPIRV15LLVMToSPIRVBase21transGlobalAnnotationEPN4llvm14GlobalVariableE@Base 13
 _ZN5SPIRV15LLVMToSPIRVBase21transIndirectCallInstEPN4llvm8CallInstEPNS_15SPIRVBasicBlockE@Base 13
 _ZN5SPIRV15LLVMToSPIRVBase22transBuiltinToConstantEN4llvm9StringRefEPNS1_8CallInstE@Base 13
 _ZN5SPIRV15LLVMToSPIRVBase23isBuiltinTransToExtInstEPN4llvm8FunctionEPNS_19SPIRVExtInstSetKindEPjPNS1_15SmallVectorImplINSt7__cxx1112basic_stringIcSt11char_traitsIcESaIcEEEEE@Base 13
 _ZN5SPIRV15LLVMToSPIRVBase23oclTransSpvcCastSamplerEPN4llvm8CallInstEPNS_15SPIRVBasicBlockE@Base 13
 _ZN5SPIRV15LLVMToSPIRVBase24transFunctionControlMaskEPN4llvm8FunctionE@Base 13
 _ZN5SPIRV15LLVMToSPIRVBase24transGlobalIOPipeStorageEPN4llvm14GlobalVariableEPNS1_6MDNodeE@Base 13
 _ZN5SPIRV15LLVMToSPIRVBase25fpContractUpdateRecursiveEPN4llvm8FunctionENS0_10FPContractE@Base 13
 _ZN5SPIRV15LLVMToSPIRVBase25transFPGAFunctionMetadataEPNS_13SPIRVFunctionEPN4llvm8FunctionE@Base 13
 _ZN5SPIRV15LLVMToSPIRVBase26transVectorComputeMetadataEPN4llvm8FunctionE@Base 13
 _ZN5SPIRV15LLVMToSPIRVBase27applyRoundingModeConstraintEPN4llvm5ValueEPNS_16SPIRVInstructionE@Base 13
 _ZN5SPIRV15LLVMToSPIRVBase27collectEntryPointInterfacesEPNS_13SPIRVFunctionEPN4llvm8FunctionE@Base 14
 _ZN5SPIRV15LLVMToSPIRVBase27transValueWithoutDecorationEPN4llvm5ValueEPNS_15SPIRVBasicBlockEbNS0_13FuncTransModeE@Base 13
 _ZN5SPIRV15LLVMToSPIRVBase30transSPIRVJointMatrixINTELTypeEN4llvm11SmallVectorINSt7__cxx1112basic_stringIcSt11char_traitsIcESaIcEEELj8EEE@Base 15
#MISSING: 15# _ZN5SPIRV15LLVMToSPIRVBase30transSPIRVJointMatrixINTELTypeEPN4llvm4TypeENS1_11SmallVectorINSt7__cxx1112basic_stringIcSt11char_traitsIcESaIcEEELj8EEE@Base 14
 _ZN5SPIRV15LLVMToSPIRVBase32transMemAliasingINTELDecorationsEPN4llvm11InstructionEPNS_10SPIRVValueE@Base 13
 _ZN5SPIRV15LLVMToSPIRVBase35oclGetMutatedArgumentTypesByBuiltinEPN4llvm12FunctionTypeERSt3mapIjPNS1_4TypeESt4lessIjESaISt4pairIKjS6_EEEPNS1_8FunctionE@Base 13
 _ZN5SPIRV15LLVMToSPIRVBase35shouldTryToAddMemAliasingDecorationEPN4llvm11InstructionE@Base 14
 _ZN5SPIRV15LLVMToSPIRVBase35transBuiltinToInstWithoutDecorationEN3spv2OpEPN4llvm8CallInstEPNS_15SPIRVBasicBlockE@Base 13
 _ZN5SPIRV15LLVMToSPIRVBase36transWorkItemBuiltinCallsToVariablesEv@Base 13
 _ZN5SPIRV15LLVMToSPIRVBase7mapTypeEPN4llvm4TypeEPNS_9SPIRVTypeE@Base 13
 _ZN5SPIRV15LLVMToSPIRVBase8isKernelEPN4llvm8FunctionE@Base 13
 _ZN5SPIRV15LLVMToSPIRVBase8mapValueEPN4llvm5ValueEPNS_10SPIRVValueE@Base 13
 _ZN5SPIRV15LLVMToSPIRVBase9dumpUsersEPN4llvm5ValueE@Base 13
 _ZN5SPIRV15LLVMToSPIRVBase9transTypeEPN4llvm4TypeE@Base 13
 _ZN5SPIRV15LLVMToSPIRVBase9translateEv@Base 13
 _ZN5SPIRV15LLVMToSPIRVBaseC1EPNS_11SPIRVModuleE@Base 13
 _ZN5SPIRV15LLVMToSPIRVBaseC2EPNS_11SPIRVModuleE@Base 13
 _ZN5SPIRV15LLVMToSPIRVBaseD1Ev@Base 13
 _ZN5SPIRV15LLVMToSPIRVBaseD2Ev@Base 13
 _ZN5SPIRV15SPIRVBasicBlock10getDecoderERSi@Base 0
 _ZN5SPIRV15SPIRVBasicBlock14addInstructionEPNS_16SPIRVInstructionEPKS1_@Base 0
 _ZN5SPIRV15SPIRVBasicBlock6decodeERSi@Base 0
 _ZN5SPIRV15SPIRVBasicBlock8setScopeEPNS_10SPIRVEntryE@Base 0
 _ZN5SPIRV15SPIRVBasicBlockC1EjPNS_13SPIRVFunctionE@Base 0
 _ZN5SPIRV15SPIRVBasicBlockC2EjPNS_13SPIRVFunctionE@Base 0
 _ZN5SPIRV15SPIRVCapability6decodeERSi@Base 0
 _ZN5SPIRV15SPIRVCapabilityC1EPNS_11SPIRVModuleEN3spv10CapabilityE@Base 0
 _ZN5SPIRV15SPIRVCapabilityC2EPNS_11SPIRVModuleEN3spv10CapabilityE@Base 0
 _ZN5SPIRV15SPIRVDecorateId12setWordCountEj@Base 13
 _ZN5SPIRV15SPIRVDecorateId6decodeERSi@Base 13
 _ZN5SPIRV15SPIRVEntryPoint6decodeERSi@Base 0
 _ZN5SPIRV15SPIRVEntryPointC1EPNS_11SPIRVModuleEN3spv14ExecutionModelEjRKNSt7__cxx1112basic_stringIcSt11char_traitsIcESaIcEEESt6vectorIjSaIjEE@Base 0
 _ZN5SPIRV15SPIRVEntryPointC2EPNS_11SPIRVModuleEN3spv14ExecutionModelEjRKNSt7__cxx1112basic_stringIcSt11char_traitsIcESaIcEEESt6vectorIjSaIjEE@Base 0
 _ZN5SPIRV15SPIRVLowerConstE@Base 0
 _ZN5SPIRV15SPIRVMemberName6decodeERSi@Base 0
 _ZN5SPIRV15SPIRVModuleImpl10addCmpInstEN3spv2OpEPNS_9SPIRVTypeEPNS_10SPIRVValueES6_PNS_15SPIRVBasicBlockE@Base 0
 _ZN5SPIRV15SPIRVModuleImpl10addExtInstEPNS_9SPIRVTypeEjjRKSt6vectorIPNS_10SPIRVValueESaIS5_EEPNS_15SPIRVBasicBlockEPNS_16SPIRVInstructionE@Base 0
 _ZN5SPIRV15SPIRVModuleImpl10addExtInstEPNS_9SPIRVTypeEjjRKSt6vectorIjSaIjEEPNS_15SPIRVBasicBlockEPNS_16SPIRVInstructionE@Base 0
 _ZN5SPIRV15SPIRVModuleImpl10addForwardEPNS_9SPIRVTypeE@Base 0
 _ZN5SPIRV15SPIRVModuleImpl10addForwardEjPNS_9SPIRVTypeE@Base 0
 _ZN5SPIRV15SPIRVModuleImpl10addPhiInstEPNS_9SPIRVTypeESt6vectorIPNS_10SPIRVValueESaIS5_EEPNS_15SPIRVBasicBlockE@Base 0
 _ZN5SPIRV15SPIRVModuleImpl11addAsmINTELEPNS_17SPIRVTypeFunctionEPNS_19SPIRVAsmTargetINTELERKNSt7__cxx1112basic_stringIcSt11char_traitsIcESaIcEEESC_@Base 0
 _ZN5SPIRV15SPIRVModuleImpl11addBoolTypeEv@Base 0
 _ZN5SPIRV15SPIRVModuleImpl11addCallInstEPNS_13SPIRVFunctionERKSt6vectorIjSaIjEEPNS_15SPIRVBasicBlockE@Base 0
 _ZN5SPIRV15SPIRVModuleImpl11addConstantEPNS_10SPIRVValueE@Base 0
 _ZN5SPIRV15SPIRVModuleImpl11addConstantEPNS_9SPIRVTypeEN4llvm5APIntE@Base 12
 (subst)_ZN5SPIRV15SPIRVModuleImpl11addConstantEPNS_9SPIRVTypeE{uint64_t}@Base 0
 _ZN5SPIRV15SPIRVModuleImpl11addDecorateEPNS_20SPIRVDecorateGenericE@Base 0
 _ZN5SPIRV15SPIRVModuleImpl11addFunctionEPNS_13SPIRVFunctionE@Base 0
 _ZN5SPIRV15SPIRVModuleImpl11addFunctionEPNS_17SPIRVTypeFunctionEj@Base 0
 _ZN5SPIRV15SPIRVModuleImpl11addLoadInstEPNS_10SPIRVValueERKSt6vectorIjSaIjEEPNS_15SPIRVBasicBlockE@Base 0
 _ZN5SPIRV15SPIRVModuleImpl11addPipeTypeEv@Base 0
 _ZN5SPIRV15SPIRVModuleImpl11addVariableEPNS_9SPIRVTypeEbN3spv11LinkageTypeEPNS_10SPIRVValueERKNSt7__cxx1112basic_stringIcSt11char_traitsIcESaIcEEENS3_12StorageClassEPNS_15SPIRVBasicBlockE@Base 0
 _ZN5SPIRV15SPIRVModuleImpl11addVoidTypeEv@Base 0
 _ZN5SPIRV15SPIRVModuleImpl11layoutEntryEPNS_10SPIRVEntryE@Base 0
 _ZN5SPIRV15SPIRVModuleImpl12addArrayTypeEPNS_9SPIRVTypeEPNS_17SPIRVConstantBaseILN3spv2OpE43EEE@Base 0
 _ZN5SPIRV15SPIRVModuleImpl12addDebugInfoEjPNS_9SPIRVTypeERKSt6vectorIjSaIjEE@Base 0
 _ZN5SPIRV15SPIRVModuleImpl12addExtensionENS_11ExtensionIDE@Base 0
 _ZN5SPIRV15SPIRVModuleImpl12addFloatTypeEj@Base 0
 _ZN5SPIRV15SPIRVModuleImpl12addGroupInstEN3spv2OpEPNS_9SPIRVTypeENS1_5ScopeERKSt6vectorIPNS_10SPIRVValueESaIS8_EEPNS_15SPIRVBasicBlockE@Base 0
 _ZN5SPIRV15SPIRVModuleImpl12addImageTypeEPNS_9SPIRVTypeERKNS_24SPIRVTypeImageDescriptorE@Base 0
 _ZN5SPIRV15SPIRVModuleImpl12addImageTypeEPNS_9SPIRVTypeERKNS_24SPIRVTypeImageDescriptorEN3spv15AccessQualifierE@Base 0
 _ZN5SPIRV15SPIRVModuleImpl12addQueueTypeEv@Base 0
 _ZN5SPIRV15SPIRVModuleImpl12addStoreInstEPNS_10SPIRVValueES2_RKSt6vectorIjSaIjEEPNS_15SPIRVBasicBlockE@Base 0
 _ZN5SPIRV15SPIRVModuleImpl12addUnaryInstEN3spv2OpEPNS_9SPIRVTypeEPNS_10SPIRVValueEPNS_15SPIRVBasicBlockE@Base 0
 _ZN5SPIRV15SPIRVModuleImpl12setAlignmentEPNS_10SPIRVValueEj@Base 0
 _ZN5SPIRV15SPIRVModuleImpl13addBasicBlockEPNS_13SPIRVFunctionEj@Base 0
 _ZN5SPIRV15SPIRVModuleImpl13addBinaryInstEN3spv2OpEPNS_9SPIRVTypeEPNS_10SPIRVValueES6_PNS_15SPIRVBasicBlockE@Base 0
 _ZN5SPIRV15SPIRVModuleImpl13addBranchInstEPNS_15SPIRVBasicBlockES2_@Base 0
 _ZN5SPIRV15SPIRVModuleImpl13addCapabilityEN3spv10CapabilityE@Base 0
 _ZN5SPIRV15SPIRVModuleImpl13addEntryPointEN3spv14ExecutionModelEjRKNSt7__cxx1112basic_stringIcSt11char_traitsIcESaIcEEERKSt6vectorIjSaIjEE@Base 14
 _ZN5SPIRV15SPIRVModuleImpl13addMemberNameEPNS_15SPIRVTypeStructEjRKNSt7__cxx1112basic_stringIcSt11char_traitsIcESaIcEEE@Base 0
 _ZN5SPIRV15SPIRVModuleImpl13addOpaqueTypeERKNSt7__cxx1112basic_stringIcSt11char_traitsIcESaIcEEE@Base 0
 _ZN5SPIRV15SPIRVModuleImpl13addReturnInstEPNS_15SPIRVBasicBlockE@Base 0
 _ZN5SPIRV15SPIRVModuleImpl13addSelectInstEPNS_10SPIRVValueES2_S2_PNS_15SPIRVBasicBlockE@Base 0
 _ZN5SPIRV15SPIRVModuleImpl13addSwitchInstEPNS_10SPIRVValueEPNS_15SPIRVBasicBlockERKSt6vectorISt4pairIS5_IjSaIjEES4_ESaIS9_EES4_@Base 0
 _ZN5SPIRV15SPIRVModuleImpl13addVectorTypeEPNS_9SPIRVTypeEj@Base 0
 _ZN5SPIRV15SPIRVModuleImpl14addInstructionEPNS_16SPIRVInstructionEPNS_15SPIRVBasicBlockES2_@Base 0
 _ZN5SPIRV15SPIRVModuleImpl14addIntegerTypeEj@Base 0
 _ZN5SPIRV15SPIRVModuleImpl14addPointerTypeEN3spv12StorageClassEPNS_9SPIRVTypeE@Base 0
 _ZN5SPIRV15SPIRVModuleImpl14addSamplerTypeEv@Base 0
 _ZN5SPIRV15SPIRVModuleImpl14openStructTypeEjRKNSt7__cxx1112basic_stringIcSt11char_traitsIcESaIcEEE@Base 0
 _ZN5SPIRV15SPIRVModuleImpl14replaceForwardEPNS_12SPIRVForwardEPNS_10SPIRVEntryE@Base 0
 _ZN5SPIRV15SPIRVModuleImpl14setCurrentLineERKSt10shared_ptrIKNS_9SPIRVLineEE@Base 0
 _ZN5SPIRV15SPIRVModuleImpl15addFunctionTypeEPNS_9SPIRVTypeERKSt6vectorIS2_SaIS2_EE@Base 0
 _ZN5SPIRV15SPIRVModuleImpl15addInstTemplateEN3spv2OpEPNS_15SPIRVBasicBlockEPNS_9SPIRVTypeE@Base 0
 _ZN5SPIRV15SPIRVModuleImpl15addInstTemplateEN3spv2OpERKSt6vectorIjSaIjEEPNS_15SPIRVBasicBlockEPNS_9SPIRVTypeE@Base 0
 _ZN5SPIRV15SPIRVModuleImpl15addInstTemplateEPNS_21SPIRVInstTemplateBaseERKSt6vectorIjSaIjEEPNS_15SPIRVBasicBlockEPNS_9SPIRVTypeE@Base 13
 _ZN5SPIRV15SPIRVModuleImpl15addLifetimeInstEN3spv2OpEPNS_10SPIRVValueEjPNS_15SPIRVBasicBlockE@Base 0
 _ZN5SPIRV15SPIRVModuleImpl15addNullConstantEPNS_9SPIRVTypeE@Base 0
 (subst)_ZN5SPIRV15SPIRVModuleImpl15addSpecConstantEPNS_9SPIRVTypeE{uint64_t}@Base 0
 _ZN5SPIRV15SPIRVModuleImpl15closeStructTypeEPNS_15SPIRVTypeStructEb@Base 0
 _ZN5SPIRV15SPIRVModuleImpl16addExpectKHRInstEPNS_9SPIRVTypeEPNS_10SPIRVValueES4_PNS_15SPIRVBasicBlockE@Base 13
 _ZN5SPIRV15SPIRVModuleImpl16addFloatConstantEPNS_14SPIRVTypeFloatEf@Base 0
 _ZN5SPIRV15SPIRVModuleImpl16addGroupDecorateEPNS_20SPIRVDecorationGroupERKSt6vectorIPNS_10SPIRVEntryESaIS5_EE@Base 0
 _ZN5SPIRV15SPIRVModuleImpl16addLoopMergeInstEjjjSt6vectorIjSaIjEEPNS_15SPIRVBasicBlockE@Base 0
 _ZN5SPIRV15SPIRVModuleImpl16addTransposeInstEPNS_9SPIRVTypeEjPNS_15SPIRVBasicBlockE@Base 0
 _ZN5SPIRV15SPIRVModuleImpl16eraseInstructionEPNS_16SPIRVInstructionEPNS_15SPIRVBasicBlockE@Base 0
 _ZN5SPIRV15SPIRVModuleImpl16importBuiltinSetERKNSt7__cxx1112basic_stringIcSt11char_traitsIcESaIcEEEPj@Base 0
 _ZN5SPIRV15SPIRVModuleImpl17addAsyncGroupCopyEPNS_10SPIRVValueES2_S2_S2_S2_S2_PNS_15SPIRVBasicBlockE@Base 0
 _ZN5SPIRV15SPIRVModuleImpl17addCopyMemoryInstEPNS_10SPIRVValueES2_RKSt6vectorIjSaIjEEPNS_15SPIRVBasicBlockE@Base 0
 _ZN5SPIRV15SPIRVModuleImpl17addCopyObjectInstEPNS_9SPIRVTypeEPNS_10SPIRVValueEPNS_15SPIRVBasicBlockE@Base 0
 _ZN5SPIRV15SPIRVModuleImpl17addDoubleConstantEPNS_14SPIRVTypeFloatEd@Base 0
 _ZN5SPIRV15SPIRVModuleImpl17addTokenTypeINTELEv@Base 13
 _ZN5SPIRV15SPIRVModuleImpl18addDecorationGroupEPNS_20SPIRVDecorationGroupE@Base 0
 _ZN5SPIRV15SPIRVModuleImpl18addDecorationGroupEv@Base 0
 _ZN5SPIRV15SPIRVModuleImpl18addDeviceEventTypeEv@Base 0
 (subst)_ZN5SPIRV15SPIRVModuleImpl18addIntegerConstantEPNS_12SPIRVTypeIntE{uint64_t}@Base 0
 _ZN5SPIRV15SPIRVModuleImpl18addModuleProcessedERKNSt7__cxx1112basic_stringIcSt11char_traitsIcESaIcEEE@Base 12
 _ZN5SPIRV15SPIRVModuleImpl18addPipeStorageTypeEv@Base 0
 _ZN5SPIRV15SPIRVModuleImpl18addReturnValueInstEPNS_10SPIRVValueEPNS_15SPIRVBasicBlockE@Base 0
 _ZN5SPIRV15SPIRVModuleImpl18addSamplerConstantEPNS_9SPIRVTypeEjjj@Base 0
 _ZN5SPIRV15SPIRVModuleImpl18addUnreachableInstEPNS_15SPIRVBasicBlockE@Base 0
 _ZN5SPIRV15SPIRVModuleImpl19addAsmCallINTELInstEPNS_13SPIRVAsmINTELERKSt6vectorIjSaIjEEPNS_15SPIRVBasicBlockE@Base 0
 _ZN5SPIRV15SPIRVModuleImpl19addFPGARegINTELInstEPNS_9SPIRVTypeEPNS_10SPIRVValueEPNS_15SPIRVBasicBlockE@Base 0
 _ZN5SPIRV15SPIRVModuleImpl19addIndirectCallInstEPNS_10SPIRVValueEPNS_9SPIRVTypeERKSt6vectorIjSaIjEEPNS_15SPIRVBasicBlockE@Base 0
 _ZN5SPIRV15SPIRVModuleImpl19addSampledImageInstEPNS_9SPIRVTypeEPNS_10SPIRVValueES4_PNS_15SPIRVBasicBlockE@Base 0
 _ZN5SPIRV15SPIRVModuleImpl19addSampledImageTypeEPNS_14SPIRVTypeImageE@Base 0
 _ZN5SPIRV15SPIRVModuleImpl20addAssumeTrueKHRInstEPNS_10SPIRVValueEPNS_15SPIRVBasicBlockE@Base 13
 _ZN5SPIRV15SPIRVModuleImpl20addCompositeConstantEPNS_9SPIRVTypeERKSt6vectorIPNS_10SPIRVValueESaIS5_EE@Base 0
 _ZN5SPIRV15SPIRVModuleImpl20addMemoryBarrierInstEN3spv5ScopeEjPNS_15SPIRVBasicBlockE@Base 0
 _ZN5SPIRV15SPIRVModuleImpl20addOpaqueGenericTypeEN3spv2OpE@Base 0
 _ZN5SPIRV15SPIRVModuleImpl20addVectorShuffleInstEPNS_9SPIRVTypeEPNS_10SPIRVValueES4_RKSt6vectorIjSaIjEEPNS_15SPIRVBasicBlockE@Base 0
 _ZN5SPIRV15SPIRVModuleImpl20addVmeImageINTELTypeEPNS_14SPIRVTypeImageE@Base 0
 _ZN5SPIRV15SPIRVModuleImpl20getLiteralAsConstantEj@Base 0
 _ZN5SPIRV15SPIRVModuleImpl21addCapabilityInternalEN3spv10CapabilityE@Base 0
 _ZN5SPIRV15SPIRVModuleImpl21addControlBarrierInstEPNS_10SPIRVValueES2_S2_PNS_15SPIRVBasicBlockE@Base 0
 _ZN5SPIRV15SPIRVModuleImpl21addPtrAccessChainInstEPNS_9SPIRVTypeEPNS_10SPIRVValueESt6vectorIS4_SaIS4_EEPNS_15SPIRVBasicBlockEb@Base 0
 _ZN5SPIRV15SPIRVModuleImpl21addSelectionMergeInstEjjPNS_15SPIRVBasicBlockE@Base 0
 _ZN5SPIRV15SPIRVModuleImpl21addUnknownStructFieldEPNS_15SPIRVTypeStructEjj@Base 0
 _ZN5SPIRV15SPIRVModuleImpl21getModuleProcessedVecEv@Base 12
 _ZN5SPIRV15SPIRVModuleImpl22addCompositeInsertInstEPNS_10SPIRVValueES2_RKSt6vectorIjSaIjEEPNS_15SPIRVBasicBlockE@Base 0
 _ZN5SPIRV15SPIRVModuleImpl22addCopyMemorySizedInstEPNS_10SPIRVValueES2_S2_RKSt6vectorIjSaIjEEPNS_15SPIRVBasicBlockE@Base 0
 _ZN5SPIRV15SPIRVModuleImpl22addFixedPointIntelInstEN3spv2OpEPNS_9SPIRVTypeEPNS_10SPIRVValueERKSt6vectorIjSaIjEEPNS_15SPIRVBasicBlockE@Base 12
 _ZN5SPIRV15SPIRVModuleImpl22addGroupMemberDecorateEPNS_20SPIRVDecorationGroupERKSt6vectorIPNS_10SPIRVEntryESaIS5_EE@Base 0
 _ZN5SPIRV15SPIRVModuleImpl22addPipeStorageConstantEPNS_9SPIRVTypeEjjj@Base 0
 _ZN5SPIRV15SPIRVModuleImpl22getOrAddAsmTargetINTELERKNSt7__cxx1112basic_stringIcSt11char_traitsIcESaIcEEE@Base 0
 _ZN5SPIRV15SPIRVModuleImpl22importBuiltinSetWithIdERKNSt7__cxx1112basic_stringIcSt11char_traitsIcESaIcEEEj@Base 0
 _ZN5SPIRV15SPIRVModuleImpl23addCompositeExtractInstEPNS_9SPIRVTypeEPNS_10SPIRVValueERKSt6vectorIjSaIjEEPNS_15SPIRVBasicBlockE@Base 0
 _ZN5SPIRV15SPIRVModuleImpl23addGroupDecorateGenericEPNS_25SPIRVGroupDecorateGenericE@Base 0
#MISSING: 15# _ZN5SPIRV15SPIRVModuleImpl23addJointMatrixINTELTypeEPNS_9SPIRVTypeEPNS_10SPIRVValueES4_S4_S4_@Base 14
 _ZN5SPIRV15SPIRVModuleImpl23addJointMatrixINTELTypeEPNS_9SPIRVTypeESt6vectorIPNS_10SPIRVValueESaIS5_EE@Base 15
 _ZN5SPIRV15SPIRVModuleImpl23addLoopControlINTELInstEjSt6vectorIjSaIjEEPNS_15SPIRVBasicBlockE@Base 0
 _ZN5SPIRV15SPIRVModuleImpl23addSubgroupAvcINTELTypeEN3spv2OpE@Base 0
 _ZN5SPIRV15SPIRVModuleImpl24addBranchConditionalInstEPNS_10SPIRVValueEPNS_15SPIRVBasicBlockES4_S4_@Base 0
 _ZN5SPIRV15SPIRVModuleImpl24addMatrixTimesMatrixInstEPNS_9SPIRVTypeEjjPNS_15SPIRVBasicBlockE@Base 0
 _ZN5SPIRV15SPIRVModuleImpl24addMatrixTimesScalarInstEPNS_9SPIRVTypeEjjPNS_15SPIRVBasicBlockE@Base 0
 _ZN5SPIRV15SPIRVModuleImpl24addMatrixTimesVectorInstEPNS_9SPIRVTypeEjjPNS_15SPIRVBasicBlockE@Base 0
 _ZN5SPIRV15SPIRVModuleImpl24addSpecConstantCompositeEPNS_9SPIRVTypeERKSt6vectorIPNS_10SPIRVValueESaIS5_EE@Base 12
 _ZN5SPIRV15SPIRVModuleImpl24addVectorTimesMatrixInstEPNS_9SPIRVTypeEjjPNS_15SPIRVBasicBlockE@Base 0
 _ZN5SPIRV15SPIRVModuleImpl24addVectorTimesScalarInstEPNS_9SPIRVTypeEjjPNS_15SPIRVBasicBlockE@Base 0
 _ZN5SPIRV15SPIRVModuleImpl25addArbFloatPointIntelInstEN3spv2OpEPNS_9SPIRVTypeEPNS_10SPIRVValueES6_RKSt6vectorIjSaIjEEPNS_15SPIRVBasicBlockE@Base 0
 _ZN5SPIRV15SPIRVModuleImpl25addBufferSurfaceINTELTypeEN3spv15AccessQualifierE@Base 0
 _ZN5SPIRV15SPIRVModuleImpl25addCompositeConstructInstEPNS_9SPIRVTypeERKSt6vectorIjSaIjEEPNS_15SPIRVBasicBlockE@Base 0
 _ZN5SPIRV15SPIRVModuleImpl26addVectorInsertDynamicInstEPNS_10SPIRVValueES2_S2_PNS_15SPIRVBasicBlockE@Base 0
 _ZN5SPIRV15SPIRVModuleImpl26resolveUnknownStructFieldsEv@Base 0
 _ZN5SPIRV15SPIRVModuleImpl27addTypeStructContinuedINTELEj@Base 12
 _ZN5SPIRV15SPIRVModuleImpl27addVectorExtractDynamicInstEPNS_10SPIRVValueES2_PNS_15SPIRVBasicBlockE@Base 0
 _ZN5SPIRV15SPIRVModuleImpl31addConstantFunctionPointerINTELEPNS_9SPIRVTypeEPNS_13SPIRVFunctionE@Base 13
 _ZN5SPIRV15SPIRVModuleImpl31getOrAddAliasScopeDeclINTELInstESt6vectorIjSaIjEEPN4llvm6MDNodeE@Base 13
 _ZN5SPIRV15SPIRVModuleImpl32getOrAddAliasDomainDeclINTELInstESt6vectorIjSaIjEEPN4llvm6MDNodeE@Base 13
 _ZN5SPIRV15SPIRVModuleImpl34addCompositeConstantContinuedINTELERKSt6vectorIPNS_10SPIRVValueESaIS3_EE@Base 12
 _ZN5SPIRV15SPIRVModuleImpl35getOrAddAliasScopeListDeclINTELInstESt6vectorIjSaIjEEPN4llvm6MDNodeE@Base 13
 _ZN5SPIRV15SPIRVModuleImpl38addSpecConstantCompositeContinuedINTELERKSt6vectorIPNS_10SPIRVValueESaIS3_EE@Base 12
 _ZN5SPIRV15SPIRVModuleImpl5getIdEjj@Base 0
 _ZN5SPIRV15SPIRVModuleImpl7addLineEPNS_10SPIRVEntryEjjj@Base 0
 _ZN5SPIRV15SPIRVModuleImpl7setNameEPNS_10SPIRVEntryERKNSt7__cxx1112basic_stringIcSt11char_traitsIcESaIcEEE@Base 0
 _ZN5SPIRV15SPIRVModuleImpl8addEntryEPNS_10SPIRVEntryE@Base 0
 _ZN5SPIRV15SPIRVModuleImpl8addUndefEPNS_9SPIRVTypeE@Base 0
 _ZN5SPIRV15SPIRVModuleImpl9getStringERKNSt7__cxx1112basic_stringIcSt11char_traitsIcESaIcEEE@Base 0
 _ZN5SPIRV15SPIRVModuleImplD0Ev@Base 0
 _ZN5SPIRV15SPIRVModuleImplD1Ev@Base 0
 _ZN5SPIRV15SPIRVModuleImplD2Ev@Base 0
 _ZN5SPIRV15SPIRVTypeStruct9setPackedEb@Base 0
 _ZN5SPIRV15getSPIRVBuiltinERKNSt7__cxx1112basic_stringIcSt11char_traitsIcESaIcEEERN3spv7BuiltInE@Base 0
 _ZN5SPIRV15getVoidFuncTypeEPN4llvm6ModuleE@Base 0
 _ZN5SPIRV15hasLoopMetadataEPKN4llvm6ModuleE@Base 0
 _ZN5SPIRV15isMangledTypeFPEc@Base 0
 _ZN5SPIRV15prefixSPIRVNameERKNSt7__cxx1112basic_stringIcSt11char_traitsIcESaIcEEE@Base 0
 _ZN5SPIRV15readSpirvModuleERSiRKNS_14TranslatorOptsERNSt7__cxx1112basic_stringIcSt11char_traitsIcESaIcEEE@Base 0
 _ZN5SPIRV15readSpirvModuleERSiRNSt7__cxx1112basic_stringIcSt11char_traitsIcESaIcEEE@Base 0
 _ZN5SPIRV16OCLToSPIRVLegacy11runOnModuleERN4llvm6ModuleE@Base 15
 _ZN5SPIRV16OCLToSPIRVLegacy2IDE@Base 13
 _ZN5SPIRV16SPIRVInstruction11getOperandsEv@Base 0
 _ZN5SPIRV16SPIRVInstruction15getOperandTypesERKSt6vectorIPNS_10SPIRVValueESaIS3_EE@Base 0
 _ZN5SPIRV16SPIRVInstruction15getOperandTypesEv@Base 0
 _ZN5SPIRV16SPIRVInstruction8setScopeEPNS_10SPIRVEntryE@Base 0
 _ZN5SPIRV16SPIRVInstruction9setParentEPNS_15SPIRVBasicBlockE@Base 0
 _ZN5SPIRV16SPIRVInstructionC1EjN3spv2OpEPNS_15SPIRVBasicBlockE@Base 0
 _ZN5SPIRV16SPIRVInstructionC1EjN3spv2OpEPNS_9SPIRVTypeEPNS_15SPIRVBasicBlockE@Base 0
 _ZN5SPIRV16SPIRVInstructionC1EjN3spv2OpEPNS_9SPIRVTypeEjPNS_11SPIRVModuleEPNS_15SPIRVBasicBlockE@Base 0
 _ZN5SPIRV16SPIRVInstructionC1EjN3spv2OpEPNS_9SPIRVTypeEjPNS_15SPIRVBasicBlockE@Base 0
 _ZN5SPIRV16SPIRVInstructionC1EjN3spv2OpEPNS_9SPIRVTypeEjPNS_15SPIRVBasicBlockEPNS_11SPIRVModuleE@Base 0
 _ZN5SPIRV16SPIRVInstructionC1EjN3spv2OpEjPNS_15SPIRVBasicBlockE@Base 0
 _ZN5SPIRV16SPIRVInstructionC2EjN3spv2OpEPNS_15SPIRVBasicBlockE@Base 0
 _ZN5SPIRV16SPIRVInstructionC2EjN3spv2OpEPNS_9SPIRVTypeEPNS_15SPIRVBasicBlockE@Base 0
 _ZN5SPIRV16SPIRVInstructionC2EjN3spv2OpEPNS_9SPIRVTypeEjPNS_11SPIRVModuleEPNS_15SPIRVBasicBlockE@Base 0
 _ZN5SPIRV16SPIRVInstructionC2EjN3spv2OpEPNS_9SPIRVTypeEjPNS_15SPIRVBasicBlockE@Base 0
 _ZN5SPIRV16SPIRVInstructionC2EjN3spv2OpEPNS_9SPIRVTypeEjPNS_15SPIRVBasicBlockEPNS_11SPIRVModuleE@Base 0
 _ZN5SPIRV16SPIRVInstructionC2EjN3spv2OpEjPNS_15SPIRVBasicBlockE@Base 0
 _ZN5SPIRV16SPIRVMemoryModel6decodeERSi@Base 0
 _ZN5SPIRV16SPIRVToOCL12Base13mapAtomicNameB5cxx11EN3spv2OpEPN4llvm4TypeE@Base 13
 _ZN5SPIRV16SPIRVToOCL12Base13runSPIRVToOCLERN4llvm6ModuleE@Base 13
 _ZN5SPIRV16SPIRVToOCL12Base15mapFPAtomicNameB5cxx11EN3spv2OpE@Base 13
 _ZN5SPIRV16SPIRVToOCL12Base16mutateAtomicNameEPN4llvm8CallInstEN3spv2OpE@Base 13
 _ZN5SPIRV16SPIRVToOCL12Base24visitCallSPIRVAtomicLoadEPN4llvm8CallInstE@Base 13
 _ZN5SPIRV16SPIRVToOCL12Base25visitCallSPIRVAtomicStoreEPN4llvm8CallInstE@Base 13
 _ZN5SPIRV16SPIRVToOCL12Base26visitCallSPIRVAtomicIncDecEPN4llvm8CallInstEN3spv2OpE@Base 13
 _ZN5SPIRV16SPIRVToOCL12Base27mutateCommonAtomicArgumentsEPN4llvm8CallInstEN3spv2OpE@Base 13
 _ZN5SPIRV16SPIRVToOCL12Base27visitCallSPIRVAtomicBuiltinEPN4llvm8CallInstEN3spv2OpE@Base 13
 _ZN5SPIRV16SPIRVToOCL12Base27visitCallSPIRVEnqueueKernelEPN4llvm8CallInstEN3spv2OpE@Base 14
 _ZN5SPIRV16SPIRVToOCL12Base27visitCallSPIRVMemoryBarrierEPN4llvm8CallInstE@Base 13
 _ZN5SPIRV16SPIRVToOCL12Base28visitCallSPIRVAtomicCmpExchgEPN4llvm8CallInstE@Base 14
 _ZN5SPIRV16SPIRVToOCL12Base28visitCallSPIRVAtomicUMinUMaxEPN4llvm8CallInstEN3spv2OpE@Base 13
 _ZN5SPIRV16SPIRVToOCL12Base28visitCallSPIRVControlBarrierEPN4llvm8CallInstE@Base 13
 _ZN5SPIRV16SPIRVToOCL12Base29visitCallSPIRVAtomicFlagClearEPN4llvm8CallInstE@Base 13
 _ZN5SPIRV16SPIRVToOCL12Base34visitCallSPIRVAtomicFlagTestAndSetEPN4llvm8CallInstE@Base 13
 _ZN5SPIRV16SPIRVToOCL20Base13runSPIRVToOCLERN4llvm6ModuleE@Base 13
 _ZN5SPIRV16SPIRVToOCL20Base15mapFPAtomicNameB5cxx11EN3spv2OpE@Base 13
 _ZN5SPIRV16SPIRVToOCL20Base16mutateAtomicNameEPN4llvm8CallInstEN3spv2OpE@Base 13
 _ZN5SPIRV16SPIRVToOCL20Base26visitCallSPIRVAtomicIncDecEPN4llvm8CallInstEN3spv2OpE@Base 13
 _ZN5SPIRV16SPIRVToOCL20Base27mutateCommonAtomicArgumentsEPN4llvm8CallInstEN3spv2OpE@Base 13
 _ZN5SPIRV16SPIRVToOCL20Base27visitCallSPIRVAtomicBuiltinEPN4llvm8CallInstEN3spv2OpE@Base 13
 _ZN5SPIRV16SPIRVToOCL20Base27visitCallSPIRVEnqueueKernelEPN4llvm8CallInstEN3spv2OpE@Base 14
 _ZN5SPIRV16SPIRVToOCL20Base27visitCallSPIRVMemoryBarrierEPN4llvm8CallInstE@Base 13
 _ZN5SPIRV16SPIRVToOCL20Base28visitCallSPIRVAtomicCmpExchgEPN4llvm8CallInstE@Base 14
 _ZN5SPIRV16SPIRVToOCL20Base28visitCallSPIRVControlBarrierEPN4llvm8CallInstE@Base 13
 _ZN5SPIRV16addCallInstSPIRVEPN4llvm6ModuleENS0_9StringRefEPNS0_4TypeENS0_8ArrayRefIPNS0_5ValueEEEPNS0_13AttributeListENS6_IS5_EEPNS0_11InstructionES3_@Base 15
#MISSING: 15# _ZN5SPIRV16addCallInstSPIRVEPN4llvm6ModuleENS0_9StringRefEPNS0_4TypeENS0_8ArrayRefIPNS0_5ValueEEEPNS0_13AttributeListEPNS0_11InstructionES3_@Base 0
 _ZN5SPIRV16checkIsGlobalVarEPNS_10SPIRVEntryEN3spv10DecorationE@Base 14
 _ZN5SPIRV16getSPIRVFuncNameB5cxx11EN3spv2OpEN4llvm9StringRefE@Base 0
#MISSING: 15# _ZN5SPIRV16getSPIRVFuncNameB5cxx11EN3spv2OpEPKN4llvm4TypeEb@Base 0
 _ZN5SPIRV16getSPIRVFuncNameB5cxx11EN3spv2OpEPKN4llvm4TypeEbPS3_@Base 15
 _ZN5SPIRV16getSPIRVFuncNameB5cxx11EN3spv7BuiltInE@Base 13
 _ZN5SPIRV16getSPIRVTypeNameB5cxx11EN4llvm9StringRefES1_@Base 0
 _ZN5SPIRV16getScalarOrArrayEPN4llvm5ValueEjPNS0_11InstructionE@Base 0
 _ZN5SPIRV17LLVMToSPIRVLegacy2IDE@Base 13
 (optional=templinst)_ZN5SPIRV17SPIRVConstantBaseILN3spv2OpE43EE13getSPIRVWordsEv@Base 13
 (optional=templinst)_ZN5SPIRV17SPIRVConstantBaseILN3spv2OpE43EE20recalculateWordCountEv@Base 13
 (optional=templinst|subst)_ZN5SPIRV17SPIRVConstantBaseILN3spv2OpE43EE8setWordsEPK{uint64_t}@Base 13
 (optional=templinst)_ZN5SPIRV17SPIRVConstantBaseILN3spv2OpE43EEC1EPNS_11SPIRVModuleEPNS_9SPIRVTypeEjRKN4llvm5APIntE@Base 13
 (optional=templinst)_ZN5SPIRV17SPIRVConstantBaseILN3spv2OpE43EEC1EPNS_11SPIRVModuleEPNS_9SPIRVTypeEjd@Base 13
 (optional=templinst)_ZN5SPIRV17SPIRVConstantBaseILN3spv2OpE43EEC1EPNS_11SPIRVModuleEPNS_9SPIRVTypeEjf@Base 13
 (optional=templinst|subst)_ZN5SPIRV17SPIRVConstantBaseILN3spv2OpE43EEC1EPNS_11SPIRVModuleEPNS_9SPIRVTypeEj{uint64_t}@Base 13
 (optional=templinst)_ZN5SPIRV17SPIRVConstantBaseILN3spv2OpE43EEC1Ev@Base 13
 (optional=templinst)_ZN5SPIRV17SPIRVConstantBaseILN3spv2OpE43EEC2EPNS_11SPIRVModuleEPNS_9SPIRVTypeEjRKN4llvm5APIntE@Base 13
 (optional=templinst)_ZN5SPIRV17SPIRVConstantBaseILN3spv2OpE43EEC2EPNS_11SPIRVModuleEPNS_9SPIRVTypeEjd@Base 13
 (optional=templinst)_ZN5SPIRV17SPIRVConstantBaseILN3spv2OpE43EEC2EPNS_11SPIRVModuleEPNS_9SPIRVTypeEjf@Base 13
 (optional=templinst|subst)_ZN5SPIRV17SPIRVConstantBaseILN3spv2OpE43EEC2EPNS_11SPIRVModuleEPNS_9SPIRVTypeEj{uint64_t}@Base 13
 (optional=templinst)_ZN5SPIRV17SPIRVConstantBaseILN3spv2OpE43EEC2Ev@Base 13
 (optional=templinst)_ZN5SPIRV17SPIRVConstantBaseILN3spv2OpE50EE13getSPIRVWordsEv@Base 13
 (optional=templinst)_ZN5SPIRV17SPIRVConstantBaseILN3spv2OpE50EE20recalculateWordCountEv@Base 13
 (optional=templinst|subst)_ZN5SPIRV17SPIRVConstantBaseILN3spv2OpE50EE8setWordsEPK{uint64_t}@Base 13
 (optional=templinst)_ZN5SPIRV17SPIRVConstantBaseILN3spv2OpE50EEC1EPNS_11SPIRVModuleEPNS_9SPIRVTypeEjRKN4llvm5APIntE@Base 13
 (optional=templinst)_ZN5SPIRV17SPIRVConstantBaseILN3spv2OpE50EEC1EPNS_11SPIRVModuleEPNS_9SPIRVTypeEjd@Base 13
 (optional=templinst)_ZN5SPIRV17SPIRVConstantBaseILN3spv2OpE50EEC1EPNS_11SPIRVModuleEPNS_9SPIRVTypeEjf@Base 13
 (optional=templinst|subst)_ZN5SPIRV17SPIRVConstantBaseILN3spv2OpE50EEC1EPNS_11SPIRVModuleEPNS_9SPIRVTypeEj{uint64_t}@Base 13
 (optional=templinst)_ZN5SPIRV17SPIRVConstantBaseILN3spv2OpE50EEC1Ev@Base 13
 (optional=templinst)_ZN5SPIRV17SPIRVConstantBaseILN3spv2OpE50EEC2EPNS_11SPIRVModuleEPNS_9SPIRVTypeEjRKN4llvm5APIntE@Base 13
 (optional=templinst)_ZN5SPIRV17SPIRVConstantBaseILN3spv2OpE50EEC2EPNS_11SPIRVModuleEPNS_9SPIRVTypeEjd@Base 13
 (optional=templinst)_ZN5SPIRV17SPIRVConstantBaseILN3spv2OpE50EEC2EPNS_11SPIRVModuleEPNS_9SPIRVTypeEjf@Base 13
 (optional=templinst|subst)_ZN5SPIRV17SPIRVConstantBaseILN3spv2OpE50EEC2EPNS_11SPIRVModuleEPNS_9SPIRVTypeEj{uint64_t}@Base 13
 (optional=templinst)_ZN5SPIRV17SPIRVConstantBaseILN3spv2OpE50EEC2Ev@Base 13
 _ZN5SPIRV17SPIRVFunctionCallC1EjPNS_13SPIRVFunctionERKSt6vectorIjSaIjEEPNS_15SPIRVBasicBlockE@Base 0
 _ZN5SPIRV17SPIRVFunctionCallC2EjPNS_13SPIRVFunctionERKSt6vectorIjSaIjEEPNS_15SPIRVBasicBlockE@Base 0
 _ZN5SPIRV17castToVoidFuncPtrEPN4llvm8FunctionE@Base 0
 _ZN5SPIRV17dePrefixSPIRVNameEN4llvm9StringRefERNS0_15SmallVectorImplIS1_EE@Base 0
 _ZN5SPIRV17getMDOperandAsIntEPN4llvm6MDNodeEj@Base 0
 _ZN5SPIRV17getParameterTypesEPN4llvm8FunctionERNS0_15SmallVectorImplIPNS0_10StructTypeEEE@Base 15
 _ZN5SPIRV17isEmptyLLVMModuleEPN4llvm6ModuleE@Base 12
 _ZN5SPIRV17isMangledTypeHalfENSt7__cxx1112basic_stringIcSt11char_traitsIcESaIcEEE@Base 0
 _ZN5SPIRV17isSPIRVOCLExtInstEPKN4llvm8CallInstEPN9OpenCLLIB11EntrypointsE@Base 12
 _ZN5SPIRV17isSPIRVStructTypeEPN4llvm4TypeENS0_9StringRefEPS3_@Base 15
 _ZN5SPIRV17isSupportedTripleEN4llvm6TripleE@Base 0
 _ZN5SPIRV17isValidVectorSizeEj@Base 0
 _ZN5SPIRV17lastFuncParamTypeEN4llvm9StringRefE@Base 0
 _ZN5SPIRV18KPlaceholderPrefixE@Base 0
 _ZN5SPIRV18LLVMToSPIRVDbgTran13transDbgEntryEPKN4llvm6MDNodeE@Base 0
 _ZN5SPIRV18LLVMToSPIRVDbgTran13transDbgScopeEPKN4llvm7DIScopeE@Base 0
 _ZN5SPIRV18LLVMToSPIRVDbgTran13transDebugLocERKN4llvm8DebugLocEPNS_15SPIRVBasicBlockEPNS_16SPIRVInstructionE@Base 0
 _ZN5SPIRV18LLVMToSPIRVDbgTran14transDbgModuleEPKN4llvm8DIModuleE@Base 13
 _ZN5SPIRV18LLVMToSPIRVDbgTran15transDbgTypeDefEPKN4llvm13DIDerivedTypeE@Base 0
 _ZN5SPIRV18LLVMToSPIRVDbgTran16getDebugInfoNoneEv@Base 0
 _ZN5SPIRV18LLVMToSPIRVDbgTran16transDbgBaseTypeEPKN4llvm11DIBasicTypeE@Base 0
 _ZN5SPIRV18LLVMToSPIRVDbgTran16transDbgEnumTypeEPKN4llvm15DICompositeTypeE@Base 0
 _ZN5SPIRV18LLVMToSPIRVDbgTran16transDbgFileTypeEPKN4llvm6DIFileE@Base 0
 _ZN5SPIRV18LLVMToSPIRVDbgTran16transDbgFunctionEPKN4llvm12DISubprogramE@Base 0
 _ZN5SPIRV18LLVMToSPIRVDbgTran17getGlobalVariableEPKN4llvm16DIGlobalVariableE@Base 0
 _ZN5SPIRV18LLVMToSPIRVDbgTran17transDbgArrayTypeEPKN4llvm15DICompositeTypeE@Base 0
 _ZN5SPIRV18LLVMToSPIRVDbgTran17transDbgEntryImplEPKN4llvm6MDNodeE@Base 0
 _ZN5SPIRV18LLVMToSPIRVDbgTran17transDbgInlinedAtEPKN4llvm10DILocationE@Base 0
 _ZN5SPIRV18LLVMToSPIRVDbgTran17transLocationInfoEv@Base 0
 _ZN5SPIRV18LLVMToSPIRVDbgTran18finalizeDebugValueEPKN4llvm20DbgVariableIntrinsicE@Base 0
 _ZN5SPIRV18LLVMToSPIRVDbgTran18getDebugInfoNoneIdEv@Base 0
 _ZN5SPIRV18LLVMToSPIRVDbgTran18transDbgExpressionEPKN4llvm12DIExpressionE@Base 0
 _ZN5SPIRV18LLVMToSPIRVDbgTran18transDbgMemberTypeEPKN4llvm13DIDerivedTypeE@Base 0
 _ZN5SPIRV18LLVMToSPIRVDbgTran18transDebugMetadataEv@Base 0
 _ZN5SPIRV18LLVMToSPIRVDbgTran19transDbgInheritanceEPKN4llvm13DIDerivedTypeE@Base 0
 _ZN5SPIRV18LLVMToSPIRVDbgTran19transDbgPointerTypeEPKN4llvm13DIDerivedTypeE@Base 0
 _ZN5SPIRV18LLVMToSPIRVDbgTran19transDbgPtrToMemberEPKN4llvm13DIDerivedTypeE@Base 0
 _ZN5SPIRV18LLVMToSPIRVDbgTran20finalizeDebugDeclareEPKN4llvm20DbgVariableIntrinsicE@Base 0
 _ZN5SPIRV18LLVMToSPIRVDbgTran21transDbgCompositeTypeEPKN4llvm15DICompositeTypeE@Base 0
 _ZN5SPIRV18LLVMToSPIRVDbgTran21transDbgImportedEntryEPKN4llvm16DIImportedEntityE@Base 0
 _ZN5SPIRV18LLVMToSPIRVDbgTran21transDbgLocalVariableEPKN4llvm15DILocalVariableE@Base 0
 _ZN5SPIRV18LLVMToSPIRVDbgTran21transDbgQualifiedTypeEPKN4llvm13DIDerivedTypeE@Base 0
 _ZN5SPIRV18LLVMToSPIRVDbgTran22transDbgGlobalVariableEPKN4llvm16DIGlobalVariableE@Base 0
 _ZN5SPIRV18LLVMToSPIRVDbgTran22transDbgSubroutineTypeEPKN4llvm16DISubroutineTypeE@Base 0
 _ZN5SPIRV18LLVMToSPIRVDbgTran22transDbgTemplateParamsEN4llvm24MDTupleTypedArrayWrapperINS1_19DITemplateParameterEEEPKNS_10SPIRVEntryE@Base 0
 _ZN5SPIRV18LLVMToSPIRVDbgTran23transDbgCompilationUnitEPKN4llvm13DICompileUnitE@Base 0
 _ZN5SPIRV18LLVMToSPIRVDbgTran25transDbgTemplateParameterEPKN4llvm19DITemplateParameterE@Base 0
 _ZN5SPIRV18LLVMToSPIRVDbgTran27createDebugValuePlaceholderEPKN4llvm20DbgVariableIntrinsicEPNS_15SPIRVBasicBlockE@Base 0
 _ZN5SPIRV18LLVMToSPIRVDbgTran29createDebugDeclarePlaceholderEPKN4llvm20DbgVariableIntrinsicEPNS_15SPIRVBasicBlockE@Base 0
 _ZN5SPIRV18LLVMToSPIRVDbgTran29transDbgTemplateParameterPackEPKN4llvm24DITemplateValueParameterE@Base 0
 _ZN5SPIRV18LLVMToSPIRVDbgTran33transDbgTemplateTemplateParameterEPKN4llvm24DITemplateValueParameterE@Base 0
 _ZN5SPIRV18LLVMToSPIRVDbgTran8getScopeEPN4llvm7DIScopeE@Base 0
 (optional=templinst)_ZN5SPIRV18LLVMToSPIRVDbgTran9getSourceIN4llvm12DISubprogramEEEPNS_12SPIRVExtInstEPKT_@Base 0
 (optional=templinst)_ZN5SPIRV18LLVMToSPIRVDbgTran9getSourceIN4llvm13DICompileUnitEEEPNS_12SPIRVExtInstEPKT_@Base 0
 (optional=templinst)_ZN5SPIRV18LLVMToSPIRVDbgTran9getSourceIN4llvm13DIDerivedTypeEEEPNS_12SPIRVExtInstEPKT_@Base 0
 (optional=templinst)_ZN5SPIRV18LLVMToSPIRVDbgTran9getSourceIN4llvm15DICompositeTypeEEEPNS_12SPIRVExtInstEPKT_@Base 0
 (optional=templinst)_ZN5SPIRV18LLVMToSPIRVDbgTran9getSourceIN4llvm16DIGlobalVariableEEEPNS_12SPIRVExtInstEPKT_@Base 0
 (optional=templinst)_ZN5SPIRV18LLVMToSPIRVDbgTran9getSourceIN4llvm6DIFileEEEPNS_12SPIRVExtInstEPKT_@Base 0
 (optional=templinst)_ZN5SPIRV18LLVMToSPIRVDbgTran9getSourceIN4llvm7DIScopeEEEPNS_12SPIRVExtInstEPKT_@Base 0
 _ZN5SPIRV18LLVMToSPIRVDbgTran9getVoidTyEv@Base 0
 _ZN5SPIRV18OCLTypeToSPIRVBase13adaptFunctionEPN4llvm8FunctionE@Base 13
#MISSING: 15# _ZN5SPIRV18OCLTypeToSPIRVBase14addAdaptedTypeEPN4llvm5ValueEPNS1_4TypeE@Base 13
 _ZN5SPIRV18OCLTypeToSPIRVBase14addAdaptedTypeEPN4llvm5ValueEPNS1_4TypeEj@Base 15
#MISSING: 15# _ZN5SPIRV18OCLTypeToSPIRVBase14getAdaptedTypeEPN4llvm5ValueE@Base 13
 _ZN5SPIRV18OCLTypeToSPIRVBase17runOCLTypeToSPIRVERN4llvm6ModuleE@Base 13
 _ZN5SPIRV18OCLTypeToSPIRVBase22adaptFunctionArgumentsEPN4llvm8FunctionE@Base 13
 _ZN5SPIRV18OCLTypeToSPIRVBase22getAdaptedArgumentTypeEPN4llvm8FunctionEj@Base 15
 _ZN5SPIRV18OCLTypeToSPIRVBase24adaptArgumentsByMetadataEPN4llvm8FunctionE@Base 13
 _ZN5SPIRV18OCLTypeToSPIRVBase26adaptArgumentsBySamplerUseERN4llvm6ModuleE@Base 13
 _ZN5SPIRV18OCLTypeToSPIRVBase7addWorkEPN4llvm8FunctionE@Base 13
 _ZN5SPIRV18OCLTypeToSPIRVBaseC1Ev@Base 13
 _ZN5SPIRV18OCLTypeToSPIRVBaseC2Ev@Base 13
 _ZN5SPIRV18OCLTypeToSPIRVPass3KeyE@Base 15
 _ZN5SPIRV18OCLTypeToSPIRVPass3runERN4llvm6ModuleERNS1_15AnalysisManagerIS2_JEEE@Base 13
 _ZN5SPIRV18SPIRVExecutionMode6decodeERSi@Base 0
 _ZN5SPIRV18SPIRVExtInstImport6decodeERSi@Base 0
 _ZN5SPIRV18SPIRVExtInstImportC1EPNS_11SPIRVModuleEjRKNSt7__cxx1112basic_stringIcSt11char_traitsIcESaIcEEE@Base 0
 _ZN5SPIRV18SPIRVExtInstImportC2EPNS_11SPIRVModuleEjRKNSt7__cxx1112basic_stringIcSt11char_traitsIcESaIcEEE@Base 0
 _ZN5SPIRV18SPIRVGroupDecorate15decorateTargetsEv@Base 0
 _ZN5SPIRV18SPIRVImageInstBase10setOpWordsERKSt6vectorIjSaIjEE@Base 15
 _ZN5SPIRV18SPIRVLowerBoolBase10isBoolTypeEPN4llvm4TypeE@Base 15
 _ZN5SPIRV18SPIRVLowerBoolBase12runLowerBoolERN4llvm6ModuleE@Base 15
 _ZN5SPIRV18SPIRVLowerBoolBase13visitSExtInstERN4llvm8SExtInstE@Base 15
 _ZN5SPIRV18SPIRVLowerBoolBase13visitZExtInstERN4llvm8ZExtInstE@Base 15
 _ZN5SPIRV18SPIRVLowerBoolBase14visitTruncInstERN4llvm9TruncInstE@Base 15
 _ZN5SPIRV18SPIRVLowerBoolBase15visitSIToFPInstERN4llvm10SIToFPInstE@Base 15
 _ZN5SPIRV18SPIRVLowerBoolBase15visitUIToFPInstERN4llvm10UIToFPInstE@Base 15
 _ZN5SPIRV18SPIRVLowerBoolBase21handleExtInstructionsERN4llvm11InstructionE@Base 15
 _ZN5SPIRV18SPIRVLowerBoolBase22handleCastInstructionsERN4llvm11InstructionE@Base 15
 _ZN5SPIRV18SPIRVLowerBoolBase7replaceEPN4llvm11InstructionES3_@Base 15
 _ZN5SPIRV18SPIRVLowerBoolPass3runERN4llvm6ModuleERNS1_15AnalysisManagerIS2_JEEE@Base 15
 _ZN5SPIRV18SPIRVToLLVMDbgTran10getDbgInstEj@Base 0
 _ZN5SPIRV18SPIRVToLLVMDbgTran11transModuleEPKNS_12SPIRVExtInstE@Base 13
 _ZN5SPIRV18SPIRVToLLVMDbgTran12transDbgInfoEPKNS_10SPIRVValueEPN4llvm5ValueE@Base 0
 _ZN5SPIRV18SPIRVToLLVMDbgTran12transTypedefEPKNS_12SPIRVExtInstE@Base 0
 _ZN5SPIRV18SPIRVToLLVMDbgTran13ParseChecksumEN4llvm9StringRefE@Base 13
 _ZN5SPIRV18SPIRVToLLVMDbgTran13SplitFileNameC1ERKNSt7__cxx1112basic_stringIcSt11char_traitsIcESaIcEEE@Base 0
 _ZN5SPIRV18SPIRVToLLVMDbgTran13SplitFileNameC2ERKNSt7__cxx1112basic_stringIcSt11char_traitsIcESaIcEEE@Base 0
 _ZN5SPIRV18SPIRVToLLVMDbgTran13transFunctionEPKNS_12SPIRVExtInstE@Base 0
 _ZN5SPIRV18SPIRVToLLVMDbgTran13transTemplateEPKNS_12SPIRVExtInstE@Base 0
 _ZN5SPIRV18SPIRVToLLVMDbgTran13transTypeEnumEPKNS_12SPIRVExtInstE@Base 0
 _ZN5SPIRV18SPIRVToLLVMDbgTran14transTypeArrayEPKNS_12SPIRVExtInstE@Base 0
 _ZN5SPIRV18SPIRVToLLVMDbgTran14transTypeBasicEPKNS_12SPIRVExtInstE@Base 0
 _ZN5SPIRV18SPIRVToLLVMDbgTran15transDebugScopeEPKNS_16SPIRVInstructionE@Base 0
 _ZN5SPIRV18SPIRVToLLVMDbgTran15transExpressionEPKNS_12SPIRVExtInstE@Base 0
 _ZN5SPIRV18SPIRVToLLVMDbgTran15transTypeMemberEPKNS_12SPIRVExtInstE@Base 0
 _ZN5SPIRV18SPIRVToLLVMDbgTran15transTypeVectorEPKNS_12SPIRVExtInstE@Base 0
 _ZN5SPIRV18SPIRVToLLVMDbgTran16transCompileUnitEPKNS_12SPIRVExtInstE@Base 0
 _ZN5SPIRV18SPIRVToLLVMDbgTran16transInheritanceEPKNS_12SPIRVExtInstE@Base 0
 _ZN5SPIRV18SPIRVToLLVMDbgTran16transTypePointerEPKNS_12SPIRVExtInstE@Base 0
 _ZN5SPIRV18SPIRVToLLVMDbgTran17addDbgInfoVersionEv@Base 0
 _ZN5SPIRV18SPIRVToLLVMDbgTran17transDebugInlinedEPKNS_12SPIRVExtInstE@Base 0
 _ZN5SPIRV18SPIRVToLLVMDbgTran17transFunctionDeclEPKNS_12SPIRVExtInstE@Base 0
 _ZN5SPIRV18SPIRVToLLVMDbgTran17transLexicalBlockEPKNS_12SPIRVExtInstE@Base 0
 _ZN5SPIRV18SPIRVToLLVMDbgTran17transTypeFunctionEPKNS_12SPIRVExtInstE@Base 0
 _ZN5SPIRV18SPIRVToLLVMDbgTran18findModuleProducerB5cxx11Ev@Base 12
 _ZN5SPIRV18SPIRVToLLVMDbgTran18transDebugInstImplEPKNS_12SPIRVExtInstE@Base 0
 _ZN5SPIRV18SPIRVToLLVMDbgTran18transImportedEntryEPKNS_12SPIRVExtInstE@Base 0
 _ZN5SPIRV18SPIRVToLLVMDbgTran18transLocalVariableEPKNS_12SPIRVExtInstE@Base 0
 _ZN5SPIRV18SPIRVToLLVMDbgTran18transTypeCompositeEPKNS_12SPIRVExtInstE@Base 0
 _ZN5SPIRV18SPIRVToLLVMDbgTran18transTypeQualifierEPKNS_12SPIRVExtInstE@Base 0
 _ZN5SPIRV18SPIRVToLLVMDbgTran19transDebugIntrinsicEPKNS_12SPIRVExtInstEPN4llvm10BasicBlockE@Base 0
 _ZN5SPIRV18SPIRVToLLVMDbgTran19transGlobalVariableEPKNS_12SPIRVExtInstE@Base 0
 _ZN5SPIRV18SPIRVToLLVMDbgTran20transTypePtrToMemberEPKNS_12SPIRVExtInstE@Base 0
 _ZN5SPIRV18SPIRVToLLVMDbgTran22transTemplateParameterEPKNS_12SPIRVExtInstE@Base 0
 _ZN5SPIRV18SPIRVToLLVMDbgTran26transTemplateParameterPackEPKNS_12SPIRVExtInstE@Base 0
 _ZN5SPIRV18SPIRVToLLVMDbgTran30transLexicalBlockDiscriminatorEPKNS_12SPIRVExtInstE@Base 0
 _ZN5SPIRV18SPIRVToLLVMDbgTran30transTemplateTemplateParameterEPKNS_12SPIRVExtInstE@Base 0
 _ZN5SPIRV18SPIRVToLLVMDbgTran7getFileEj@Base 0
 _ZN5SPIRV18SPIRVToLLVMDbgTran8finalizeEv@Base 0
 _ZN5SPIRV18SPIRVToLLVMDbgTran8getScopeEPKNS_10SPIRVEntryE@Base 0
 _ZN5SPIRV18SPIRVToLLVMDbgTran9getDIFileERKNSt7__cxx1112basic_stringIcSt11char_traitsIcESaIcEEEN4llvm8OptionalINS9_6DIFile12ChecksumInfoINS9_9StringRefEEEEE@Base 13
 _ZN5SPIRV18SPIRVToLLVMDbgTran9getStringB5cxx11Ej@Base 0
 _ZN5SPIRV18SPIRVToLLVMDbgTranC1EPNS_11SPIRVModuleEPN4llvm6ModuleEPNS_11SPIRVToLLVME@Base 0
 _ZN5SPIRV18SPIRVToLLVMDbgTranC2EPNS_11SPIRVModuleEPN4llvm6ModuleEPNS_11SPIRVToLLVME@Base 0
 _ZN5SPIRV18SPIRVToOCL12Legacy11runOnModuleERN4llvm6ModuleE@Base 13
 _ZN5SPIRV18SPIRVToOCL12Legacy2IDE@Base 13
 _ZN5SPIRV18SPIRVToOCL20Legacy11runOnModuleERN4llvm6ModuleE@Base 13
 _ZN5SPIRV18SPIRVToOCL20Legacy2IDE@Base 13
 _ZN5SPIRV18SPIRVUseTextFormatE@Base 0
 _ZN5SPIRV18getAccessQualifierEN4llvm9StringRefE@Base 0
 _ZN5SPIRV18getArgAsDecorationEPN4llvm8CallInstEj@Base 0
 _ZN5SPIRV18getMDOperandAsTypeEPN4llvm6MDNodeEj@Base 0
 _ZN5SPIRV18getMDOperandOrNullEPN4llvm6MDNodeEj@Base 0
 _ZN5SPIRV18getOCLClkEventTypeEPN4llvm6ModuleE@Base 0
#MISSING: 15# _ZN5SPIRV18getPipeStorageTypeEPN4llvm6ModuleE@Base 0
 _ZN5SPIRV18getSPIRVFuncSuffixB5cxx11EPNS_16SPIRVInstructionE@Base 12
 _ZN5SPIRV18getVoidFuncPtrTypeEPN4llvm6ModuleEj@Base 0
#MISSING: 15# _ZN5SPIRV18isSPIRVSamplerTypeEPN4llvm4TypeE@Base 14
 _ZN5SPIRV18isSYCLBfloat16TypeEPN4llvm4TypeE@Base 15
 _ZN5SPIRV19SPIRVMemberDecorate12setWordCountEj@Base 0
 _ZN5SPIRV19SPIRVMemberDecorate6decodeERSi@Base 0
 _ZN5SPIRV19adaptSPIRVImageTypeEPN4llvm6ModuleEPNS0_4TypeE@Base 15
 _ZN5SPIRV19decodeSPIRVTypeNameEN4llvm9StringRefERNS0_15SmallVectorImplINSt7__cxx1112basic_stringIcSt11char_traitsIcESaIcEEEEE@Base 13
 _ZN5SPIRV19getOrCreateFunctionEPN4llvm6ModuleEPNS0_4TypeENS0_8ArrayRefIS4_EENS0_9StringRefEPNS_21BuiltinFuncMangleInfoEPNS0_13AttributeListEb@Base 0
 _ZN5SPIRV19getSPIRVExtFuncNameB5cxx11ENS_19SPIRVExtInstSetKindEjN4llvm9StringRefE@Base 0
 _ZN5SPIRV19isMangledTypeSignedEc@Base 0
 _ZN5SPIRV19isSPIRVConstantNameEN4llvm9StringRefE@Base 0
 (optional=templinst)_ZN5SPIRV19mutateCallInstSPIRVEPN4llvm6ModuleEPNS0_8CallInstESt8functionIFNSt7__cxx1112basic_stringIcSt11char_traitsIcESaIcEEES4_RSt6vectorIPNS0_5ValueESaISE_EEEEPNS0_13AttributeListE@Base 0
 (optional=templinst)_ZN5SPIRV19mutateCallInstSPIRVEPN4llvm6ModuleEPNS0_8CallInstESt8functionIFNSt7__cxx1112basic_stringIcSt11char_traitsIcESaIcEEES4_RSt6vectorIPNS0_5ValueESaISE_EERPNS0_4TypeEEES5_IFPNS0_11InstructionES4_EEPNS0_13AttributeListE@Base 0
 _ZN5SPIRV19setAttrByCalledFuncEPN4llvm8CallInstE@Base 13
 _ZN5SPIRV20OCLTypeToSPIRVLegacy11runOnModuleERN4llvm6ModuleE@Base 13
 _ZN5SPIRV20OCLTypeToSPIRVLegacy2IDE@Base 13
 _ZN5SPIRV20OCLTypeToSPIRVLegacyC1Ev@Base 13
 _ZN5SPIRV20OCLTypeToSPIRVLegacyC2Ev@Base 13
 _ZN5SPIRV20SPIRVDecorateGenericC1EN3spv2OpE@Base 0
 _ZN5SPIRV20SPIRVDecorateGenericC1EN3spv2OpEjNS1_10DecorationEPNS_10SPIRVEntryE@Base 0
 _ZN5SPIRV20SPIRVDecorateGenericC1EN3spv2OpEjNS1_10DecorationEPNS_10SPIRVEntryEj@Base 0
 _ZN5SPIRV20SPIRVDecorateGenericC1EN3spv2OpEjNS1_10DecorationEPNS_10SPIRVEntryEjj@Base 0
 _ZN5SPIRV20SPIRVDecorateGenericC2EN3spv2OpE@Base 0
 _ZN5SPIRV20SPIRVDecorateGenericC2EN3spv2OpEjNS1_10DecorationEPNS_10SPIRVEntryE@Base 0
 _ZN5SPIRV20SPIRVDecorateGenericC2EN3spv2OpEjNS1_10DecorationEPNS_10SPIRVEntryEj@Base 0
 _ZN5SPIRV20SPIRVDecorateGenericC2EN3spv2OpEjNS1_10DecorationEPNS_10SPIRVEntryEjj@Base 0
 _ZN5SPIRV20SPIRVDecorationGroup6decodeERSi@Base 0
 _ZN5SPIRV20SPIRVLowerBoolLegacy11runOnModuleERN4llvm6ModuleE@Base 15
 _ZN5SPIRV20SPIRVLowerBoolLegacy2IDE@Base 13
 _ZN5SPIRV20SPIRVLowerBoolLegacyC1Ev@Base 15
 _ZN5SPIRV20SPIRVLowerBoolLegacyC2Ev@Base 15
 _ZN5SPIRV20SPIRVModuleProcessed13getProcessStrB5cxx11Ev@Base 12
 _ZN5SPIRV20SPIRVModuleProcessed6decodeERSi@Base 12
 _ZN5SPIRV20SPIRVSourceExtension6decodeERSi@Base 0
 _ZN5SPIRV20SPIRVSourceExtensionC1EPNS_11SPIRVModuleERKNSt7__cxx1112basic_stringIcSt11char_traitsIcESaIcEEE@Base 0
 _ZN5SPIRV20SPIRVSourceExtensionC2EPNS_11SPIRVModuleERKNSt7__cxx1112basic_stringIcSt11char_traitsIcESaIcEEE@Base 0
 _ZN5SPIRV20getImageBaseTypeNameB5cxx11EN4llvm9StringRefE@Base 0
 _ZN5SPIRV20getMDOperandAsMDNodeEPN4llvm6MDNodeEj@Base 0
#MISSING: 15# _ZN5SPIRV20getMDOperandAsStringB5cxx11EPN4llvm6MDNodeEj@Base 0
 _ZN5SPIRV20getMDOperandAsStringEPN4llvm6MDNodeEj@Base 15
 _ZN5SPIRV20getSamplerStructTypeEPN4llvm6ModuleE@Base 15
 _ZN5SPIRV20isDecoratedSPIRVFuncEPKN4llvm8FunctionERNS0_9StringRefE@Base 0
 _ZN5SPIRV20isOCLImageStructTypeEPN4llvm4TypeEPNS0_9StringRefE@Base 15
#MISSING: 15# _ZN5SPIRV20mapLLVMTypeToOCLTypeB5cxx11EPKN4llvm4TypeEb@Base 0
 _ZN5SPIRV20mapLLVMTypeToOCLTypeB5cxx11EPKN4llvm4TypeEbPS1_@Base 15
 _ZN5SPIRV20mapPostfixToDecorateEN4llvm9StringRefEPNS_10SPIRVEntryE@Base 0
 _ZN5SPIRV21BuiltinFuncMangleInfo23fillPointerElementTypesEN4llvm8ArrayRefINS1_14PointerIntPairIPNS1_4TypeELj1EbNS1_21PointerLikeTypeTraitsIS5_EENS1_18PointerIntPairInfoIS5_Lj1ES7_EEEEEE@Base 15
 _ZN5SPIRV21SPIRVLowerMemmoveBase15runLowerMemmoveERN4llvm6ModuleE@Base 15
 _ZN5SPIRV21SPIRVLowerMemmoveBase16LowerMemMoveInstERN4llvm11MemMoveInstE@Base 15
 _ZN5SPIRV21SPIRVLowerMemmoveBase26expandMemMoveIntrinsicUsesERN4llvm8FunctionE@Base 15
 _ZN5SPIRV21SPIRVLowerMemmovePass3runERN4llvm6ModuleERNS1_15AnalysisManagerIS2_JEEE@Base 15
 _ZN5SPIRV21decorateSPIRVFunctionERKNSt7__cxx1112basic_stringIcSt11char_traitsIcESaIcEEE@Base 0
 _ZN5SPIRV21eraseUselessFunctionsEPN4llvm6ModuleE@Base 0
#MISSING: 15# _ZN5SPIRV21getBankBitsFromStringEN4llvm9StringRefE@Base 0
 _ZN5SPIRV21getNamedMDAsStringSetEPN4llvm6ModuleERKNSt7__cxx1112basic_stringIcSt11char_traitsIcESaIcEEE@Base 0
 _ZN5SPIRV21getOCLClkEventPtrTypeEPN4llvm6ModuleE@Base 0
 _ZN5SPIRV21getOCLNullClkEventPtrEPN4llvm6ModuleE@Base 0
 _ZN5SPIRV21getSPIRVOpaquePtrTypeEPN4llvm6ModuleEN3spv2OpE@Base 13
#MISSING: 15# _ZN5SPIRV21hasFunctionPointerArgEPN4llvm8FunctionERPNS0_8ArgumentE@Base 0
#MISSING: 15# _ZN5SPIRV21isFunctionPointerTypeEPN4llvm4TypeE@Base 0
 _ZN5SPIRV21isLastFuncParamSignedEN4llvm9StringRefE@Base 0
 _ZN5SPIRV21isMangledTypeUnsignedEc@Base 0
 _ZN5SPIRV21mapOCLTypeNameToSPIRVB5cxx11EN4llvm9StringRefES1_@Base 0
 _ZN5SPIRV21mapSPIRVTypeToOCLTypeB5cxx11EPNS_9SPIRVTypeEb@Base 0
 _ZN5SPIRV22PreprocessMetadataBase21preprocessOCLMetadataEPN4llvm6ModuleEPNS_14SPIRVMDBuilderEPNS_13SPIRVMDWalkerE@Base 13
 _ZN5SPIRV22PreprocessMetadataBase21runPreprocessMetadataERN4llvm6ModuleE@Base 13
 _ZN5SPIRV22PreprocessMetadataBase25preprocessCXXStructorListERNS_14SPIRVMDBuilder14NamedMDWrapperEPN4llvm14GlobalVariableEN3spv13ExecutionModeE@Base 13
 _ZN5SPIRV22PreprocessMetadataBase31preprocessVectorComputeMetadataEPN4llvm6ModuleEPNS_14SPIRVMDBuilderEPNS_13SPIRVMDWalkerE@Base 13
 _ZN5SPIRV22PreprocessMetadataBase5visitEPN4llvm6ModuleE@Base 13
 _ZN5SPIRV22PreprocessMetadataPass3runERN4llvm6ModuleERNS1_15AnalysisManagerIS2_JEEE@Base 13
 _ZN5SPIRV22SPIRVFunctionParameter11foreachAttrESt8functionIFvN3spv26FunctionParameterAttributeEEE@Base 0
 _ZN5SPIRV22SPIRVFunctionParameterC1EPNS_9SPIRVTypeEjPNS_13SPIRVFunctionEj@Base 0
 _ZN5SPIRV22SPIRVFunctionParameterC2EPNS_9SPIRVTypeEjPNS_13SPIRVFunctionEj@Base 0
 _ZN5SPIRV22getBankBitsFromStringsERKSt6vectorINSt7__cxx1112basic_stringIcSt11char_traitsIcESaIcEEESaIS6_EE@Base 15
 _ZN5SPIRV22hasAccessQualifiedNameEN4llvm9StringRefE@Base 0
 _ZN5SPIRV22isNonMangledOCLBuiltinEN4llvm9StringRefE@Base 0
 _ZN5SPIRV22isSPIRVBuiltinVariableEPN4llvm14GlobalVariableEPN3spv7BuiltInE@Base 13
 _ZN5SPIRV22transAliasingMemAccessEPNS_11SPIRVModuleEPN4llvm6MDNodeERSt6vectorIjSaIjEEj@Base 13
 _ZN5SPIRV23SPIRVLowerConstExprBase17runLowerConstExprERN4llvm6ModuleE@Base 13
 _ZN5SPIRV23SPIRVLowerConstExprBase5visitEPN4llvm6ModuleE@Base 13
 _ZN5SPIRV23SPIRVLowerMemmoveLegacy11runOnModuleERN4llvm6ModuleE@Base 15
 _ZN5SPIRV23SPIRVLowerMemmoveLegacy2IDE@Base 13
 _ZN5SPIRV23SPIRVLowerMemmoveLegacyC1Ev@Base 15
 _ZN5SPIRV23SPIRVLowerMemmoveLegacyC2Ev@Base 15
 _ZN5SPIRV23SPIRVLowerOCLBlocksBase17runLowerOCLBlocksERN4llvm6ModuleE@Base 15
 _ZN5SPIRV23SPIRVLowerOCLBlocksPass3runERN4llvm6ModuleERNS1_15AnalysisManagerIS2_JEEE@Base 15
 _ZN5SPIRV23SPIRVRegularizeLLVMBase10regularizeEv@Base 13
#MISSING: 15# _ZN5SPIRV23SPIRVRegularizeLLVMBase12lowerFuncPtrEPN4llvm6ModuleE@Base 13
#MISSING: 15# _ZN5SPIRV23SPIRVRegularizeLLVMBase12lowerFuncPtrEPN4llvm8FunctionEN3spv2OpE@Base 13
 _ZN5SPIRV23SPIRVRegularizeLLVMBase16adaptStructTypesEPN4llvm10StructTypeE@Base 14
 _ZN5SPIRV23SPIRVRegularizeLLVMBase16lowerFunnelShiftEPN4llvm13IntrinsicInstE@Base 13
 _ZN5SPIRV23SPIRVRegularizeLLVMBase17runRegularizeLLVMERN4llvm6ModuleE@Base 13
 _ZN5SPIRV23SPIRVRegularizeLLVMBase19addKernelEntryPointEPN4llvm6ModuleE@Base 14
#MISSING: 15# _ZN5SPIRV23SPIRVRegularizeLLVMBase19expandSYCLHalfUsingEPN4llvm6ModuleE@Base 14
 _ZN5SPIRV23SPIRVRegularizeLLVMBase19expandSYCLTypeUsingEPN4llvm6ModuleE@Base 15
 _ZN5SPIRV23SPIRVRegularizeLLVMBase20extendBitInstBoolArgEPN4llvm11InstructionE@Base 15
 _ZN5SPIRV23SPIRVRegularizeLLVMBase21lowerUMulWithOverflowEPN4llvm13IntrinsicInstE@Base 13
 _ZN5SPIRV23SPIRVRegularizeLLVMBase22lowerLLVMIntrinsicNameB5cxx11EPN4llvm13IntrinsicInstE@Base 13
 _ZN5SPIRV23SPIRVRegularizeLLVMBase24lowerIntrinsicToFunctionEPN4llvm13IntrinsicInstE@Base 14
 _ZN5SPIRV23SPIRVRegularizeLLVMBase25buildUMulWithOverflowFuncEPN4llvm8FunctionE@Base 13
#MISSING: 15# _ZN5SPIRV23SPIRVRegularizeLLVMBase28expandVEDWithSYCLHalfSRetArgEPN4llvm8FunctionE@Base 14
 _ZN5SPIRV23SPIRVRegularizeLLVMBase28expandVEDWithSYCLTypeSRetArgEPN4llvm8FunctionE@Base 15
#MISSING: 15# _ZN5SPIRV23SPIRVRegularizeLLVMBase30expandVIDWithSYCLHalfByValCompEPN4llvm8FunctionE@Base 14
 _ZN5SPIRV23SPIRVRegularizeLLVMBase30expandVIDWithSYCLTypeByValCompEPN4llvm8FunctionE@Base 15
 _ZN5SPIRV23SPIRVTypeForwardPointer6decodeERSi@Base 0
 _ZN5SPIRV23addSPIRVBIsLoweringPassERN4llvm11PassManagerINS0_6ModuleENS0_15AnalysisManagerIS2_JEEEJEEENS_17BIsRepresentationE@Base 15
 _ZN5SPIRV23getOCLTypePrimitiveEnumEN4llvm9StringRefE@Base 0
#MISSING: 15# _ZN5SPIRV23getPostfixForReturnTypeB5cxx11EPKN4llvm4TypeEb@Base 0
 _ZN5SPIRV23getPostfixForReturnTypeB5cxx11EPKN4llvm4TypeEbPS1_@Base 15
 _ZN5SPIRV23getPostfixForReturnTypeB5cxx11EPN4llvm8CallInstEb@Base 0
 _ZN5SPIRV23isUniformGroupOperationEPN4llvm8FunctionE@Base 15
#MISSING: 15# _ZN5SPIRV23lowerBitCastToNonStdVecEPN4llvm11InstructionEPNS0_5ValueEPKNS0_10VectorTypeERSt6vectorIS2_SaIS2_EERNS0_9IRBuilderINS0_14ConstantFolderENS0_24IRBuilderDefaultInserterEEEj@Base 13
 _ZN5SPIRV23processAnnotationStringEPN4llvm13IntrinsicInstERNSt7__cxx1112basic_stringIcSt11char_traitsIcESaIcEEE@Base 14
 _ZN5SPIRV23undecorateSPIRVFunctionEN4llvm9StringRefE@Base 0
 _ZN5SPIRV24PreprocessMetadataLegacy11runOnModuleERN4llvm6ModuleE@Base 13
 _ZN5SPIRV24PreprocessMetadataLegacy2IDE@Base 13
 _ZN5SPIRV24SPIRVEnableStepExpansionE@Base 0
 _ZN5SPIRV24SPIRVGroupMemberDecorate15decorateTargetsEv@Base 0
#MISSING: 15# _ZN5SPIRV24addAnnotationDecorationsEPNS_10SPIRVEntryERSt6vectorISt4pairIN3spv10DecorationENSt7__cxx1112basic_stringIcSt11char_traitsIcESaIcEEEESaISC_EE@Base 14
 _ZN5SPIRV24addAnnotationDecorationsEPNS_10SPIRVEntryERSt6vectorISt4pairIN3spv10DecorationES2_INSt7__cxx1112basic_stringIcSt11char_traitsIcESaIcEEESaISB_EEESaISE_EE@Base 15
 _ZN5SPIRV24createSpecConstantOpInstEPNS_16SPIRVInstructionE@Base 0
 _ZN5SPIRV24getOrCreateOpaquePtrTypeEPN4llvm6ModuleERKNSt7__cxx1112basic_stringIcSt11char_traitsIcESaIcEEEj@Base 0
#MISSING: 15# _ZN5SPIRV24getSPIRVImageTypeFromOCLEPN4llvm6ModuleEPNS0_4TypeE@Base 0
 _ZN5SPIRV24tryParseAnnotationStringEPNS_11SPIRVModuleEN4llvm9StringRefE@Base 14
 _ZN5SPIRV24verifyRegularizationPassERN4llvm6ModuleERKNSt7__cxx1112basic_stringIcSt11char_traitsIcESaIcEEE@Base 12
 _ZN5SPIRV25SPIRVGroupDecorateGeneric6decodeERSi@Base 0
 _ZN5SPIRV25SPIRVLowerConstExprLegacy2IDE@Base 13
 _ZN5SPIRV25SPIRVLowerOCLBlocksLegacy2IDE@Base 15
 _ZN5SPIRV25SPIRVRegularizeLLVMLegacy11runOnModuleERN4llvm6ModuleE@Base 13
 _ZN5SPIRV25SPIRVRegularizeLLVMLegacy2IDE@Base 13
 _ZN5SPIRV25SPIRVTypeJointMatrixINTEL6decodeERSi@Base 14
#MISSING: 15# _ZN5SPIRV25SPIRVTypeJointMatrixINTELC1EPNS_11SPIRVModuleEjPNS_9SPIRVTypeEPNS_10SPIRVValueES6_S6_S6_@Base 14
 _ZN5SPIRV25SPIRVTypeJointMatrixINTELC1EPNS_11SPIRVModuleEjPNS_9SPIRVTypeESt6vectorIPNS_10SPIRVValueESaIS7_EE@Base 15
 _ZN5SPIRV25SPIRVTypeJointMatrixINTELC1Ev@Base 14
#MISSING: 15# _ZN5SPIRV25SPIRVTypeJointMatrixINTELC2EPNS_11SPIRVModuleEjPNS_9SPIRVTypeEPNS_10SPIRVValueES6_S6_S6_@Base 14
 _ZN5SPIRV25SPIRVTypeJointMatrixINTELC2EPNS_11SPIRVModuleEjPNS_9SPIRVTypeESt6vectorIPNS_10SPIRVValueESaIS7_EE@Base 15
 _ZN5SPIRV25SPIRVTypeJointMatrixINTELC2Ev@Base 14
 _ZN5SPIRV25getAccessQualifierPostfixEN3spv15AccessQualifierE@Base 0
 _ZN5SPIRV25isSpecConstantOpAllowedOpEN3spv2OpE@Base 0
#MISSING: 15# _ZN5SPIRV26SPIRVLowerSPIRBlocksLegacy2IDE@Base 13
 _ZN5SPIRV26VerifyRegularizationPassesE@Base 12
 _ZN5SPIRV26containsUnsignedAtomicTypeEN4llvm9StringRefE@Base 0
 _ZN5SPIRV26getAccessQualifierFullNameEN4llvm9StringRefE@Base 0
 _ZN5SPIRV26getSPIRVImageTypePostfixesB5cxx11EN4llvm9StringRefENS_24SPIRVTypeImageDescriptorEN3spv15AccessQualifierE@Base 0
 _ZN5SPIRV26lowerBuiltinVariableToCallEPN4llvm14GlobalVariableEN3spv7BuiltInE@Base 13
 (optional=templinst)_ZN5SPIRV27SPIRVContinuedInstINTELBaseILN3spv2OpE6090EE6decodeERSi@Base 12
 (optional=templinst)_ZN5SPIRV27SPIRVContinuedInstINTELBaseILN3spv2OpE6091EE6decodeERSi@Base 12
 (optional=templinst)_ZN5SPIRV27SPIRVContinuedInstINTELBaseILN3spv2OpE6092EE6decodeERSi@Base 12
 _ZN5SPIRV27generateIntelFPGAAnnotationEPKNS_10SPIRVEntryERN4llvm11SmallStringILj256EEE@Base 0
 _ZN5SPIRV27getOrCreateOpaqueStructTypeEPN4llvm6ModuleENS0_9StringRefE@Base 15
 (subst)_ZN5SPIRV27getScalarOrArrayConstantIntEPN4llvm11InstructionEPNS0_4TypeEj{uint64_t}b@Base 0
#MISSING: 15# _ZN5SPIRV27isPointerToOpaqueStructTypeEPN4llvm4TypeE@Base 0
#MISSING: 15# _ZN5SPIRV27isPointerToOpaqueStructTypeEPN4llvm4TypeERKNSt7__cxx1112basic_stringIcSt11char_traitsIcESaIcEEE@Base 0
 _ZN5SPIRV28SPIRVLowerSaddIntrinsicsBase14replaceSaddSatERN4llvm8FunctionE@Base 15
 _ZN5SPIRV28SPIRVLowerSaddIntrinsicsBase19replaceSaddOverflowERN4llvm8FunctionE@Base 15
 _ZN5SPIRV28SPIRVLowerSaddIntrinsicsBase22runLowerSaddIntrinsicsERN4llvm6ModuleE@Base 15
 _ZN5SPIRV28SPIRVLowerSaddIntrinsicsPass3runERN4llvm6ModuleERNS1_15AnalysisManagerIS2_JEEE@Base 15
 _ZN5SPIRV28createInstFromSpecConstantOpEPNS_17SPIRVInstTemplateINS_23SPIRVSpecConstantOpBaseELN3spv2OpE52ELb1ELj4ELb1ELj0ELj4294967295ELj4294967295EEE@Base 14
 _ZN5SPIRV28getSPIRVImageSampledTypeNameB5cxx11EPNS_9SPIRVTypeE@Base 0
 (subst)_ZN5SPIRV28getScalarOrVectorConstantIntEPN4llvm4TypeE{uint64_t}b@Base 0
 _ZN5SPIRV28lowerBuiltinVariablesToCallsEPN4llvm6ModuleE@Base 13
 _ZN5SPIRV29SPIRVFunctionPointerCallINTELC1EjPNS_10SPIRVValueEPNS_9SPIRVTypeERKSt6vectorIjSaIjEEPNS_15SPIRVBasicBlockE@Base 0
 _ZN5SPIRV29SPIRVFunctionPointerCallINTELC2EjPNS_10SPIRVValueEPNS_9SPIRVTypeERKSt6vectorIjSaIjEEPNS_15SPIRVBasicBlockE@Base 0
 _ZN5SPIRV29getFunctionTypeParameterTypesEPN4llvm12FunctionTypeERSt6vectorIPNS0_4TypeESaIS5_EE@Base 0
 _ZN5SPIRV29processOptionalAnnotationInfoEPN4llvm8ConstantERNSt7__cxx1112basic_stringIcSt11char_traitsIcESaIcEEE@Base 14
 _ZN5SPIRV30SPIRVLowerSaddIntrinsicsLegacy11runOnModuleERN4llvm6ModuleE@Base 15
 _ZN5SPIRV30SPIRVLowerSaddIntrinsicsLegacy2IDE@Base 15
 _ZN5SPIRV30SPIRVLowerSaddIntrinsicsLegacyC1Ev@Base 15
 _ZN5SPIRV30SPIRVLowerSaddIntrinsicsLegacyC2Ev@Base 15
 _ZN5SPIRV30getSPIRVFriendlyIRFunctionNameB5cxx11EN9OpenCLLIB11EntrypointsEN4llvm8ArrayRefIPNS2_4TypeEEENS3_INS2_14PointerIntPairIS5_Lj1EbNS2_21PointerLikeTypeTraitsIS5_EENS2_18PointerIntPairInfoIS5_Lj1ES9_EEEEEES5_@Base 15
#MISSING: 15# _ZN5SPIRV30getSPIRVFriendlyIRFunctionNameB5cxx11EN9OpenCLLIB11EntrypointsEN4llvm8ArrayRefIPNS2_4TypeEEES5_@Base 12
#MISSING: 15# _ZN5SPIRV30getSPIRVFriendlyIRFunctionNameERKNSt7__cxx1112basic_stringIcSt11char_traitsIcESaIcEEEN3spv2OpEN4llvm8ArrayRefIPNSA_4TypeEEE@Base 12
 _ZN5SPIRV30getSPIRVFriendlyIRFunctionNameERKNSt7__cxx1112basic_stringIcSt11char_traitsIcESaIcEEEN3spv2OpEN4llvm8ArrayRefIPNSA_4TypeEEENSB_INSA_14PointerIntPairISD_Lj1EbNSA_21PointerLikeTypeTraitsISD_EENSA_18PointerIntPairInfoISD_Lj1ESH_EEEEEE@Base 15
 _ZN5SPIRV30transOCLMemScopeIntoSPIRVScopeEPN4llvm5ValueENS0_8OptionalIiEEPNS0_11InstructionE@Base 0
 _ZN5SPIRV31addMemAliasingINTELInstructionsEPNS_11SPIRVModuleEPN4llvm6MDNodeE@Base 13
#MISSING: 15# _ZN5SPIRV32SPIRVLowerSaddWithOverflowLegacy2IDE@Base 13
 _ZN5SPIRV32eraseSubstitutionFromMangledNameERNSt7__cxx1112basic_stringIcSt11char_traitsIcESaIcEEE@Base 0
 _ZN5SPIRV32getSPIRVTypeByChangeBaseTypeNameEPN4llvm6ModuleEPNS0_4TypeENS0_9StringRefES5_@Base 0
 _ZN5SPIRV33postProcessBuiltinReturningStructEPN4llvm8FunctionE@Base 13
 _ZN5SPIRV34SPIRVDbgErrorMsgIncludesSourceInfoE@Base 0
 _ZN5SPIRV34postProcessBuiltinsReturningStructEPN4llvm6ModuleEb@Base 13
 _ZN5SPIRV36addFuncPointerCallArgumentAttributesEPN4llvm8CallInstEPNS_10SPIRVValueE@Base 14
 _ZN5SPIRV36postProcessBuiltinWithArrayArgumentsEPN4llvm8FunctionENS0_9StringRefE@Base 13
 _ZN5SPIRV37checkTypeForSPIRVExtendedInstLoweringEPN4llvm13IntrinsicInstEPNS_11SPIRVModuleE@Base 0
 _ZN5SPIRV37postProcessBuiltinsWithArrayArgumentsEPN4llvm6ModuleEb@Base 13
 _ZN5SPIRV38SPIRVLowerBitCastToNonStandardTypePass3runERN4llvm8FunctionERNS1_15AnalysisManagerIS2_JEEE@Base 15
 _ZN5SPIRV38getSPIRVStructTypeByChangeBaseTypeNameEPN4llvm6ModuleEPNS0_4TypeENS0_9StringRefES5_@Base 15
#MISSING: 15# _ZN5SPIRV39addAnnotationDecorationsForStructMemberEPNS_10SPIRVEntryEjRSt6vectorISt4pairIN3spv10DecorationENSt7__cxx1112basic_stringIcSt11char_traitsIcESaIcEEEESaISC_EE@Base 14
 _ZN5SPIRV39addAnnotationDecorationsForStructMemberEPNS_10SPIRVEntryEjRSt6vectorISt4pairIN3spv10DecorationES2_INSt7__cxx1112basic_stringIcSt11char_traitsIcESaIcEEESaISB_EEESaISE_EE@Base 15
 _ZN5SPIRV39transSPIRVMemoryScopeIntoOCLMemoryScopeEPN4llvm5ValueEPNS0_11InstructionE@Base 0
 (optional=templinst)_ZN5SPIRV3mapIN3spv10CapabilityEN7OCLUtil6OclExt4KindEEESt3setIT_St4lessIS7_ESaIS7_EERKS6_IT0_S8_ISC_ESaISC_EE@Base 0
 (optional=templinst)_ZN5SPIRV3mapIN3spv14FPRoundingModeENSt7__cxx1112basic_stringIcSt11char_traitsIcESaIcEEEEET_T0_@Base 0
 (optional=templinst)_ZN5SPIRV3mapINS_24SPIRVTypeImageDescriptorENSt7__cxx1112basic_stringIcSt11char_traitsIcESaIcEEEEET_T0_@Base 0
 (optional=templinst)_ZN5SPIRV3mapINSt7__cxx1112basic_stringIcSt11char_traitsIcESaIcEEEN7OCLUtil6OclExt4KindEEESt3setIT_St4lessISB_ESaISB_EERKSA_IT0_SC_ISG_ESaISG_EE@Base 0
 _ZN5SPIRV40SPIRVLowerBitCastToNonStandardTypeLegacy13runOnFunctionERN4llvm8FunctionE@Base 15
 _ZN5SPIRV40SPIRVLowerBitCastToNonStandardTypeLegacy14doFinalizationERN4llvm6ModuleE@Base 15
 _ZN5SPIRV40SPIRVLowerBitCastToNonStandardTypeLegacy2IDE@Base 13
 _ZN5SPIRV40transOCLMemOrderIntoSPIRVMemorySemanticsEPN4llvm5ValueENS0_8OptionalIiEEPNS0_11InstructionE@Base 0
 _ZN5SPIRV42generateIntelFPGAAnnotationForStructMemberEPKNS_10SPIRVEntryEjRN4llvm11SmallStringILj256EEE@Base 0
 _ZN5SPIRV42getLLVMTypeForSPIRVImageSampledTypePostfixEN4llvm9StringRefERNS0_11LLVMContextE@Base 0
#MISSING: 15# _ZN5SPIRV42transFunctionPointerCallArgumentAttributesEPNS_10SPIRVValueEPN4llvm8CallInstE@Base 14
 _ZN5SPIRV43transSPIRVMemorySemanticsIntoOCLMemoryOrderEPN4llvm5ValueEPNS0_11InstructionE@Base 0
 _ZN5SPIRV45transSPIRVMemorySemanticsIntoOCLMemFenceFlagsEPN4llvm5ValueEPNS0_11InstructionE@Base 0
 (optional=templinst|arch=!armel !mips64el !mipsel)_ZN5SPIRV4rmapIN7OCLUtil6OclExt4KindEN3spv10CapabilityEPNS_15SPIRVCapabilityEEESt3setIT_St4lessIS9_ESaIS9_EERKSt3mapIT0_T1_SA_ISF_ESaISt4pairIKSF_SG_EEE@Base 0
 (optional=templinst)_ZN5SPIRV4rmapIN7OCLUtil6OclExt4KindENSt7__cxx1112basic_stringIcSt11char_traitsIcESaIcEEEEESt3setIT_St4lessISB_ESaISB_EERKSA_IT0_SC_ISG_ESaISG_EE@Base 0
 (optional=templinst|arch=armel armhf)_ZN5SPIRV6concatIiEENSt7__cxx1112basic_stringIcSt11char_traitsIcESaIcEEERKS6_RKT_@Base 0
 (optional=templinst)_ZN5SPIRV6concatIjEENSt7__cxx1112basic_stringIcSt11char_traitsIcESaIcEEERKS6_RKT_@Base 0
 (optional=templinst)_ZN5SPIRV6createINS_10SPIRVStoreEEEPNS_10SPIRVEntryEv@Base 0
 (optional=templinst)_ZN5SPIRV6createINS_10SPIRVUndefEEEPNS_10SPIRVEntryEv@Base 0
 (optional=templinst)_ZN5SPIRV6createINS_11SPIRVBranchEEEPNS_10SPIRVEntryEv@Base 0
 (optional=templinst)_ZN5SPIRV6createINS_11SPIRVSourceEEEPNS_10SPIRVEntryEv@Base 0
 (optional=templinst)_ZN5SPIRV6createINS_11SPIRVStringEEEPNS_10SPIRVEntryEv@Base 0
 (optional=templinst)_ZN5SPIRV6createINS_11SPIRVSwitchEEEPNS_10SPIRVEntryEv@Base 0
 (optional=templinst)_ZN5SPIRV6createINS_12SPIRVCmpInstILN3spv2OpE161EEEEEPNS_10SPIRVEntryEv@Base 0
 (optional=templinst)_ZN5SPIRV6createINS_12SPIRVCmpInstILN3spv2OpE162EEEEEPNS_10SPIRVEntryEv@Base 0
 (optional=templinst)_ZN5SPIRV6createINS_12SPIRVCmpInstILN3spv2OpE163EEEEEPNS_10SPIRVEntryEv@Base 0
 (optional=templinst)_ZN5SPIRV6createINS_12SPIRVCmpInstILN3spv2OpE170EEEEEPNS_10SPIRVEntryEv@Base 0
 (optional=templinst)_ZN5SPIRV6createINS_12SPIRVCmpInstILN3spv2OpE171EEEEEPNS_10SPIRVEntryEv@Base 0
 (optional=templinst)_ZN5SPIRV6createINS_12SPIRVCmpInstILN3spv2OpE172EEEEEPNS_10SPIRVEntryEv@Base 0
 (optional=templinst)_ZN5SPIRV6createINS_12SPIRVCmpInstILN3spv2OpE173EEEEEPNS_10SPIRVEntryEv@Base 0
 (optional=templinst)_ZN5SPIRV6createINS_12SPIRVCmpInstILN3spv2OpE174EEEEEPNS_10SPIRVEntryEv@Base 0
 (optional=templinst)_ZN5SPIRV6createINS_12SPIRVCmpInstILN3spv2OpE175EEEEEPNS_10SPIRVEntryEv@Base 0
 (optional=templinst)_ZN5SPIRV6createINS_12SPIRVCmpInstILN3spv2OpE176EEEEEPNS_10SPIRVEntryEv@Base 0
 (optional=templinst)_ZN5SPIRV6createINS_12SPIRVCmpInstILN3spv2OpE177EEEEEPNS_10SPIRVEntryEv@Base 0
 (optional=templinst)_ZN5SPIRV6createINS_12SPIRVCmpInstILN3spv2OpE178EEEEEPNS_10SPIRVEntryEv@Base 0
 (optional=templinst)_ZN5SPIRV6createINS_12SPIRVCmpInstILN3spv2OpE179EEEEEPNS_10SPIRVEntryEv@Base 0
 (optional=templinst)_ZN5SPIRV6createINS_12SPIRVCmpInstILN3spv2OpE180EEEEEPNS_10SPIRVEntryEv@Base 0
 (optional=templinst)_ZN5SPIRV6createINS_12SPIRVCmpInstILN3spv2OpE181EEEEEPNS_10SPIRVEntryEv@Base 0
 (optional=templinst)_ZN5SPIRV6createINS_12SPIRVCmpInstILN3spv2OpE182EEEEEPNS_10SPIRVEntryEv@Base 0
 (optional=templinst)_ZN5SPIRV6createINS_12SPIRVCmpInstILN3spv2OpE183EEEEEPNS_10SPIRVEntryEv@Base 0
 (optional=templinst)_ZN5SPIRV6createINS_12SPIRVCmpInstILN3spv2OpE184EEEEEPNS_10SPIRVEntryEv@Base 0
 (optional=templinst)_ZN5SPIRV6createINS_12SPIRVCmpInstILN3spv2OpE185EEEEEPNS_10SPIRVEntryEv@Base 0
 (optional=templinst)_ZN5SPIRV6createINS_12SPIRVCmpInstILN3spv2OpE186EEEEEPNS_10SPIRVEntryEv@Base 0
 (optional=templinst)_ZN5SPIRV6createINS_12SPIRVCmpInstILN3spv2OpE187EEEEEPNS_10SPIRVEntryEv@Base 0
 (optional=templinst)_ZN5SPIRV6createINS_12SPIRVCmpInstILN3spv2OpE188EEEEEPNS_10SPIRVEntryEv@Base 0
 (optional=templinst)_ZN5SPIRV6createINS_12SPIRVCmpInstILN3spv2OpE189EEEEEPNS_10SPIRVEntryEv@Base 0
 (optional=templinst)_ZN5SPIRV6createINS_12SPIRVCmpInstILN3spv2OpE190EEEEEPNS_10SPIRVEntryEv@Base 0
 (optional=templinst)_ZN5SPIRV6createINS_12SPIRVCmpInstILN3spv2OpE191EEEEEPNS_10SPIRVEntryEv@Base 0
 (optional=templinst)_ZN5SPIRV6createINS_12SPIRVExtInstEEEPNS_10SPIRVEntryEv@Base 0
 (optional=templinst)_ZN5SPIRV6createINS_12SPIRVForwardEEEPNS_10SPIRVEntryEv@Base 0
 (optional=templinst)_ZN5SPIRV6createINS_12SPIRVTypeIntEEEPNS_10SPIRVEntryEv@Base 0
 (optional=templinst)_ZN5SPIRV6createINS_13SPIRVAsmINTELEEEPNS_10SPIRVEntryEv@Base 0
 (optional=templinst)_ZN5SPIRV6createINS_13SPIRVDecorateEEEPNS_10SPIRVEntryEv@Base 0
 (optional=templinst)_ZN5SPIRV6createINS_13SPIRVFunctionEEEPNS_10SPIRVEntryEv@Base 0
 (optional=templinst)_ZN5SPIRV6createINS_13SPIRVLifetimeILN3spv2OpE256EEEEEPNS_10SPIRVEntryEv@Base 0
 (optional=templinst)_ZN5SPIRV6createINS_13SPIRVLifetimeILN3spv2OpE257EEEEEPNS_10SPIRVEntryEv@Base 0
 (optional=templinst)_ZN5SPIRV6createINS_13SPIRVTypeBoolEEEPNS_10SPIRVEntryEv@Base 0
 (optional=templinst)_ZN5SPIRV6createINS_13SPIRVTypePipeEEEPNS_10SPIRVEntryEv@Base 0
 (optional=templinst)_ZN5SPIRV6createINS_13SPIRVTypeVoidEEEPNS_10SPIRVEntryEv@Base 0
 (optional=templinst)_ZN5SPIRV6createINS_13SPIRVVariableEEEPNS_10SPIRVEntryEv@Base 0
 (optional=templinst)_ZN5SPIRV6createINS_14SPIRVExtensionEEEPNS_10SPIRVEntryEv@Base 0
 (optional=templinst)_ZN5SPIRV6createINS_14SPIRVLoopMergeEEEPNS_10SPIRVEntryEv@Base 0
 (optional=templinst)_ZN5SPIRV6createINS_14SPIRVTransposeEEEPNS_10SPIRVEntryEv@Base 0
 (optional=templinst)_ZN5SPIRV6createINS_14SPIRVTypeArrayEEEPNS_10SPIRVEntryEv@Base 0
 (optional=templinst)_ZN5SPIRV6createINS_14SPIRVTypeFloatEEEPNS_10SPIRVEntryEv@Base 0
 (optional=templinst)_ZN5SPIRV6createINS_14SPIRVTypeImageEEEPNS_10SPIRVEntryEv@Base 0
 (optional=templinst)_ZN5SPIRV6createINS_14SPIRVTypeQueueEEEPNS_10SPIRVEntryEv@Base 0
 (optional=templinst)_ZN5SPIRV6createINS_14SPIRVUnaryInstILN3spv2OpE109EEEEEPNS_10SPIRVEntryEv@Base 0
 (optional=templinst)_ZN5SPIRV6createINS_14SPIRVUnaryInstILN3spv2OpE110EEEEEPNS_10SPIRVEntryEv@Base 0
 (optional=templinst)_ZN5SPIRV6createINS_14SPIRVUnaryInstILN3spv2OpE111EEEEEPNS_10SPIRVEntryEv@Base 0
 (optional=templinst)_ZN5SPIRV6createINS_14SPIRVUnaryInstILN3spv2OpE112EEEEEPNS_10SPIRVEntryEv@Base 0
 (optional=templinst)_ZN5SPIRV6createINS_14SPIRVUnaryInstILN3spv2OpE113EEEEEPNS_10SPIRVEntryEv@Base 0
 (optional=templinst)_ZN5SPIRV6createINS_14SPIRVUnaryInstILN3spv2OpE114EEEEEPNS_10SPIRVEntryEv@Base 0
 (optional=templinst)_ZN5SPIRV6createINS_14SPIRVUnaryInstILN3spv2OpE115EEEEEPNS_10SPIRVEntryEv@Base 0
 (optional=templinst)_ZN5SPIRV6createINS_14SPIRVUnaryInstILN3spv2OpE117EEEEEPNS_10SPIRVEntryEv@Base 0
 (optional=templinst)_ZN5SPIRV6createINS_14SPIRVUnaryInstILN3spv2OpE118EEEEEPNS_10SPIRVEntryEv@Base 0
 (optional=templinst)_ZN5SPIRV6createINS_14SPIRVUnaryInstILN3spv2OpE119EEEEEPNS_10SPIRVEntryEv@Base 0
 (optional=templinst)_ZN5SPIRV6createINS_14SPIRVUnaryInstILN3spv2OpE120EEEEEPNS_10SPIRVEntryEv@Base 0
 (optional=templinst)_ZN5SPIRV6createINS_14SPIRVUnaryInstILN3spv2OpE121EEEEEPNS_10SPIRVEntryEv@Base 0
 (optional=templinst)_ZN5SPIRV6createINS_14SPIRVUnaryInstILN3spv2OpE122EEEEEPNS_10SPIRVEntryEv@Base 0
 (optional=templinst)_ZN5SPIRV6createINS_14SPIRVUnaryInstILN3spv2OpE124EEEEEPNS_10SPIRVEntryEv@Base 0
 (optional=templinst)_ZN5SPIRV6createINS_14SPIRVUnaryInstILN3spv2OpE126EEEEEPNS_10SPIRVEntryEv@Base 0
 (optional=templinst)_ZN5SPIRV6createINS_14SPIRVUnaryInstILN3spv2OpE127EEEEEPNS_10SPIRVEntryEv@Base 0
 (optional=templinst)_ZN5SPIRV6createINS_14SPIRVUnaryInstILN3spv2OpE154EEEEEPNS_10SPIRVEntryEv@Base 0
 (optional=templinst)_ZN5SPIRV6createINS_14SPIRVUnaryInstILN3spv2OpE155EEEEEPNS_10SPIRVEntryEv@Base 0
 (optional=templinst)_ZN5SPIRV6createINS_14SPIRVUnaryInstILN3spv2OpE156EEEEEPNS_10SPIRVEntryEv@Base 0
 (optional=templinst)_ZN5SPIRV6createINS_14SPIRVUnaryInstILN3spv2OpE157EEEEEPNS_10SPIRVEntryEv@Base 0
 (optional=templinst)_ZN5SPIRV6createINS_14SPIRVUnaryInstILN3spv2OpE158EEEEEPNS_10SPIRVEntryEv@Base 0
 (optional=templinst)_ZN5SPIRV6createINS_14SPIRVUnaryInstILN3spv2OpE159EEEEEPNS_10SPIRVEntryEv@Base 0
 (optional=templinst)_ZN5SPIRV6createINS_14SPIRVUnaryInstILN3spv2OpE160EEEEEPNS_10SPIRVEntryEv@Base 0
 (optional=templinst)_ZN5SPIRV6createINS_14SPIRVUnaryInstILN3spv2OpE168EEEEEPNS_10SPIRVEntryEv@Base 0
 (optional=templinst)_ZN5SPIRV6createINS_14SPIRVUnaryInstILN3spv2OpE200EEEEEPNS_10SPIRVEntryEv@Base 0
 (optional=templinst)_ZN5SPIRV6createINS_14SPIRVUnaryInstILN3spv2OpE205EEEEEPNS_10SPIRVEntryEv@Base 0
 (optional=templinst)_ZN5SPIRV6createINS_14SPIRVUnaryInstILN3spv2OpE5934EEEEEPNS_10SPIRVEntryEv@Base 0
 (optional=templinst)_ZN5SPIRV6createINS_14SPIRVUnaryInstILN3spv2OpE5938EEEEEPNS_10SPIRVEntryEv@Base 0
 (optional=templinst)_ZN5SPIRV6createINS_14SPIRVUnaryInstILN3spv2OpE6145EEEEEPNS_10SPIRVEntryEv@Base 13
 (optional=templinst)_ZN5SPIRV6createINS_15SPIRVBasicBlockEEEPNS_10SPIRVEntryEv@Base 0
 (optional=templinst)_ZN5SPIRV6createINS_15SPIRVBinaryInstILN3spv2OpE128EEEEEPNS_10SPIRVEntryEv@Base 0
 (optional=templinst)_ZN5SPIRV6createINS_15SPIRVBinaryInstILN3spv2OpE129EEEEEPNS_10SPIRVEntryEv@Base 0
 (optional=templinst)_ZN5SPIRV6createINS_15SPIRVBinaryInstILN3spv2OpE130EEEEEPNS_10SPIRVEntryEv@Base 0
 (optional=templinst)_ZN5SPIRV6createINS_15SPIRVBinaryInstILN3spv2OpE131EEEEEPNS_10SPIRVEntryEv@Base 0
 (optional=templinst)_ZN5SPIRV6createINS_15SPIRVBinaryInstILN3spv2OpE132EEEEEPNS_10SPIRVEntryEv@Base 0
 (optional=templinst)_ZN5SPIRV6createINS_15SPIRVBinaryInstILN3spv2OpE133EEEEEPNS_10SPIRVEntryEv@Base 0
 (optional=templinst)_ZN5SPIRV6createINS_15SPIRVBinaryInstILN3spv2OpE134EEEEEPNS_10SPIRVEntryEv@Base 0
 (optional=templinst)_ZN5SPIRV6createINS_15SPIRVBinaryInstILN3spv2OpE135EEEEEPNS_10SPIRVEntryEv@Base 0
 (optional=templinst)_ZN5SPIRV6createINS_15SPIRVBinaryInstILN3spv2OpE136EEEEEPNS_10SPIRVEntryEv@Base 0
 (optional=templinst)_ZN5SPIRV6createINS_15SPIRVBinaryInstILN3spv2OpE137EEEEEPNS_10SPIRVEntryEv@Base 0
 (optional=templinst)_ZN5SPIRV6createINS_15SPIRVBinaryInstILN3spv2OpE138EEEEEPNS_10SPIRVEntryEv@Base 0
 (optional=templinst)_ZN5SPIRV6createINS_15SPIRVBinaryInstILN3spv2OpE139EEEEEPNS_10SPIRVEntryEv@Base 13
 (optional=templinst)_ZN5SPIRV6createINS_15SPIRVBinaryInstILN3spv2OpE140EEEEEPNS_10SPIRVEntryEv@Base 0
 (optional=templinst)_ZN5SPIRV6createINS_15SPIRVBinaryInstILN3spv2OpE141EEEEEPNS_10SPIRVEntryEv@Base 13
 (optional=templinst)_ZN5SPIRV6createINS_15SPIRVBinaryInstILN3spv2OpE148EEEEEPNS_10SPIRVEntryEv@Base 0
 (optional=templinst)_ZN5SPIRV6createINS_15SPIRVBinaryInstILN3spv2OpE164EEEEEPNS_10SPIRVEntryEv@Base 0
 (optional=templinst)_ZN5SPIRV6createINS_15SPIRVBinaryInstILN3spv2OpE165EEEEEPNS_10SPIRVEntryEv@Base 0
 (optional=templinst)_ZN5SPIRV6createINS_15SPIRVBinaryInstILN3spv2OpE166EEEEEPNS_10SPIRVEntryEv@Base 0
 (optional=templinst)_ZN5SPIRV6createINS_15SPIRVBinaryInstILN3spv2OpE167EEEEEPNS_10SPIRVEntryEv@Base 0
 (optional=templinst)_ZN5SPIRV6createINS_15SPIRVBinaryInstILN3spv2OpE194EEEEEPNS_10SPIRVEntryEv@Base 0
 (optional=templinst)_ZN5SPIRV6createINS_15SPIRVBinaryInstILN3spv2OpE195EEEEEPNS_10SPIRVEntryEv@Base 0
 (optional=templinst)_ZN5SPIRV6createINS_15SPIRVBinaryInstILN3spv2OpE196EEEEEPNS_10SPIRVEntryEv@Base 0
 (optional=templinst)_ZN5SPIRV6createINS_15SPIRVBinaryInstILN3spv2OpE197EEEEEPNS_10SPIRVEntryEv@Base 0
 (optional=templinst)_ZN5SPIRV6createINS_15SPIRVBinaryInstILN3spv2OpE198EEEEEPNS_10SPIRVEntryEv@Base 0
 (optional=templinst)_ZN5SPIRV6createINS_15SPIRVBinaryInstILN3spv2OpE199EEEEEPNS_10SPIRVEntryEv@Base 0
 (optional=templinst)_ZN5SPIRV6createINS_15SPIRVCapabilityEEEPNS_10SPIRVEntryEv@Base 0
 (optional=templinst)_ZN5SPIRV6createINS_15SPIRVCopyMemoryEEEPNS_10SPIRVEntryEv@Base 0
 (optional=templinst)_ZN5SPIRV6createINS_15SPIRVCopyObjectEEEPNS_10SPIRVEntryEv@Base 0
 (optional=templinst)_ZN5SPIRV6createINS_15SPIRVDecorateIdEEEPNS_10SPIRVEntryEv@Base 13
 (optional=templinst)_ZN5SPIRV6createINS_15SPIRVEntryPointEEEPNS_10SPIRVEntryEv@Base 0
 (optional=templinst)_ZN5SPIRV6createINS_15SPIRVMemberNameEEEPNS_10SPIRVEntryEv@Base 0
 (optional=templinst)_ZN5SPIRV6createINS_15SPIRVTypeMatrixEEEPNS_10SPIRVEntryEv@Base 0
 (optional=templinst)_ZN5SPIRV6createINS_15SPIRVTypeOpaqueEEEPNS_10SPIRVEntryEv@Base 0
 (optional=templinst)_ZN5SPIRV6createINS_15SPIRVTypeStructEEEPNS_10SPIRVEntryEv@Base 0
 (optional=templinst)_ZN5SPIRV6createINS_15SPIRVTypeVectorEEEPNS_10SPIRVEntryEv@Base 0
 (optional=templinst)_ZN5SPIRV6createINS_16SPIRVMemoryModelEEEPNS_10SPIRVEntryEv@Base 0
 (optional=templinst)_ZN5SPIRV6createINS_16SPIRVReturnValueEEEPNS_10SPIRVEntryEv@Base 0
 (optional=templinst)_ZN5SPIRV6createINS_16SPIRVTypePointerEEEPNS_10SPIRVEntryEv@Base 0
 (optional=templinst)_ZN5SPIRV6createINS_16SPIRVTypeSamplerEEEPNS_10SPIRVEntryEv@Base 0
 (optional=templinst)_ZN5SPIRV6createINS_17SPIRVAsmCallINTELEEEPNS_10SPIRVEntryEv@Base 0
 (optional=templinst)_ZN5SPIRV6createINS_17SPIRVConstantBaseILN3spv2OpE43EEEEEPNS_10SPIRVEntryEv@Base 0
 (optional=templinst)_ZN5SPIRV6createINS_17SPIRVConstantBaseILN3spv2OpE50EEEEEPNS_10SPIRVEntryEv@Base 0
 (optional=templinst)_ZN5SPIRV6createINS_17SPIRVConstantBoolILN3spv2OpE41EEEEEPNS_10SPIRVEntryEv@Base 0
 (optional=templinst)_ZN5SPIRV6createINS_17SPIRVConstantBoolILN3spv2OpE42EEEEEPNS_10SPIRVEntryEv@Base 0
 (optional=templinst)_ZN5SPIRV6createINS_17SPIRVConstantBoolILN3spv2OpE48EEEEEPNS_10SPIRVEntryEv@Base 0
 (optional=templinst)_ZN5SPIRV6createINS_17SPIRVConstantBoolILN3spv2OpE49EEEEEPNS_10SPIRVEntryEv@Base 0
 (optional=templinst)_ZN5SPIRV6createINS_17SPIRVConstantNullEEEPNS_10SPIRVEntryEv@Base 0
 (optional=templinst)_ZN5SPIRV6createINS_17SPIRVFunctionCallEEEPNS_10SPIRVEntryEv@Base 0
 (optional=templinst)_ZN5SPIRV6createINS_17SPIRVInstTemplateINS_10SPIRVBitOpELN3spv2OpE201ELb1ELj7ELb0ELj4294967295ELj4294967295ELj4294967295EEEEEPNS_10SPIRVEntryEv@Base 13
 (optional=templinst)_ZN5SPIRV6createINS_17SPIRVInstTemplateINS_10SPIRVBitOpELN3spv2OpE202ELb1ELj6ELb0ELj4294967295ELj4294967295ELj4294967295EEEEEPNS_10SPIRVEntryEv@Base 13
 (optional=templinst)_ZN5SPIRV6createINS_17SPIRVInstTemplateINS_10SPIRVBitOpELN3spv2OpE203ELb1ELj6ELb0ELj4294967295ELj4294967295ELj4294967295EEEEEPNS_10SPIRVEntryEv@Base 13
 (optional=templinst)_ZN5SPIRV6createINS_17SPIRVInstTemplateINS_10SPIRVBitOpELN3spv2OpE204ELb1ELj4ELb0ELj4294967295ELj4294967295ELj4294967295EEEEEPNS_10SPIRVEntryEv@Base 13
 (optional=templinst)_ZN5SPIRV6createINS_17SPIRVInstTemplateINS_15SPIRVDotKHRBaseELN3spv2OpE4450ELb1ELj5ELb1ELj2ELj4294967295ELj4294967295EEEEEPNS_10SPIRVEntryEv@Base 13
 (optional=templinst)_ZN5SPIRV6createINS_17SPIRVInstTemplateINS_15SPIRVDotKHRBaseELN3spv2OpE4451ELb1ELj5ELb1ELj2ELj4294967295ELj4294967295EEEEEPNS_10SPIRVEntryEv@Base 13
 (optional=templinst)_ZN5SPIRV6createINS_17SPIRVInstTemplateINS_15SPIRVDotKHRBaseELN3spv2OpE4452ELb1ELj5ELb1ELj2ELj4294967295ELj4294967295EEEEEPNS_10SPIRVEntryEv@Base 13
 (optional=templinst)_ZN5SPIRV6createINS_17SPIRVInstTemplateINS_15SPIRVDotKHRBaseELN3spv2OpE4453ELb1ELj6ELb1ELj3ELj4294967295ELj4294967295EEEEEPNS_10SPIRVEntryEv@Base 13
 (optional=templinst)_ZN5SPIRV6createINS_17SPIRVInstTemplateINS_15SPIRVDotKHRBaseELN3spv2OpE4454ELb1ELj6ELb1ELj3ELj4294967295ELj4294967295EEEEEPNS_10SPIRVEntryEv@Base 13
 (optional=templinst)_ZN5SPIRV6createINS_17SPIRVInstTemplateINS_15SPIRVDotKHRBaseELN3spv2OpE4455ELb1ELj6ELb1ELj3ELj4294967295ELj4294967295EEEEEPNS_10SPIRVEntryEv@Base 13
 (optional=templinst)_ZN5SPIRV6createINS_17SPIRVInstTemplateINS_15SPIRVSelectBaseELN3spv2OpE169ELb1ELj6ELb0ELj4294967295ELj4294967295ELj4294967295EEEEEPNS_10SPIRVEntryEv@Base 13
 (optional=templinst)_ZN5SPIRV6createINS_17SPIRVInstTemplateINS_17SPIRVPipeInstBaseELN3spv2OpE274ELb1ELj7ELb0ELj4294967295ELj4294967295ELj4294967295EEEEEPNS_10SPIRVEntryEv@Base 0
 (optional=templinst)_ZN5SPIRV6createINS_17SPIRVInstTemplateINS_17SPIRVPipeInstBaseELN3spv2OpE275ELb1ELj7ELb0ELj4294967295ELj4294967295ELj4294967295EEEEEPNS_10SPIRVEntryEv@Base 0
 (optional=templinst)_ZN5SPIRV6createINS_17SPIRVInstTemplateINS_17SPIRVPipeInstBaseELN3spv2OpE276ELb1ELj9ELb0ELj4294967295ELj4294967295ELj4294967295EEEEEPNS_10SPIRVEntryEv@Base 0
 (optional=templinst)_ZN5SPIRV6createINS_17SPIRVInstTemplateINS_17SPIRVPipeInstBaseELN3spv2OpE277ELb1ELj9ELb0ELj4294967295ELj4294967295ELj4294967295EEEEEPNS_10SPIRVEntryEv@Base 0
 (optional=templinst)_ZN5SPIRV6createINS_17SPIRVInstTemplateINS_17SPIRVPipeInstBaseELN3spv2OpE278ELb1ELj7ELb0ELj4294967295ELj4294967295ELj4294967295EEEEEPNS_10SPIRVEntryEv@Base 0
 (optional=templinst)_ZN5SPIRV6createINS_17SPIRVInstTemplateINS_17SPIRVPipeInstBaseELN3spv2OpE279ELb1ELj7ELb0ELj4294967295ELj4294967295ELj4294967295EEEEEPNS_10SPIRVEntryEv@Base 0
 (optional=templinst)_ZN5SPIRV6createINS_17SPIRVInstTemplateINS_17SPIRVPipeInstBaseELN3spv2OpE280ELb0ELj5ELb0ELj4294967295ELj4294967295ELj4294967295EEEEEPNS_10SPIRVEntryEv@Base 0
 (optional=templinst)_ZN5SPIRV6createINS_17SPIRVInstTemplateINS_17SPIRVPipeInstBaseELN3spv2OpE281ELb0ELj5ELb0ELj4294967295ELj4294967295ELj4294967295EEEEEPNS_10SPIRVEntryEv@Base 0
 (optional=templinst)_ZN5SPIRV6createINS_17SPIRVInstTemplateINS_17SPIRVPipeInstBaseELN3spv2OpE282ELb1ELj4ELb0ELj4294967295ELj4294967295ELj4294967295EEEEEPNS_10SPIRVEntryEv@Base 0
 (optional=templinst)_ZN5SPIRV6createINS_17SPIRVInstTemplateINS_17SPIRVPipeInstBaseELN3spv2OpE283ELb1ELj6ELb0ELj4294967295ELj4294967295ELj4294967295EEEEEPNS_10SPIRVEntryEv@Base 0
 (optional=templinst)_ZN5SPIRV6createINS_17SPIRVInstTemplateINS_17SPIRVPipeInstBaseELN3spv2OpE284ELb1ELj6ELb0ELj4294967295ELj4294967295ELj4294967295EEEEEPNS_10SPIRVEntryEv@Base 0
 (optional=templinst)_ZN5SPIRV6createINS_17SPIRVInstTemplateINS_18SPIRVGroupInstBaseELN3spv2OpE261ELb1ELj5ELb0ELj4294967295ELj4294967295ELj4294967295EEEEEPNS_10SPIRVEntryEv@Base 0
 (optional=templinst)_ZN5SPIRV6createINS_17SPIRVInstTemplateINS_18SPIRVGroupInstBaseELN3spv2OpE262ELb1ELj5ELb0ELj4294967295ELj4294967295ELj4294967295EEEEEPNS_10SPIRVEntryEv@Base 0
 (optional=templinst)_ZN5SPIRV6createINS_17SPIRVInstTemplateINS_18SPIRVGroupInstBaseELN3spv2OpE263ELb1ELj6ELb0ELj4294967295ELj4294967295ELj4294967295EEEEEPNS_10SPIRVEntryEv@Base 0
 (optional=templinst)_ZN5SPIRV6createINS_17SPIRVInstTemplateINS_18SPIRVGroupInstBaseELN3spv2OpE264ELb1ELj6ELb0ELj1ELj4294967295ELj4294967295EEEEEPNS_10SPIRVEntryEv@Base 0
 (optional=templinst)_ZN5SPIRV6createINS_17SPIRVInstTemplateINS_18SPIRVGroupInstBaseELN3spv2OpE265ELb1ELj6ELb0ELj1ELj4294967295ELj4294967295EEEEEPNS_10SPIRVEntryEv@Base 0
 (optional=templinst)_ZN5SPIRV6createINS_17SPIRVInstTemplateINS_18SPIRVGroupInstBaseELN3spv2OpE266ELb1ELj6ELb0ELj1ELj4294967295ELj4294967295EEEEEPNS_10SPIRVEntryEv@Base 0
 (optional=templinst)_ZN5SPIRV6createINS_17SPIRVInstTemplateINS_18SPIRVGroupInstBaseELN3spv2OpE267ELb1ELj6ELb0ELj1ELj4294967295ELj4294967295EEEEEPNS_10SPIRVEntryEv@Base 0
 (optional=templinst)_ZN5SPIRV6createINS_17SPIRVInstTemplateINS_18SPIRVGroupInstBaseELN3spv2OpE268ELb1ELj6ELb0ELj1ELj4294967295ELj4294967295EEEEEPNS_10SPIRVEntryEv@Base 0
 (optional=templinst)_ZN5SPIRV6createINS_17SPIRVInstTemplateINS_18SPIRVGroupInstBaseELN3spv2OpE269ELb1ELj6ELb0ELj1ELj4294967295ELj4294967295EEEEEPNS_10SPIRVEntryEv@Base 0
 (optional=templinst)_ZN5SPIRV6createINS_17SPIRVInstTemplateINS_18SPIRVGroupInstBaseELN3spv2OpE270ELb1ELj6ELb0ELj1ELj4294967295ELj4294967295EEEEEPNS_10SPIRVEntryEv@Base 0
 (optional=templinst)_ZN5SPIRV6createINS_17SPIRVInstTemplateINS_18SPIRVGroupInstBaseELN3spv2OpE271ELb1ELj6ELb0ELj1ELj4294967295ELj4294967295EEEEEPNS_10SPIRVEntryEv@Base 0
 (optional=templinst)_ZN5SPIRV6createINS_17SPIRVInstTemplateINS_18SPIRVGroupInstBaseELN3spv2OpE285ELb1ELj8ELb0ELj4294967295ELj4294967295ELj4294967295EEEEEPNS_10SPIRVEntryEv@Base 0
 (optional=templinst)_ZN5SPIRV6createINS_17SPIRVInstTemplateINS_18SPIRVGroupInstBaseELN3spv2OpE286ELb1ELj8ELb0ELj4294967295ELj4294967295ELj4294967295EEEEEPNS_10SPIRVEntryEv@Base 0
 (optional=templinst)_ZN5SPIRV6createINS_17SPIRVInstTemplateINS_18SPIRVGroupInstBaseELN3spv2OpE287ELb0ELj6ELb0ELj4294967295ELj4294967295ELj4294967295EEEEEPNS_10SPIRVEntryEv@Base 0
 (optional=templinst)_ZN5SPIRV6createINS_17SPIRVInstTemplateINS_18SPIRVGroupInstBaseELN3spv2OpE288ELb0ELj6ELb0ELj4294967295ELj4294967295ELj4294967295EEEEEPNS_10SPIRVEntryEv@Base 0
 (optional=templinst)_ZN5SPIRV6createINS_17SPIRVInstTemplateINS_18SPIRVImageInstBaseELN3spv2OpE101ELb1ELj4ELb0ELj4294967295ELj4294967295ELj4294967295EEEEEPNS_10SPIRVEntryEv@Base 0
 (optional=templinst)_ZN5SPIRV6createINS_17SPIRVInstTemplateINS_18SPIRVImageInstBaseELN3spv2OpE102ELb1ELj4ELb0ELj4294967295ELj4294967295ELj4294967295EEEEEPNS_10SPIRVEntryEv@Base 0
 (optional=templinst)_ZN5SPIRV6createINS_17SPIRVInstTemplateINS_18SPIRVImageInstBaseELN3spv2OpE103ELb1ELj5ELb0ELj4294967295ELj4294967295ELj4294967295EEEEEPNS_10SPIRVEntryEv@Base 0
 (optional=templinst)_ZN5SPIRV6createINS_17SPIRVInstTemplateINS_18SPIRVImageInstBaseELN3spv2OpE104ELb1ELj4ELb0ELj4294967295ELj4294967295ELj4294967295EEEEEPNS_10SPIRVEntryEv@Base 0
 (optional=templinst)_ZN5SPIRV6createINS_17SPIRVInstTemplateINS_18SPIRVImageInstBaseELN3spv2OpE105ELb1ELj5ELb0ELj4294967295ELj4294967295ELj4294967295EEEEEPNS_10SPIRVEntryEv@Base 0
 (optional=templinst)_ZN5SPIRV6createINS_17SPIRVInstTemplateINS_18SPIRVImageInstBaseELN3spv2OpE106ELb1ELj4ELb0ELj4294967295ELj4294967295ELj4294967295EEEEEPNS_10SPIRVEntryEv@Base 0
 (optional=templinst)_ZN5SPIRV6createINS_17SPIRVInstTemplateINS_18SPIRVImageInstBaseELN3spv2OpE107ELb1ELj4ELb0ELj4294967295ELj4294967295ELj4294967295EEEEEPNS_10SPIRVEntryEv@Base 0
 (optional=templinst)_ZN5SPIRV6createINS_17SPIRVInstTemplateINS_18SPIRVImageInstBaseELN3spv2OpE86ELb1ELj5ELb0ELj4294967295ELj4294967295ELj4294967295EEEEEPNS_10SPIRVEntryEv@Base 0
 (optional=templinst)_ZN5SPIRV6createINS_17SPIRVInstTemplateINS_18SPIRVImageInstBaseELN3spv2OpE87ELb1ELj5ELb1ELj4294967295ELj4294967295ELj4294967295EEEEEPNS_10SPIRVEntryEv@Base 0
 (optional=templinst)_ZN5SPIRV6createINS_17SPIRVInstTemplateINS_18SPIRVImageInstBaseELN3spv2OpE88ELb1ELj7ELb1ELj2ELj4294967295ELj4294967295EEEEEPNS_10SPIRVEntryEv@Base 0
 (optional=templinst)_ZN5SPIRV6createINS_17SPIRVInstTemplateINS_18SPIRVImageInstBaseELN3spv2OpE98ELb1ELj5ELb1ELj2ELj4294967295ELj4294967295EEEEEPNS_10SPIRVEntryEv@Base 0
 (optional=templinst)_ZN5SPIRV6createINS_17SPIRVInstTemplateINS_18SPIRVImageInstBaseELN3spv2OpE99ELb0ELj4ELb1ELj3ELj4294967295ELj4294967295EEEEEPNS_10SPIRVEntryEv@Base 0
 (optional=templinst)_ZN5SPIRV6createINS_17SPIRVInstTemplateINS_19SPIRVAtomicInstBaseELN3spv2OpE225ELb0ELj3ELb0ELj4294967295ELj4294967295ELj4294967295EEEEEPNS_10SPIRVEntryEv@Base 0
 (optional=templinst)_ZN5SPIRV6createINS_17SPIRVInstTemplateINS_19SPIRVAtomicInstBaseELN3spv2OpE227ELb1ELj6ELb0ELj4294967295ELj4294967295ELj4294967295EEEEEPNS_10SPIRVEntryEv@Base 0
 (optional=templinst)_ZN5SPIRV6createINS_17SPIRVInstTemplateINS_19SPIRVAtomicInstBaseELN3spv2OpE229ELb1ELj7ELb0ELj4294967295ELj4294967295ELj4294967295EEEEEPNS_10SPIRVEntryEv@Base 0
 (optional=templinst)_ZN5SPIRV6createINS_17SPIRVInstTemplateINS_19SPIRVAtomicInstBaseELN3spv2OpE230ELb1ELj9ELb0ELj4294967295ELj4294967295ELj4294967295EEEEEPNS_10SPIRVEntryEv@Base 0
 (optional=templinst)_ZN5SPIRV6createINS_17SPIRVInstTemplateINS_19SPIRVAtomicInstBaseELN3spv2OpE231ELb1ELj9ELb0ELj4294967295ELj4294967295ELj4294967295EEEEEPNS_10SPIRVEntryEv@Base 0
 (optional=templinst)_ZN5SPIRV6createINS_17SPIRVInstTemplateINS_19SPIRVAtomicInstBaseELN3spv2OpE232ELb1ELj6ELb0ELj4294967295ELj4294967295ELj4294967295EEEEEPNS_10SPIRVEntryEv@Base 0
 (optional=templinst)_ZN5SPIRV6createINS_17SPIRVInstTemplateINS_19SPIRVAtomicInstBaseELN3spv2OpE233ELb1ELj6ELb0ELj4294967295ELj4294967295ELj4294967295EEEEEPNS_10SPIRVEntryEv@Base 0
 (optional=templinst)_ZN5SPIRV6createINS_17SPIRVInstTemplateINS_19SPIRVAtomicInstBaseELN3spv2OpE234ELb1ELj7ELb0ELj4294967295ELj4294967295ELj4294967295EEEEEPNS_10SPIRVEntryEv@Base 0
 (optional=templinst)_ZN5SPIRV6createINS_17SPIRVInstTemplateINS_19SPIRVAtomicInstBaseELN3spv2OpE235ELb1ELj7ELb0ELj4294967295ELj4294967295ELj4294967295EEEEEPNS_10SPIRVEntryEv@Base 0
 (optional=templinst)_ZN5SPIRV6createINS_17SPIRVInstTemplateINS_19SPIRVAtomicInstBaseELN3spv2OpE236ELb1ELj7ELb0ELj4294967295ELj4294967295ELj4294967295EEEEEPNS_10SPIRVEntryEv@Base 0
 (optional=templinst)_ZN5SPIRV6createINS_17SPIRVInstTemplateINS_19SPIRVAtomicInstBaseELN3spv2OpE237ELb1ELj7ELb0ELj4294967295ELj4294967295ELj4294967295EEEEEPNS_10SPIRVEntryEv@Base 0
 (optional=templinst)_ZN5SPIRV6createINS_17SPIRVInstTemplateINS_19SPIRVAtomicInstBaseELN3spv2OpE238ELb1ELj7ELb0ELj4294967295ELj4294967295ELj4294967295EEEEEPNS_10SPIRVEntryEv@Base 0
 (optional=templinst)_ZN5SPIRV6createINS_17SPIRVInstTemplateINS_19SPIRVAtomicInstBaseELN3spv2OpE239ELb1ELj7ELb0ELj4294967295ELj4294967295ELj4294967295EEEEEPNS_10SPIRVEntryEv@Base 0
 (optional=templinst)_ZN5SPIRV6createINS_17SPIRVInstTemplateINS_19SPIRVAtomicInstBaseELN3spv2OpE240ELb1ELj7ELb0ELj4294967295ELj4294967295ELj4294967295EEEEEPNS_10SPIRVEntryEv@Base 0
 (optional=templinst)_ZN5SPIRV6createINS_17SPIRVInstTemplateINS_19SPIRVAtomicInstBaseELN3spv2OpE241ELb1ELj7ELb0ELj4294967295ELj4294967295ELj4294967295EEEEEPNS_10SPIRVEntryEv@Base 0
 (optional=templinst)_ZN5SPIRV6createINS_17SPIRVInstTemplateINS_19SPIRVAtomicInstBaseELN3spv2OpE242ELb1ELj7ELb0ELj4294967295ELj4294967295ELj4294967295EEEEEPNS_10SPIRVEntryEv@Base 0
 (optional=templinst)_ZN5SPIRV6createINS_17SPIRVInstTemplateINS_19SPIRVAtomicInstBaseELN3spv2OpE318ELb1ELj6ELb0ELj4294967295ELj4294967295ELj4294967295EEEEEPNS_10SPIRVEntryEv@Base 0
 (optional=templinst)_ZN5SPIRV6createINS_17SPIRVInstTemplateINS_19SPIRVAtomicInstBaseELN3spv2OpE319ELb0ELj4ELb0ELj4294967295ELj4294967295ELj4294967295EEEEEPNS_10SPIRVEntryEv@Base 0
 (optional=templinst)_ZN5SPIRV6createINS_17SPIRVInstTemplateINS_19SPIRVDevEnqInstBaseELN3spv2OpE291ELb1ELj7ELb0ELj4294967295ELj4294967295ELj4294967295EEEEEPNS_10SPIRVEntryEv@Base 0
 (optional=templinst)_ZN5SPIRV6createINS_17SPIRVInstTemplateINS_19SPIRVDevEnqInstBaseELN3spv2OpE292ELb1ELj13ELb1ELj4294967295ELj4294967295ELj4294967295EEEEEPNS_10SPIRVEntryEv@Base 0
 (optional=templinst)_ZN5SPIRV6createINS_17SPIRVInstTemplateINS_19SPIRVDevEnqInstBaseELN3spv2OpE293ELb1ELj8ELb0ELj4294967295ELj4294967295ELj4294967295EEEEEPNS_10SPIRVEntryEv@Base 0
 (optional=templinst)_ZN5SPIRV6createINS_17SPIRVInstTemplateINS_19SPIRVDevEnqInstBaseELN3spv2OpE294ELb1ELj8ELb0ELj4294967295ELj4294967295ELj4294967295EEEEEPNS_10SPIRVEntryEv@Base 0
 (optional=templinst)_ZN5SPIRV6createINS_17SPIRVInstTemplateINS_19SPIRVDevEnqInstBaseELN3spv2OpE295ELb1ELj7ELb0ELj4294967295ELj4294967295ELj4294967295EEEEEPNS_10SPIRVEntryEv@Base 0
 (optional=templinst)_ZN5SPIRV6createINS_17SPIRVInstTemplateINS_19SPIRVDevEnqInstBaseELN3spv2OpE296ELb1ELj7ELb0ELj4294967295ELj4294967295ELj4294967295EEEEEPNS_10SPIRVEntryEv@Base 0
 (optional=templinst)_ZN5SPIRV6createINS_17SPIRVInstTemplateINS_19SPIRVDevEnqInstBaseELN3spv2OpE297ELb0ELj2ELb0ELj4294967295ELj4294967295ELj4294967295EEEEEPNS_10SPIRVEntryEv@Base 0
 (optional=templinst)_ZN5SPIRV6createINS_17SPIRVInstTemplateINS_19SPIRVDevEnqInstBaseELN3spv2OpE298ELb0ELj2ELb0ELj4294967295ELj4294967295ELj4294967295EEEEEPNS_10SPIRVEntryEv@Base 0
 (optional=templinst)_ZN5SPIRV6createINS_17SPIRVInstTemplateINS_19SPIRVDevEnqInstBaseELN3spv2OpE299ELb1ELj3ELb0ELj4294967295ELj4294967295ELj4294967295EEEEEPNS_10SPIRVEntryEv@Base 0
 (optional=templinst)_ZN5SPIRV6createINS_17SPIRVInstTemplateINS_19SPIRVDevEnqInstBaseELN3spv2OpE300ELb1ELj4ELb0ELj4294967295ELj4294967295ELj4294967295EEEEEPNS_10SPIRVEntryEv@Base 0
 (optional=templinst)_ZN5SPIRV6createINS_17SPIRVInstTemplateINS_19SPIRVDevEnqInstBaseELN3spv2OpE301ELb0ELj3ELb0ELj4294967295ELj4294967295ELj4294967295EEEEEPNS_10SPIRVEntryEv@Base 0
 (optional=templinst)_ZN5SPIRV6createINS_17SPIRVInstTemplateINS_19SPIRVDevEnqInstBaseELN3spv2OpE302ELb0ELj4ELb0ELj4294967295ELj4294967295ELj4294967295EEEEEPNS_10SPIRVEntryEv@Base 0
 (optional=templinst)_ZN5SPIRV6createINS_17SPIRVInstTemplateINS_19SPIRVDevEnqInstBaseELN3spv2OpE303ELb1ELj3ELb0ELj4294967295ELj4294967295ELj4294967295EEEEEPNS_10SPIRVEntryEv@Base 0
 (optional=templinst)_ZN5SPIRV6createINS_17SPIRVInstTemplateINS_19SPIRVDevEnqInstBaseELN3spv2OpE304ELb1ELj6ELb0ELj4294967295ELj4294967295ELj4294967295EEEEEPNS_10SPIRVEntryEv@Base 0
 (optional=templinst)_ZN5SPIRV6createINS_17SPIRVInstTemplateINS_20SPIRVAtomicStoreInstELN3spv2OpE228ELb0ELj5ELb0ELj4294967295ELj4294967295ELj4294967295EEEEEPNS_10SPIRVEntryEv@Base 12
 (optional=templinst)_ZN5SPIRV6createINS_17SPIRVInstTemplateINS_21SPIRVInstTemplateBaseELN3spv2OpE123ELb1ELj5ELb0ELj1ELj4294967295ELj4294967295EEEEEPNS_10SPIRVEntryEv@Base 0
 (optional=templinst)_ZN5SPIRV6createINS_17SPIRVInstTemplateINS_21SPIRVInstTemplateBaseELN3spv2OpE260ELb0ELj4ELb0ELj4294967295ELj4294967295ELj4294967295EEEEEPNS_10SPIRVEntryEv@Base 12
 (optional=templinst)_ZN5SPIRV6createINS_17SPIRVInstTemplateINS_21SPIRVInstTemplateBaseELN3spv2OpE69ELb1ELj4ELb0ELj4294967295ELj4294967295ELj4294967295EEEEEPNS_10SPIRVEntryEv@Base 0
 (optional=templinst)_ZN5SPIRV6createINS_17SPIRVInstTemplateINS_22SPIRVArbFloatIntelInstELN3spv2OpE5840ELb1ELj9ELb0ELj4294967295ELj4294967295ELj4294967295EEEEEPNS_10SPIRVEntryEv@Base 0
 (optional=templinst)_ZN5SPIRV6createINS_17SPIRVInstTemplateINS_22SPIRVArbFloatIntelInstELN3spv2OpE5841ELb1ELj9ELb0ELj4294967295ELj4294967295ELj4294967295EEEEEPNS_10SPIRVEntryEv@Base 0
 (optional=templinst)_ZN5SPIRV6createINS_17SPIRVInstTemplateINS_22SPIRVArbFloatIntelInstELN3spv2OpE5842ELb1ELj9ELb0ELj4294967295ELj4294967295ELj4294967295EEEEEPNS_10SPIRVEntryEv@Base 13
 (optional=templinst)_ZN5SPIRV6createINS_17SPIRVInstTemplateINS_22SPIRVArbFloatIntelInstELN3spv2OpE5843ELb1ELj9ELb0ELj4294967295ELj4294967295ELj4294967295EEEEEPNS_10SPIRVEntryEv@Base 13
 (optional=templinst)_ZN5SPIRV6createINS_17SPIRVInstTemplateINS_22SPIRVArbFloatIntelInstELN3spv2OpE5846ELb1ELj11ELb0ELj4294967295ELj4294967295ELj4294967295EEEEEPNS_10SPIRVEntryEv@Base 0
 (optional=templinst)_ZN5SPIRV6createINS_17SPIRVInstTemplateINS_22SPIRVArbFloatIntelInstELN3spv2OpE5847ELb1ELj11ELb0ELj4294967295ELj4294967295ELj4294967295EEEEEPNS_10SPIRVEntryEv@Base 0
 (optional=templinst)_ZN5SPIRV6createINS_17SPIRVInstTemplateINS_22SPIRVArbFloatIntelInstELN3spv2OpE5848ELb1ELj11ELb0ELj4294967295ELj4294967295ELj4294967295EEEEEPNS_10SPIRVEntryEv@Base 0
 (optional=templinst)_ZN5SPIRV6createINS_17SPIRVInstTemplateINS_22SPIRVArbFloatIntelInstELN3spv2OpE5849ELb1ELj11ELb0ELj4294967295ELj4294967295ELj4294967295EEEEEPNS_10SPIRVEntryEv@Base 0
 (optional=templinst)_ZN5SPIRV6createINS_17SPIRVInstTemplateINS_22SPIRVArbFloatIntelInstELN3spv2OpE5850ELb1ELj7ELb0ELj4294967295ELj4294967295ELj4294967295EEEEEPNS_10SPIRVEntryEv@Base 0
 (optional=templinst)_ZN5SPIRV6createINS_17SPIRVInstTemplateINS_22SPIRVArbFloatIntelInstELN3spv2OpE5851ELb1ELj7ELb0ELj4294967295ELj4294967295ELj4294967295EEEEEPNS_10SPIRVEntryEv@Base 0
 (optional=templinst)_ZN5SPIRV6createINS_17SPIRVInstTemplateINS_22SPIRVArbFloatIntelInstELN3spv2OpE5852ELb1ELj7ELb0ELj4294967295ELj4294967295ELj4294967295EEEEEPNS_10SPIRVEntryEv@Base 0
 (optional=templinst)_ZN5SPIRV6createINS_17SPIRVInstTemplateINS_22SPIRVArbFloatIntelInstELN3spv2OpE5853ELb1ELj7ELb0ELj4294967295ELj4294967295ELj4294967295EEEEEPNS_10SPIRVEntryEv@Base 0
 (optional=templinst)_ZN5SPIRV6createINS_17SPIRVInstTemplateINS_22SPIRVArbFloatIntelInstELN3spv2OpE5854ELb1ELj7ELb0ELj4294967295ELj4294967295ELj4294967295EEEEEPNS_10SPIRVEntryEv@Base 0
 (optional=templinst)_ZN5SPIRV6createINS_17SPIRVInstTemplateINS_22SPIRVArbFloatIntelInstELN3spv2OpE5855ELb1ELj9ELb0ELj4294967295ELj4294967295ELj4294967295EEEEEPNS_10SPIRVEntryEv@Base 0
 (optional=templinst)_ZN5SPIRV6createINS_17SPIRVInstTemplateINS_22SPIRVArbFloatIntelInstELN3spv2OpE5856ELb1ELj9ELb0ELj4294967295ELj4294967295ELj4294967295EEEEEPNS_10SPIRVEntryEv@Base 0
 (optional=templinst)_ZN5SPIRV6createINS_17SPIRVInstTemplateINS_22SPIRVArbFloatIntelInstELN3spv2OpE5857ELb1ELj9ELb0ELj4294967295ELj4294967295ELj4294967295EEEEEPNS_10SPIRVEntryEv@Base 0
 (optional=templinst)_ZN5SPIRV6createINS_17SPIRVInstTemplateINS_22SPIRVArbFloatIntelInstELN3spv2OpE5858ELb1ELj11ELb0ELj4294967295ELj4294967295ELj4294967295EEEEEPNS_10SPIRVEntryEv@Base 0
 (optional=templinst)_ZN5SPIRV6createINS_17SPIRVInstTemplateINS_22SPIRVArbFloatIntelInstELN3spv2OpE5859ELb1ELj9ELb0ELj4294967295ELj4294967295ELj4294967295EEEEEPNS_10SPIRVEntryEv@Base 0
 (optional=templinst)_ZN5SPIRV6createINS_17SPIRVInstTemplateINS_22SPIRVArbFloatIntelInstELN3spv2OpE5860ELb1ELj9ELb0ELj4294967295ELj4294967295ELj4294967295EEEEEPNS_10SPIRVEntryEv@Base 0
 (optional=templinst)_ZN5SPIRV6createINS_17SPIRVInstTemplateINS_22SPIRVArbFloatIntelInstELN3spv2OpE5861ELb1ELj9ELb0ELj4294967295ELj4294967295ELj4294967295EEEEEPNS_10SPIRVEntryEv@Base 0
 (optional=templinst)_ZN5SPIRV6createINS_17SPIRVInstTemplateINS_22SPIRVArbFloatIntelInstELN3spv2OpE5862ELb1ELj9ELb0ELj4294967295ELj4294967295ELj4294967295EEEEEPNS_10SPIRVEntryEv@Base 0
 (optional=templinst)_ZN5SPIRV6createINS_17SPIRVInstTemplateINS_22SPIRVArbFloatIntelInstELN3spv2OpE5863ELb1ELj9ELb0ELj4294967295ELj4294967295ELj4294967295EEEEEPNS_10SPIRVEntryEv@Base 0
 (optional=templinst)_ZN5SPIRV6createINS_17SPIRVInstTemplateINS_22SPIRVArbFloatIntelInstELN3spv2OpE5864ELb1ELj9ELb0ELj4294967295ELj4294967295ELj4294967295EEEEEPNS_10SPIRVEntryEv@Base 0
 (optional=templinst)_ZN5SPIRV6createINS_17SPIRVInstTemplateINS_22SPIRVArbFloatIntelInstELN3spv2OpE5865ELb1ELj9ELb0ELj4294967295ELj4294967295ELj4294967295EEEEEPNS_10SPIRVEntryEv@Base 0
 (optional=templinst)_ZN5SPIRV6createINS_17SPIRVInstTemplateINS_22SPIRVArbFloatIntelInstELN3spv2OpE5866ELb1ELj9ELb0ELj4294967295ELj4294967295ELj4294967295EEEEEPNS_10SPIRVEntryEv@Base 0
 (optional=templinst)_ZN5SPIRV6createINS_17SPIRVInstTemplateINS_22SPIRVArbFloatIntelInstELN3spv2OpE5867ELb1ELj9ELb0ELj4294967295ELj4294967295ELj4294967295EEEEEPNS_10SPIRVEntryEv@Base 0
 (optional=templinst)_ZN5SPIRV6createINS_17SPIRVInstTemplateINS_22SPIRVArbFloatIntelInstELN3spv2OpE5868ELb1ELj9ELb0ELj4294967295ELj4294967295ELj4294967295EEEEEPNS_10SPIRVEntryEv@Base 0
 (optional=templinst)_ZN5SPIRV6createINS_17SPIRVInstTemplateINS_22SPIRVArbFloatIntelInstELN3spv2OpE5869ELb1ELj9ELb0ELj4294967295ELj4294967295ELj4294967295EEEEEPNS_10SPIRVEntryEv@Base 0
 (optional=templinst)_ZN5SPIRV6createINS_17SPIRVInstTemplateINS_22SPIRVArbFloatIntelInstELN3spv2OpE5870ELb1ELj9ELb0ELj4294967295ELj4294967295ELj4294967295EEEEEPNS_10SPIRVEntryEv@Base 0
 (optional=templinst)_ZN5SPIRV6createINS_17SPIRVInstTemplateINS_22SPIRVArbFloatIntelInstELN3spv2OpE5871ELb1ELj9ELb0ELj4294967295ELj4294967295ELj4294967295EEEEEPNS_10SPIRVEntryEv@Base 0
 (optional=templinst)_ZN5SPIRV6createINS_17SPIRVInstTemplateINS_22SPIRVArbFloatIntelInstELN3spv2OpE5872ELb1ELj9ELb0ELj4294967295ELj4294967295ELj4294967295EEEEEPNS_10SPIRVEntryEv@Base 0
 (optional=templinst)_ZN5SPIRV6createINS_17SPIRVInstTemplateINS_22SPIRVArbFloatIntelInstELN3spv2OpE5873ELb1ELj9ELb0ELj4294967295ELj4294967295ELj4294967295EEEEEPNS_10SPIRVEntryEv@Base 0
 (optional=templinst)_ZN5SPIRV6createINS_17SPIRVInstTemplateINS_22SPIRVArbFloatIntelInstELN3spv2OpE5874ELb1ELj9ELb0ELj4294967295ELj4294967295ELj4294967295EEEEEPNS_10SPIRVEntryEv@Base 0
 (optional=templinst)_ZN5SPIRV6createINS_17SPIRVInstTemplateINS_22SPIRVArbFloatIntelInstELN3spv2OpE5875ELb1ELj9ELb0ELj4294967295ELj4294967295ELj4294967295EEEEEPNS_10SPIRVEntryEv@Base 0
 (optional=templinst)_ZN5SPIRV6createINS_17SPIRVInstTemplateINS_22SPIRVArbFloatIntelInstELN3spv2OpE5876ELb1ELj9ELb0ELj4294967295ELj4294967295ELj4294967295EEEEEPNS_10SPIRVEntryEv@Base 0
 (optional=templinst)_ZN5SPIRV6createINS_17SPIRVInstTemplateINS_22SPIRVArbFloatIntelInstELN3spv2OpE5877ELb1ELj9ELb0ELj4294967295ELj4294967295ELj4294967295EEEEEPNS_10SPIRVEntryEv@Base 0
 (optional=templinst)_ZN5SPIRV6createINS_17SPIRVInstTemplateINS_22SPIRVArbFloatIntelInstELN3spv2OpE5878ELb1ELj9ELb0ELj4294967295ELj4294967295ELj4294967295EEEEEPNS_10SPIRVEntryEv@Base 0
 (optional=templinst)_ZN5SPIRV6createINS_17SPIRVInstTemplateINS_22SPIRVArbFloatIntelInstELN3spv2OpE5879ELb1ELj11ELb0ELj4294967295ELj4294967295ELj4294967295EEEEEPNS_10SPIRVEntryEv@Base 0
 (optional=templinst)_ZN5SPIRV6createINS_17SPIRVInstTemplateINS_22SPIRVArbFloatIntelInstELN3spv2OpE5880ELb1ELj11ELb0ELj4294967295ELj4294967295ELj4294967295EEEEEPNS_10SPIRVEntryEv@Base 0
 (optional=templinst)_ZN5SPIRV6createINS_17SPIRVInstTemplateINS_22SPIRVArbFloatIntelInstELN3spv2OpE5881ELb1ELj11ELb0ELj4294967295ELj4294967295ELj4294967295EEEEEPNS_10SPIRVEntryEv@Base 0
 (optional=templinst)_ZN5SPIRV6createINS_17SPIRVInstTemplateINS_22SPIRVArbFloatIntelInstELN3spv2OpE5882ELb1ELj11ELb0ELj4294967295ELj4294967295ELj4294967295EEEEEPNS_10SPIRVEntryEv@Base 14
 (optional=templinst)_ZN5SPIRV6createINS_17SPIRVInstTemplateINS_22SPIRVAtomicFAddEXTInstELN3spv2OpE6035ELb1ELj7ELb0ELj4294967295ELj4294967295ELj4294967295EEEEEPNS_10SPIRVEntryEv@Base 12
 (optional=templinst)_ZN5SPIRV6createINS_17SPIRVInstTemplateINS_22SPIRVExpectKHRInstBaseELN3spv2OpE5631ELb1ELj5ELb0ELj4294967295ELj4294967295ELj4294967295EEEEEPNS_10SPIRVEntryEv@Base 13
 (optional=templinst)_ZN5SPIRV6createINS_17SPIRVInstTemplateINS_22SPIRVVectorShuffleBaseELN3spv2OpE79ELb1ELj5ELb1ELj4294967295ELj4294967295ELj4294967295EEEEEPNS_10SPIRVEntryEv@Base 13
 (optional=templinst)_ZN5SPIRV6createINS_17SPIRVInstTemplateINS_23SPIRVSpecConstantOpBaseELN3spv2OpE52ELb1ELj4ELb1ELj0ELj4294967295ELj4294967295EEEEEPNS_10SPIRVEntryEv@Base 14
 (optional=templinst)_ZN5SPIRV6createINS_17SPIRVInstTemplateINS_24SPIRVCompositeInsertBaseELN3spv2OpE82ELb1ELj5ELb1ELj4294967295ELj4294967295ELj4294967295EEEEEPNS_10SPIRVEntryEv@Base 13
 (optional=templinst)_ZN5SPIRV6createINS_17SPIRVInstTemplateINS_24SPIRVFixedPointIntelInstELN3spv2OpE5923ELb1ELj9ELb0ELj4294967295ELj4294967295ELj4294967295EEEEEPNS_10SPIRVEntryEv@Base 12
 (optional=templinst)_ZN5SPIRV6createINS_17SPIRVInstTemplateINS_24SPIRVFixedPointIntelInstELN3spv2OpE5924ELb1ELj9ELb0ELj4294967295ELj4294967295ELj4294967295EEEEEPNS_10SPIRVEntryEv@Base 12
 (optional=templinst)_ZN5SPIRV6createINS_17SPIRVInstTemplateINS_24SPIRVFixedPointIntelInstELN3spv2OpE5925ELb1ELj9ELb0ELj4294967295ELj4294967295ELj4294967295EEEEEPNS_10SPIRVEntryEv@Base 12
 (optional=templinst)_ZN5SPIRV6createINS_17SPIRVInstTemplateINS_24SPIRVFixedPointIntelInstELN3spv2OpE5926ELb1ELj9ELb0ELj4294967295ELj4294967295ELj4294967295EEEEEPNS_10SPIRVEntryEv@Base 12
 (optional=templinst)_ZN5SPIRV6createINS_17SPIRVInstTemplateINS_24SPIRVFixedPointIntelInstELN3spv2OpE5927ELb1ELj9ELb0ELj4294967295ELj4294967295ELj4294967295EEEEEPNS_10SPIRVEntryEv@Base 12
 (optional=templinst)_ZN5SPIRV6createINS_17SPIRVInstTemplateINS_24SPIRVFixedPointIntelInstELN3spv2OpE5928ELb1ELj9ELb0ELj4294967295ELj4294967295ELj4294967295EEEEEPNS_10SPIRVEntryEv@Base 12
 (optional=templinst)_ZN5SPIRV6createINS_17SPIRVInstTemplateINS_24SPIRVFixedPointIntelInstELN3spv2OpE5929ELb1ELj9ELb0ELj4294967295ELj4294967295ELj4294967295EEEEEPNS_10SPIRVEntryEv@Base 12
 (optional=templinst)_ZN5SPIRV6createINS_17SPIRVInstTemplateINS_24SPIRVFixedPointIntelInstELN3spv2OpE5930ELb1ELj9ELb0ELj4294967295ELj4294967295ELj4294967295EEEEEPNS_10SPIRVEntryEv@Base 12
 (optional=templinst)_ZN5SPIRV6createINS_17SPIRVInstTemplateINS_24SPIRVFixedPointIntelInstELN3spv2OpE5931ELb1ELj9ELb0ELj4294967295ELj4294967295ELj4294967295EEEEEPNS_10SPIRVEntryEv@Base 12
 (optional=templinst)_ZN5SPIRV6createINS_17SPIRVInstTemplateINS_24SPIRVFixedPointIntelInstELN3spv2OpE5932ELb1ELj9ELb0ELj4294967295ELj4294967295ELj4294967295EEEEEPNS_10SPIRVEntryEv@Base 12
 (optional=templinst)_ZN5SPIRV6createINS_17SPIRVInstTemplateINS_24SPIRVFixedPointIntelInstELN3spv2OpE5933ELb1ELj9ELb0ELj4294967295ELj4294967295ELj4294967295EEEEEPNS_10SPIRVEntryEv@Base 12
 (optional=templinst)_ZN5SPIRV6createINS_17SPIRVInstTemplateINS_24SPIRVPipeStorageInstBaseELN3spv2OpE324ELb1ELj4ELb0ELj4294967295ELj4294967295ELj4294967295EEEEEPNS_10SPIRVEntryEv@Base 0
 (optional=templinst)_ZN5SPIRV6createINS_17SPIRVInstTemplateINS_25SPIRVAtomicFMinMaxEXTBaseELN3spv2OpE5614ELb1ELj7ELb0ELj4294967295ELj4294967295ELj4294967295EEEEEPNS_10SPIRVEntryEv@Base 13
 (optional=templinst)_ZN5SPIRV6createINS_17SPIRVInstTemplateINS_25SPIRVAtomicFMinMaxEXTBaseELN3spv2OpE5615ELb1ELj7ELb0ELj4294967295ELj4294967295ELj4294967295EEEEEPNS_10SPIRVEntryEv@Base 13
 (optional=templinst)_ZN5SPIRV6createINS_17SPIRVInstTemplateINS_25SPIRVCompositeExtractBaseELN3spv2OpE81ELb1ELj4ELb1ELj4294967295ELj4294967295ELj4294967295EEEEEPNS_10SPIRVEntryEv@Base 13
 (optional=templinst)_ZN5SPIRV6createINS_17SPIRVInstTemplateINS_25SPIRVFPGARegINTELInstBaseELN3spv2OpE5949ELb1ELj4ELb0ELj4294967295ELj4294967295ELj4294967295EEEEEPNS_10SPIRVEntryEv@Base 0
 (optional=templinst)_ZN5SPIRV6createINS_17SPIRVInstTemplateINS_25SPIRVJointMatrixINTELInstELN3spv2OpE6120ELb1ELj6ELb1ELj4294967295ELj4294967295ELj4294967295EEEEEPNS_10SPIRVEntryEv@Base 14
 (optional=templinst)_ZN5SPIRV6createINS_17SPIRVInstTemplateINS_25SPIRVJointMatrixINTELInstELN3spv2OpE6121ELb0ELj5ELb1ELj4294967295ELj4294967295ELj4294967295EEEEEPNS_10SPIRVEntryEv@Base 14
 (optional=templinst)_ZN5SPIRV6createINS_17SPIRVInstTemplateINS_25SPIRVJointMatrixINTELInstELN3spv2OpE6122ELb1ELj7ELb0ELj4294967295ELj4294967295ELj4294967295EEEEEPNS_10SPIRVEntryEv@Base 14
 (optional=templinst)_ZN5SPIRV6createINS_17SPIRVInstTemplateINS_25SPIRVJointMatrixINTELInstELN3spv2OpE6410ELb1ELj4ELb0ELj4294967295ELj4294967295ELj4294967295EEEEEPNS_10SPIRVEntryEv@Base 14
 (optional=templinst)_ZN5SPIRV6createINS_17SPIRVInstTemplateINS_27SPIRVBlockingPipesIntelInstELN3spv2OpE5946ELb0ELj5ELb0ELj4294967295ELj4294967295ELj4294967295EEEEEPNS_10SPIRVEntryEv@Base 0
 (optional=templinst)_ZN5SPIRV6createINS_17SPIRVInstTemplateINS_27SPIRVBlockingPipesIntelInstELN3spv2OpE5947ELb0ELj5ELb0ELj4294967295ELj4294967295ELj4294967295EEEEEPNS_10SPIRVEntryEv@Base 0
 (optional=templinst)_ZN5SPIRV6createINS_17SPIRVInstTemplateINS_28SPIRVGroupNonUniformVoteInstELN3spv2OpE334ELb1ELj5ELb0ELj4294967295ELj4294967295ELj4294967295EEEEEPNS_10SPIRVEntryEv@Base 0
 (optional=templinst)_ZN5SPIRV6createINS_17SPIRVInstTemplateINS_28SPIRVGroupNonUniformVoteInstELN3spv2OpE335ELb1ELj5ELb0ELj4294967295ELj4294967295ELj4294967295EEEEEPNS_10SPIRVEntryEv@Base 0
 (optional=templinst)_ZN5SPIRV6createINS_17SPIRVInstTemplateINS_28SPIRVGroupNonUniformVoteInstELN3spv2OpE336ELb1ELj5ELb0ELj4294967295ELj4294967295ELj4294967295EEEEEPNS_10SPIRVEntryEv@Base 0
 (optional=templinst)_ZN5SPIRV6createINS_17SPIRVInstTemplateINS_29SPIRVGroupNonUniformElectInstELN3spv2OpE333ELb1ELj4ELb0ELj4294967295ELj4294967295ELj4294967295EEEEEPNS_10SPIRVEntryEv@Base 0
 (optional=templinst)_ZN5SPIRV6createINS_17SPIRVInstTemplateINS_29SPIRVSubgroupAVCIntelInstBaseELN3spv2OpE5699ELb1ELj5ELb0ELj4294967295ELj4294967295ELj4294967295EEEEEPNS_10SPIRVEntryEv@Base 0
 (optional=templinst)_ZN5SPIRV6createINS_17SPIRVInstTemplateINS_29SPIRVSubgroupAVCIntelInstBaseELN3spv2OpE5713ELb1ELj5ELb0ELj4294967295ELj4294967295ELj4294967295EEEEEPNS_10SPIRVEntryEv@Base 0
 (optional=templinst)_ZN5SPIRV6createINS_17SPIRVInstTemplateINS_29SPIRVSubgroupAVCIntelInstBaseELN3spv2OpE5714ELb1ELj5ELb0ELj4294967295ELj4294967295ELj4294967295EEEEEPNS_10SPIRVEntryEv@Base 0
 (optional=templinst)_ZN5SPIRV6createINS_17SPIRVInstTemplateINS_29SPIRVSubgroupAVCIntelInstBaseELN3spv2OpE5715ELb1ELj5ELb0ELj4294967295ELj4294967295ELj4294967295EEEEEPNS_10SPIRVEntryEv@Base 0
 (optional=templinst)_ZN5SPIRV6createINS_17SPIRVInstTemplateINS_29SPIRVSubgroupAVCIntelInstBaseELN3spv2OpE5716ELb1ELj5ELb0ELj4294967295ELj4294967295ELj4294967295EEEEEPNS_10SPIRVEntryEv@Base 0
 (optional=templinst)_ZN5SPIRV6createINS_17SPIRVInstTemplateINS_29SPIRVSubgroupAVCIntelInstBaseELN3spv2OpE5717ELb1ELj5ELb0ELj4294967295ELj4294967295ELj4294967295EEEEEPNS_10SPIRVEntryEv@Base 0
 (optional=templinst)_ZN5SPIRV6createINS_17SPIRVInstTemplateINS_29SPIRVSubgroupAVCIntelInstBaseELN3spv2OpE5718ELb1ELj5ELb0ELj4294967295ELj4294967295ELj4294967295EEEEEPNS_10SPIRVEntryEv@Base 0
 (optional=templinst)_ZN5SPIRV6createINS_17SPIRVInstTemplateINS_29SPIRVSubgroupAVCIntelInstBaseELN3spv2OpE5720ELb1ELj5ELb0ELj4294967295ELj4294967295ELj4294967295EEEEEPNS_10SPIRVEntryEv@Base 0
 (optional=templinst)_ZN5SPIRV6createINS_17SPIRVInstTemplateINS_29SPIRVSubgroupAVCIntelInstBaseELN3spv2OpE5721ELb1ELj3ELb0ELj4294967295ELj4294967295ELj4294967295EEEEEPNS_10SPIRVEntryEv@Base 0
 (optional=templinst)_ZN5SPIRV6createINS_17SPIRVInstTemplateINS_29SPIRVSubgroupAVCIntelInstBaseELN3spv2OpE5722ELb1ELj3ELb0ELj4294967295ELj4294967295ELj4294967295EEEEEPNS_10SPIRVEntryEv@Base 0
 (optional=templinst)_ZN5SPIRV6createINS_17SPIRVInstTemplateINS_29SPIRVSubgroupAVCIntelInstBaseELN3spv2OpE5723ELb1ELj3ELb0ELj4294967295ELj4294967295ELj4294967295EEEEEPNS_10SPIRVEntryEv@Base 0
 (optional=templinst)_ZN5SPIRV6createINS_17SPIRVInstTemplateINS_29SPIRVSubgroupAVCIntelInstBaseELN3spv2OpE5724ELb1ELj7ELb0ELj4294967295ELj4294967295ELj4294967295EEEEEPNS_10SPIRVEntryEv@Base 0
 (optional=templinst)_ZN5SPIRV6createINS_17SPIRVInstTemplateINS_29SPIRVSubgroupAVCIntelInstBaseELN3spv2OpE5728ELb1ELj4ELb0ELj4294967295ELj4294967295ELj4294967295EEEEEPNS_10SPIRVEntryEv@Base 0
 (optional=templinst)_ZN5SPIRV6createINS_17SPIRVInstTemplateINS_29SPIRVSubgroupAVCIntelInstBaseELN3spv2OpE5729ELb1ELj5ELb0ELj4294967295ELj4294967295ELj4294967295EEEEEPNS_10SPIRVEntryEv@Base 0
 (optional=templinst)_ZN5SPIRV6createINS_17SPIRVInstTemplateINS_29SPIRVSubgroupAVCIntelInstBaseELN3spv2OpE5730ELb1ELj5ELb0ELj4294967295ELj4294967295ELj4294967295EEEEEPNS_10SPIRVEntryEv@Base 0
 (optional=templinst)_ZN5SPIRV6createINS_17SPIRVInstTemplateINS_29SPIRVSubgroupAVCIntelInstBaseELN3spv2OpE5731ELb1ELj6ELb0ELj4294967295ELj4294967295ELj4294967295EEEEEPNS_10SPIRVEntryEv@Base 0
 (optional=templinst)_ZN5SPIRV6createINS_17SPIRVInstTemplateINS_29SPIRVSubgroupAVCIntelInstBaseELN3spv2OpE5732ELb1ELj4ELb0ELj4294967295ELj4294967295ELj4294967295EEEEEPNS_10SPIRVEntryEv@Base 0
 (optional=templinst)_ZN5SPIRV6createINS_17SPIRVInstTemplateINS_29SPIRVSubgroupAVCIntelInstBaseELN3spv2OpE5733ELb1ELj4ELb0ELj4294967295ELj4294967295ELj4294967295EEEEEPNS_10SPIRVEntryEv@Base 0
 (optional=templinst)_ZN5SPIRV6createINS_17SPIRVInstTemplateINS_29SPIRVSubgroupAVCIntelInstBaseELN3spv2OpE5734ELb1ELj4ELb0ELj4294967295ELj4294967295ELj4294967295EEEEEPNS_10SPIRVEntryEv@Base 0
 (optional=templinst)_ZN5SPIRV6createINS_17SPIRVInstTemplateINS_29SPIRVSubgroupAVCIntelInstBaseELN3spv2OpE5735ELb1ELj4ELb0ELj4294967295ELj4294967295ELj4294967295EEEEEPNS_10SPIRVEntryEv@Base 0
 (optional=templinst)_ZN5SPIRV6createINS_17SPIRVInstTemplateINS_29SPIRVSubgroupAVCIntelInstBaseELN3spv2OpE5736ELb1ELj4ELb0ELj4294967295ELj4294967295ELj4294967295EEEEEPNS_10SPIRVEntryEv@Base 0
 (optional=templinst)_ZN5SPIRV6createINS_17SPIRVInstTemplateINS_29SPIRVSubgroupAVCIntelInstBaseELN3spv2OpE5737ELb1ELj4ELb0ELj4294967295ELj4294967295ELj4294967295EEEEEPNS_10SPIRVEntryEv@Base 0
 (optional=templinst)_ZN5SPIRV6createINS_17SPIRVInstTemplateINS_29SPIRVSubgroupAVCIntelInstBaseELN3spv2OpE5738ELb1ELj4ELb0ELj4294967295ELj4294967295ELj4294967295EEEEEPNS_10SPIRVEntryEv@Base 0
 (optional=templinst)_ZN5SPIRV6createINS_17SPIRVInstTemplateINS_29SPIRVSubgroupAVCIntelInstBaseELN3spv2OpE5739ELb1ELj4ELb0ELj4294967295ELj4294967295ELj4294967295EEEEEPNS_10SPIRVEntryEv@Base 0
 (optional=templinst)_ZN5SPIRV6createINS_17SPIRVInstTemplateINS_29SPIRVSubgroupAVCIntelInstBaseELN3spv2OpE5740ELb1ELj4ELb0ELj4294967295ELj4294967295ELj4294967295EEEEEPNS_10SPIRVEntryEv@Base 0
 (optional=templinst)_ZN5SPIRV6createINS_17SPIRVInstTemplateINS_29SPIRVSubgroupAVCIntelInstBaseELN3spv2OpE5741ELb1ELj4ELb0ELj4294967295ELj4294967295ELj4294967295EEEEEPNS_10SPIRVEntryEv@Base 0
 (optional=templinst)_ZN5SPIRV6createINS_17SPIRVInstTemplateINS_29SPIRVSubgroupAVCIntelInstBaseELN3spv2OpE5742ELb1ELj4ELb0ELj4294967295ELj4294967295ELj4294967295EEEEEPNS_10SPIRVEntryEv@Base 0
 (optional=templinst)_ZN5SPIRV6createINS_17SPIRVInstTemplateINS_29SPIRVSubgroupAVCIntelInstBaseELN3spv2OpE5743ELb1ELj4ELb0ELj4294967295ELj4294967295ELj4294967295EEEEEPNS_10SPIRVEntryEv@Base 0
 (optional=templinst)_ZN5SPIRV6createINS_17SPIRVInstTemplateINS_29SPIRVSubgroupAVCIntelInstBaseELN3spv2OpE5744ELb1ELj4ELb0ELj4294967295ELj4294967295ELj4294967295EEEEEPNS_10SPIRVEntryEv@Base 0
 (optional=templinst)_ZN5SPIRV6createINS_17SPIRVInstTemplateINS_29SPIRVSubgroupAVCIntelInstBaseELN3spv2OpE5745ELb1ELj4ELb0ELj4294967295ELj4294967295ELj4294967295EEEEEPNS_10SPIRVEntryEv@Base 0
 (optional=templinst)_ZN5SPIRV6createINS_17SPIRVInstTemplateINS_29SPIRVSubgroupAVCIntelInstBaseELN3spv2OpE5746ELb1ELj6ELb0ELj4294967295ELj4294967295ELj4294967295EEEEEPNS_10SPIRVEntryEv@Base 0
 (optional=templinst)_ZN5SPIRV6createINS_17SPIRVInstTemplateINS_29SPIRVSubgroupAVCIntelInstBaseELN3spv2OpE5747ELb1ELj6ELb0ELj4294967295ELj4294967295ELj4294967295EEEEEPNS_10SPIRVEntryEv@Base 0
 (optional=templinst)_ZN5SPIRV6createINS_17SPIRVInstTemplateINS_29SPIRVSubgroupAVCIntelInstBaseELN3spv2OpE5748ELb1ELj6ELb0ELj4294967295ELj4294967295ELj4294967295EEEEEPNS_10SPIRVEntryEv@Base 0
 (optional=templinst)_ZN5SPIRV6createINS_17SPIRVInstTemplateINS_29SPIRVSubgroupAVCIntelInstBaseELN3spv2OpE5749ELb1ELj7ELb0ELj4294967295ELj4294967295ELj4294967295EEEEEPNS_10SPIRVEntryEv@Base 0
 (optional=templinst)_ZN5SPIRV6createINS_17SPIRVInstTemplateINS_29SPIRVSubgroupAVCIntelInstBaseELN3spv2OpE5750ELb1ELj5ELb0ELj4294967295ELj4294967295ELj4294967295EEEEEPNS_10SPIRVEntryEv@Base 0
 (optional=templinst)_ZN5SPIRV6createINS_17SPIRVInstTemplateINS_29SPIRVSubgroupAVCIntelInstBaseELN3spv2OpE5751ELb1ELj7ELb0ELj4294967295ELj4294967295ELj4294967295EEEEEPNS_10SPIRVEntryEv@Base 0
 (optional=templinst)_ZN5SPIRV6createINS_17SPIRVInstTemplateINS_29SPIRVSubgroupAVCIntelInstBaseELN3spv2OpE5752ELb1ELj4ELb0ELj4294967295ELj4294967295ELj4294967295EEEEEPNS_10SPIRVEntryEv@Base 0
 (optional=templinst)_ZN5SPIRV6createINS_17SPIRVInstTemplateINS_29SPIRVSubgroupAVCIntelInstBaseELN3spv2OpE5753ELb1ELj5ELb0ELj4294967295ELj4294967295ELj4294967295EEEEEPNS_10SPIRVEntryEv@Base 0
 (optional=templinst)_ZN5SPIRV6createINS_17SPIRVInstTemplateINS_29SPIRVSubgroupAVCIntelInstBaseELN3spv2OpE5754ELb1ELj4ELb0ELj4294967295ELj4294967295ELj4294967295EEEEEPNS_10SPIRVEntryEv@Base 0
 (optional=templinst)_ZN5SPIRV6createINS_17SPIRVInstTemplateINS_29SPIRVSubgroupAVCIntelInstBaseELN3spv2OpE5755ELb1ELj5ELb0ELj4294967295ELj4294967295ELj4294967295EEEEEPNS_10SPIRVEntryEv@Base 0
 (optional=templinst)_ZN5SPIRV6createINS_17SPIRVInstTemplateINS_29SPIRVSubgroupAVCIntelInstBaseELN3spv2OpE5756ELb1ELj5ELb0ELj4294967295ELj4294967295ELj4294967295EEEEEPNS_10SPIRVEntryEv@Base 0
 (optional=templinst)_ZN5SPIRV6createINS_17SPIRVInstTemplateINS_29SPIRVSubgroupAVCIntelInstBaseELN3spv2OpE5757ELb1ELj6ELb0ELj4294967295ELj4294967295ELj4294967295EEEEEPNS_10SPIRVEntryEv@Base 0
 (optional=templinst)_ZN5SPIRV6createINS_17SPIRVInstTemplateINS_29SPIRVSubgroupAVCIntelInstBaseELN3spv2OpE5758ELb1ELj7ELb0ELj4294967295ELj4294967295ELj4294967295EEEEEPNS_10SPIRVEntryEv@Base 0
 (optional=templinst)_ZN5SPIRV6createINS_17SPIRVInstTemplateINS_29SPIRVSubgroupAVCIntelInstBaseELN3spv2OpE5759ELb1ELj7ELb0ELj4294967295ELj4294967295ELj4294967295EEEEEPNS_10SPIRVEntryEv@Base 0
 (optional=templinst)_ZN5SPIRV6createINS_17SPIRVInstTemplateINS_29SPIRVSubgroupAVCIntelInstBaseELN3spv2OpE5760ELb1ELj8ELb0ELj4294967295ELj4294967295ELj4294967295EEEEEPNS_10SPIRVEntryEv@Base 0
 (optional=templinst)_ZN5SPIRV6createINS_17SPIRVInstTemplateINS_29SPIRVSubgroupAVCIntelInstBaseELN3spv2OpE5761ELb1ELj6ELb0ELj4294967295ELj4294967295ELj4294967295EEEEEPNS_10SPIRVEntryEv@Base 0
 (optional=templinst)_ZN5SPIRV6createINS_17SPIRVInstTemplateINS_29SPIRVSubgroupAVCIntelInstBaseELN3spv2OpE5762ELb1ELj7ELb0ELj4294967295ELj4294967295ELj4294967295EEEEEPNS_10SPIRVEntryEv@Base 0
 (optional=templinst)_ZN5SPIRV6createINS_17SPIRVInstTemplateINS_29SPIRVSubgroupAVCIntelInstBaseELN3spv2OpE5763ELb1ELj7ELb0ELj4294967295ELj4294967295ELj4294967295EEEEEPNS_10SPIRVEntryEv@Base 0
 (optional=templinst)_ZN5SPIRV6createINS_17SPIRVInstTemplateINS_29SPIRVSubgroupAVCIntelInstBaseELN3spv2OpE5764ELb1ELj8ELb0ELj4294967295ELj4294967295ELj4294967295EEEEEPNS_10SPIRVEntryEv@Base 0
 (optional=templinst)_ZN5SPIRV6createINS_17SPIRVInstTemplateINS_29SPIRVSubgroupAVCIntelInstBaseELN3spv2OpE5765ELb1ELj4ELb0ELj4294967295ELj4294967295ELj4294967295EEEEEPNS_10SPIRVEntryEv@Base 0
 (optional=templinst)_ZN5SPIRV6createINS_17SPIRVInstTemplateINS_29SPIRVSubgroupAVCIntelInstBaseELN3spv2OpE5766ELb1ELj4ELb0ELj4294967295ELj4294967295ELj4294967295EEEEEPNS_10SPIRVEntryEv@Base 0
 (optional=templinst)_ZN5SPIRV6createINS_17SPIRVInstTemplateINS_29SPIRVSubgroupAVCIntelInstBaseELN3spv2OpE5767ELb1ELj4ELb0ELj4294967295ELj4294967295ELj4294967295EEEEEPNS_10SPIRVEntryEv@Base 0
 (optional=templinst)_ZN5SPIRV6createINS_17SPIRVInstTemplateINS_29SPIRVSubgroupAVCIntelInstBaseELN3spv2OpE5768ELb1ELj4ELb0ELj4294967295ELj4294967295ELj4294967295EEEEEPNS_10SPIRVEntryEv@Base 0
 (optional=templinst)_ZN5SPIRV6createINS_17SPIRVInstTemplateINS_29SPIRVSubgroupAVCIntelInstBaseELN3spv2OpE5769ELb1ELj4ELb0ELj4294967295ELj4294967295ELj4294967295EEEEEPNS_10SPIRVEntryEv@Base 0
 (optional=templinst)_ZN5SPIRV6createINS_17SPIRVInstTemplateINS_29SPIRVSubgroupAVCIntelInstBaseELN3spv2OpE5770ELb1ELj5ELb0ELj4294967295ELj4294967295ELj4294967295EEEEEPNS_10SPIRVEntryEv@Base 0
 (optional=templinst)_ZN5SPIRV6createINS_17SPIRVInstTemplateINS_29SPIRVSubgroupAVCIntelInstBaseELN3spv2OpE5771ELb1ELj5ELb0ELj4294967295ELj4294967295ELj4294967295EEEEEPNS_10SPIRVEntryEv@Base 0
 (optional=templinst)_ZN5SPIRV6createINS_17SPIRVInstTemplateINS_29SPIRVSubgroupAVCIntelInstBaseELN3spv2OpE5772ELb1ELj5ELb0ELj4294967295ELj4294967295ELj4294967295EEEEEPNS_10SPIRVEntryEv@Base 0
 (optional=templinst)_ZN5SPIRV6createINS_17SPIRVInstTemplateINS_29SPIRVSubgroupAVCIntelInstBaseELN3spv2OpE5773ELb1ELj6ELb0ELj4294967295ELj4294967295ELj4294967295EEEEEPNS_10SPIRVEntryEv@Base 0
 (optional=templinst)_ZN5SPIRV6createINS_17SPIRVInstTemplateINS_29SPIRVSubgroupAVCIntelInstBaseELN3spv2OpE5774ELb1ELj6ELb0ELj4294967295ELj4294967295ELj4294967295EEEEEPNS_10SPIRVEntryEv@Base 0
 (optional=templinst)_ZN5SPIRV6createINS_17SPIRVInstTemplateINS_29SPIRVSubgroupAVCIntelInstBaseELN3spv2OpE5775ELb1ELj6ELb0ELj4294967295ELj4294967295ELj4294967295EEEEEPNS_10SPIRVEntryEv@Base 0
 (optional=templinst)_ZN5SPIRV6createINS_17SPIRVInstTemplateINS_29SPIRVSubgroupAVCIntelInstBaseELN3spv2OpE5776ELb1ELj5ELb0ELj4294967295ELj4294967295ELj4294967295EEEEEPNS_10SPIRVEntryEv@Base 0
 (optional=templinst)_ZN5SPIRV6createINS_17SPIRVInstTemplateINS_29SPIRVSubgroupAVCIntelInstBaseELN3spv2OpE5777ELb1ELj4ELb0ELj4294967295ELj4294967295ELj4294967295EEEEEPNS_10SPIRVEntryEv@Base 0
 (optional=templinst)_ZN5SPIRV6createINS_17SPIRVInstTemplateINS_29SPIRVSubgroupAVCIntelInstBaseELN3spv2OpE5778ELb1ELj4ELb0ELj4294967295ELj4294967295ELj4294967295EEEEEPNS_10SPIRVEntryEv@Base 0
 (optional=templinst)_ZN5SPIRV6createINS_17SPIRVInstTemplateINS_29SPIRVSubgroupAVCIntelInstBaseELN3spv2OpE5779ELb1ELj4ELb0ELj4294967295ELj4294967295ELj4294967295EEEEEPNS_10SPIRVEntryEv@Base 0
 (optional=templinst)_ZN5SPIRV6createINS_17SPIRVInstTemplateINS_29SPIRVSubgroupAVCIntelInstBaseELN3spv2OpE5780ELb1ELj4ELb0ELj4294967295ELj4294967295ELj4294967295EEEEEPNS_10SPIRVEntryEv@Base 0
 (optional=templinst)_ZN5SPIRV6createINS_17SPIRVInstTemplateINS_29SPIRVSubgroupAVCIntelInstBaseELN3spv2OpE5781ELb1ELj10ELb0ELj4294967295ELj4294967295ELj4294967295EEEEEPNS_10SPIRVEntryEv@Base 0
 (optional=templinst)_ZN5SPIRV6createINS_17SPIRVInstTemplateINS_29SPIRVSubgroupAVCIntelInstBaseELN3spv2OpE5782ELb1ELj11ELb0ELj4294967295ELj4294967295ELj4294967295EEEEEPNS_10SPIRVEntryEv@Base 0
 (optional=templinst)_ZN5SPIRV6createINS_17SPIRVInstTemplateINS_29SPIRVSubgroupAVCIntelInstBaseELN3spv2OpE5783ELb1ELj4ELb0ELj4294967295ELj4294967295ELj4294967295EEEEEPNS_10SPIRVEntryEv@Base 0
 (optional=templinst)_ZN5SPIRV6createINS_17SPIRVInstTemplateINS_29SPIRVSubgroupAVCIntelInstBaseELN3spv2OpE5784ELb1ELj4ELb0ELj4294967295ELj4294967295ELj4294967295EEEEEPNS_10SPIRVEntryEv@Base 0
 (optional=templinst)_ZN5SPIRV6createINS_17SPIRVInstTemplateINS_29SPIRVSubgroupAVCIntelInstBaseELN3spv2OpE5785ELb1ELj4ELb0ELj4294967295ELj4294967295ELj4294967295EEEEEPNS_10SPIRVEntryEv@Base 0
 (optional=templinst)_ZN5SPIRV6createINS_17SPIRVInstTemplateINS_29SPIRVSubgroupAVCIntelInstBaseELN3spv2OpE5786ELb1ELj6ELb0ELj4294967295ELj4294967295ELj4294967295EEEEEPNS_10SPIRVEntryEv@Base 0
 (optional=templinst)_ZN5SPIRV6createINS_17SPIRVInstTemplateINS_29SPIRVSubgroupAVCIntelInstBaseELN3spv2OpE5787ELb1ELj7ELb0ELj4294967295ELj4294967295ELj4294967295EEEEEPNS_10SPIRVEntryEv@Base 0
 (optional=templinst)_ZN5SPIRV6createINS_17SPIRVInstTemplateINS_29SPIRVSubgroupAVCIntelInstBaseELN3spv2OpE5788ELb1ELj6ELb0ELj4294967295ELj4294967295ELj4294967295EEEEEPNS_10SPIRVEntryEv@Base 0
 (optional=templinst)_ZN5SPIRV6createINS_17SPIRVInstTemplateINS_29SPIRVSubgroupAVCIntelInstBaseELN3spv2OpE5789ELb1ELj7ELb0ELj4294967295ELj4294967295ELj4294967295EEEEEPNS_10SPIRVEntryEv@Base 0
 (optional=templinst)_ZN5SPIRV6createINS_17SPIRVInstTemplateINS_29SPIRVSubgroupAVCIntelInstBaseELN3spv2OpE5790ELb1ELj4ELb0ELj4294967295ELj4294967295ELj4294967295EEEEEPNS_10SPIRVEntryEv@Base 0
 (optional=templinst)_ZN5SPIRV6createINS_17SPIRVInstTemplateINS_29SPIRVSubgroupAVCIntelInstBaseELN3spv2OpE5791ELb1ELj4ELb0ELj4294967295ELj4294967295ELj4294967295EEEEEPNS_10SPIRVEntryEv@Base 0
 (optional=templinst)_ZN5SPIRV6createINS_17SPIRVInstTemplateINS_29SPIRVSubgroupAVCIntelInstBaseELN3spv2OpE5792ELb1ELj9ELb0ELj4294967295ELj4294967295ELj4294967295EEEEEPNS_10SPIRVEntryEv@Base 0
 (optional=templinst)_ZN5SPIRV6createINS_17SPIRVInstTemplateINS_29SPIRVSubgroupAVCIntelInstBaseELN3spv2OpE5795ELb1ELj5ELb0ELj4294967295ELj4294967295ELj4294967295EEEEEPNS_10SPIRVEntryEv@Base 0
 (optional=templinst)_ZN5SPIRV6createINS_17SPIRVInstTemplateINS_29SPIRVSubgroupAVCIntelInstBaseELN3spv2OpE5796ELb1ELj4ELb0ELj4294967295ELj4294967295ELj4294967295EEEEEPNS_10SPIRVEntryEv@Base 0
 (optional=templinst)_ZN5SPIRV6createINS_17SPIRVInstTemplateINS_29SPIRVSubgroupAVCIntelInstBaseELN3spv2OpE5797ELb1ELj5ELb0ELj4294967295ELj4294967295ELj4294967295EEEEEPNS_10SPIRVEntryEv@Base 0
 (optional=templinst)_ZN5SPIRV6createINS_17SPIRVInstTemplateINS_29SPIRVSubgroupAVCIntelInstBaseELN3spv2OpE5800ELb1ELj4ELb0ELj4294967295ELj4294967295ELj4294967295EEEEEPNS_10SPIRVEntryEv@Base 0
 (optional=templinst)_ZN5SPIRV6createINS_17SPIRVInstTemplateINS_29SPIRVSubgroupAVCIntelInstBaseELN3spv2OpE5801ELb1ELj5ELb0ELj4294967295ELj4294967295ELj4294967295EEEEEPNS_10SPIRVEntryEv@Base 0
 (optional=templinst)_ZN5SPIRV6createINS_17SPIRVInstTemplateINS_29SPIRVSubgroupAVCIntelInstBaseELN3spv2OpE5802ELb1ELj5ELb0ELj4294967295ELj4294967295ELj4294967295EEEEEPNS_10SPIRVEntryEv@Base 0
 (optional=templinst)_ZN5SPIRV6createINS_17SPIRVInstTemplateINS_29SPIRVSubgroupAVCIntelInstBaseELN3spv2OpE5804ELb1ELj6ELb0ELj4294967295ELj4294967295ELj4294967295EEEEEPNS_10SPIRVEntryEv@Base 0
 (optional=templinst)_ZN5SPIRV6createINS_17SPIRVInstTemplateINS_29SPIRVSubgroupAVCIntelInstBaseELN3spv2OpE5805ELb1ELj7ELb0ELj4294967295ELj4294967295ELj4294967295EEEEEPNS_10SPIRVEntryEv@Base 0
 (optional=templinst)_ZN5SPIRV6createINS_17SPIRVInstTemplateINS_29SPIRVSubgroupAVCIntelInstBaseELN3spv2OpE5806ELb1ELj6ELb0ELj4294967295ELj4294967295ELj4294967295EEEEEPNS_10SPIRVEntryEv@Base 0
 (optional=templinst)_ZN5SPIRV6createINS_17SPIRVInstTemplateINS_29SPIRVSubgroupAVCIntelInstBaseELN3spv2OpE5807ELb1ELj7ELb0ELj4294967295ELj4294967295ELj4294967295EEEEEPNS_10SPIRVEntryEv@Base 0
 (optional=templinst)_ZN5SPIRV6createINS_17SPIRVInstTemplateINS_29SPIRVSubgroupAVCIntelInstBaseELN3spv2OpE5808ELb1ELj4ELb0ELj4294967295ELj4294967295ELj4294967295EEEEEPNS_10SPIRVEntryEv@Base 0
 (optional=templinst)_ZN5SPIRV6createINS_17SPIRVInstTemplateINS_29SPIRVSubgroupAVCIntelInstBaseELN3spv2OpE5816ELb1ELj4ELb0ELj4294967295ELj4294967295ELj4294967295EEEEEPNS_10SPIRVEntryEv@Base 0
 (optional=templinst)_ZN5SPIRV6createINS_17SPIRVInstTemplateINS_30SPIRVGroupNonUniformBallotInstELN3spv2OpE337ELb1ELj6ELb0ELj4294967295ELj4294967295ELj4294967295EEEEEPNS_10SPIRVEntryEv@Base 0
 (optional=templinst)_ZN5SPIRV6createINS_17SPIRVInstTemplateINS_30SPIRVGroupNonUniformBallotInstELN3spv2OpE338ELb1ELj5ELb0ELj4294967295ELj4294967295ELj4294967295EEEEEPNS_10SPIRVEntryEv@Base 0
 (optional=templinst)_ZN5SPIRV6createINS_17SPIRVInstTemplateINS_30SPIRVGroupNonUniformBallotInstELN3spv2OpE339ELb1ELj5ELb0ELj4294967295ELj4294967295ELj4294967295EEEEEPNS_10SPIRVEntryEv@Base 0
 (optional=templinst)_ZN5SPIRV6createINS_17SPIRVInstTemplateINS_30SPIRVGroupNonUniformBallotInstELN3spv2OpE340ELb1ELj5ELb0ELj4294967295ELj4294967295ELj4294967295EEEEEPNS_10SPIRVEntryEv@Base 0
 (optional=templinst)_ZN5SPIRV6createINS_17SPIRVInstTemplateINS_30SPIRVGroupNonUniformBallotInstELN3spv2OpE341ELb1ELj6ELb0ELj4294967295ELj4294967295ELj4294967295EEEEEPNS_10SPIRVEntryEv@Base 0
 (optional=templinst)_ZN5SPIRV6createINS_17SPIRVInstTemplateINS_30SPIRVGroupNonUniformBallotInstELN3spv2OpE342ELb1ELj6ELb0ELj1ELj4294967295ELj4294967295EEEEEPNS_10SPIRVEntryEv@Base 0
 (optional=templinst)_ZN5SPIRV6createINS_17SPIRVInstTemplateINS_30SPIRVGroupNonUniformBallotInstELN3spv2OpE343ELb1ELj5ELb0ELj4294967295ELj4294967295ELj4294967295EEEEEPNS_10SPIRVEntryEv@Base 0
 (optional=templinst)_ZN5SPIRV6createINS_17SPIRVInstTemplateINS_30SPIRVGroupNonUniformBallotInstELN3spv2OpE344ELb1ELj5ELb0ELj4294967295ELj4294967295ELj4294967295EEEEEPNS_10SPIRVEntryEv@Base 0
 (optional=templinst)_ZN5SPIRV6createINS_17SPIRVInstTemplateINS_31SPIRVGroupNonUniformShuffleInstELN3spv2OpE345ELb1ELj6ELb0ELj4294967295ELj4294967295ELj4294967295EEEEEPNS_10SPIRVEntryEv@Base 0
 (optional=templinst)_ZN5SPIRV6createINS_17SPIRVInstTemplateINS_31SPIRVGroupNonUniformShuffleInstELN3spv2OpE346ELb1ELj6ELb0ELj4294967295ELj4294967295ELj4294967295EEEEEPNS_10SPIRVEntryEv@Base 0
 (optional=templinst)_ZN5SPIRV6createINS_17SPIRVInstTemplateINS_33SPIRVGroupNonUniformRotateKHRInstELN3spv2OpE4431ELb1ELj6ELb1ELj4294967295ELj4294967295ELj4294967295EEEEEPNS_10SPIRVEntryEv@Base 15
 (optional=templinst)_ZN5SPIRV6createINS_17SPIRVInstTemplateINS_33SPIRVSubgroupShuffleINTELInstBaseELN3spv2OpE5571ELb1ELj5ELb0ELj4294967295ELj4294967295ELj4294967295EEEEEPNS_10SPIRVEntryEv@Base 0
 (optional=templinst)_ZN5SPIRV6createINS_17SPIRVInstTemplateINS_33SPIRVSubgroupShuffleINTELInstBaseELN3spv2OpE5572ELb1ELj6ELb0ELj4294967295ELj4294967295ELj4294967295EEEEEPNS_10SPIRVEntryEv@Base 0
 (optional=templinst)_ZN5SPIRV6createINS_17SPIRVInstTemplateINS_33SPIRVSubgroupShuffleINTELInstBaseELN3spv2OpE5573ELb1ELj6ELb0ELj4294967295ELj4294967295ELj4294967295EEEEEPNS_10SPIRVEntryEv@Base 0
 (optional=templinst)_ZN5SPIRV6createINS_17SPIRVInstTemplateINS_33SPIRVSubgroupShuffleINTELInstBaseELN3spv2OpE5574ELb1ELj5ELb0ELj4294967295ELj4294967295ELj4294967295EEEEEPNS_10SPIRVEntryEv@Base 0
 (optional=templinst)_ZN5SPIRV6createINS_17SPIRVInstTemplateINS_34SPIRVGroupNonUniformArithmeticInstELN3spv2OpE349ELb1ELj6ELb1ELj1ELj4294967295ELj4294967295EEEEEPNS_10SPIRVEntryEv@Base 0
 (optional=templinst)_ZN5SPIRV6createINS_17SPIRVInstTemplateINS_34SPIRVGroupNonUniformArithmeticInstELN3spv2OpE350ELb1ELj6ELb1ELj1ELj4294967295ELj4294967295EEEEEPNS_10SPIRVEntryEv@Base 0
 (optional=templinst)_ZN5SPIRV6createINS_17SPIRVInstTemplateINS_34SPIRVGroupNonUniformArithmeticInstELN3spv2OpE351ELb1ELj6ELb1ELj1ELj4294967295ELj4294967295EEEEEPNS_10SPIRVEntryEv@Base 0
 (optional=templinst)_ZN5SPIRV6createINS_17SPIRVInstTemplateINS_34SPIRVGroupNonUniformArithmeticInstELN3spv2OpE352ELb1ELj6ELb1ELj1ELj4294967295ELj4294967295EEEEEPNS_10SPIRVEntryEv@Base 0
 (optional=templinst)_ZN5SPIRV6createINS_17SPIRVInstTemplateINS_34SPIRVGroupNonUniformArithmeticInstELN3spv2OpE353ELb1ELj6ELb1ELj1ELj4294967295ELj4294967295EEEEEPNS_10SPIRVEntryEv@Base 0
 (optional=templinst)_ZN5SPIRV6createINS_17SPIRVInstTemplateINS_34SPIRVGroupNonUniformArithmeticInstELN3spv2OpE354ELb1ELj6ELb1ELj1ELj4294967295ELj4294967295EEEEEPNS_10SPIRVEntryEv@Base 0
 (optional=templinst)_ZN5SPIRV6createINS_17SPIRVInstTemplateINS_34SPIRVGroupNonUniformArithmeticInstELN3spv2OpE355ELb1ELj6ELb1ELj1ELj4294967295ELj4294967295EEEEEPNS_10SPIRVEntryEv@Base 0
 (optional=templinst)_ZN5SPIRV6createINS_17SPIRVInstTemplateINS_34SPIRVGroupNonUniformArithmeticInstELN3spv2OpE356ELb1ELj6ELb1ELj1ELj4294967295ELj4294967295EEEEEPNS_10SPIRVEntryEv@Base 0
 (optional=templinst)_ZN5SPIRV6createINS_17SPIRVInstTemplateINS_34SPIRVGroupNonUniformArithmeticInstELN3spv2OpE357ELb1ELj6ELb1ELj1ELj4294967295ELj4294967295EEEEEPNS_10SPIRVEntryEv@Base 0
 (optional=templinst)_ZN5SPIRV6createINS_17SPIRVInstTemplateINS_34SPIRVGroupNonUniformArithmeticInstELN3spv2OpE358ELb1ELj6ELb1ELj1ELj4294967295ELj4294967295EEEEEPNS_10SPIRVEntryEv@Base 0
 (optional=templinst)_ZN5SPIRV6createINS_17SPIRVInstTemplateINS_34SPIRVGroupNonUniformArithmeticInstELN3spv2OpE359ELb1ELj6ELb1ELj1ELj4294967295ELj4294967295EEEEEPNS_10SPIRVEntryEv@Base 0
 (optional=templinst)_ZN5SPIRV6createINS_17SPIRVInstTemplateINS_34SPIRVGroupNonUniformArithmeticInstELN3spv2OpE360ELb1ELj6ELb1ELj1ELj4294967295ELj4294967295EEEEEPNS_10SPIRVEntryEv@Base 0
 (optional=templinst)_ZN5SPIRV6createINS_17SPIRVInstTemplateINS_34SPIRVGroupNonUniformArithmeticInstELN3spv2OpE361ELb1ELj6ELb1ELj1ELj4294967295ELj4294967295EEEEEPNS_10SPIRVEntryEv@Base 0
 (optional=templinst)_ZN5SPIRV6createINS_17SPIRVInstTemplateINS_34SPIRVGroupNonUniformArithmeticInstELN3spv2OpE362ELb1ELj6ELb1ELj1ELj4294967295ELj4294967295EEEEEPNS_10SPIRVEntryEv@Base 0
 (optional=templinst)_ZN5SPIRV6createINS_17SPIRVInstTemplateINS_34SPIRVGroupNonUniformArithmeticInstELN3spv2OpE363ELb1ELj6ELb1ELj1ELj4294967295ELj4294967295EEEEEPNS_10SPIRVEntryEv@Base 0
 (optional=templinst)_ZN5SPIRV6createINS_17SPIRVInstTemplateINS_34SPIRVGroupNonUniformArithmeticInstELN3spv2OpE364ELb1ELj6ELb1ELj1ELj4294967295ELj4294967295EEEEEPNS_10SPIRVEntryEv@Base 0
 (optional=templinst)_ZN5SPIRV6createINS_17SPIRVInstTemplateINS_34SPIRVSubgroupAVCIntelInstBaseIntraELN3spv2OpE5719ELb1ELj5ELb0ELj4294967295ELj4294967295ELj4294967295EEEEEPNS_10SPIRVEntryEv@Base 0
 (optional=templinst)_ZN5SPIRV6createINS_17SPIRVInstTemplateINS_34SPIRVSubgroupAVCIntelInstBaseIntraELN3spv2OpE5725ELb1ELj5ELb0ELj4294967295ELj4294967295ELj4294967295EEEEEPNS_10SPIRVEntryEv@Base 0
 (optional=templinst)_ZN5SPIRV6createINS_17SPIRVInstTemplateINS_34SPIRVSubgroupAVCIntelInstBaseIntraELN3spv2OpE5726ELb1ELj3ELb0ELj4294967295ELj4294967295ELj4294967295EEEEEPNS_10SPIRVEntryEv@Base 0
 (optional=templinst)_ZN5SPIRV6createINS_17SPIRVInstTemplateINS_34SPIRVSubgroupAVCIntelInstBaseIntraELN3spv2OpE5793ELb1ELj11ELb0ELj4294967295ELj4294967295ELj4294967295EEEEEPNS_10SPIRVEntryEv@Base 0
 (optional=templinst)_ZN5SPIRV6createINS_17SPIRVInstTemplateINS_34SPIRVSubgroupAVCIntelInstBaseIntraELN3spv2OpE5798ELb1ELj7ELb0ELj4294967295ELj4294967295ELj4294967295EEEEEPNS_10SPIRVEntryEv@Base 0
 (optional=templinst)_ZN5SPIRV6createINS_17SPIRVInstTemplateINS_34SPIRVSubgroupAVCIntelInstBaseIntraELN3spv2OpE5803ELb1ELj5ELb0ELj4294967295ELj4294967295ELj4294967295EEEEEPNS_10SPIRVEntryEv@Base 0
 (optional=templinst)_ZN5SPIRV6createINS_17SPIRVInstTemplateINS_34SPIRVSubgroupAVCIntelInstBaseIntraELN3spv2OpE5809ELb1ELj4ELb0ELj4294967295ELj4294967295ELj4294967295EEEEEPNS_10SPIRVEntryEv@Base 0
 (optional=templinst)_ZN5SPIRV6createINS_17SPIRVInstTemplateINS_34SPIRVSubgroupAVCIntelInstBaseIntraELN3spv2OpE5810ELb1ELj4ELb0ELj4294967295ELj4294967295ELj4294967295EEEEEPNS_10SPIRVEntryEv@Base 0
 (optional=templinst)_ZN5SPIRV6createINS_17SPIRVInstTemplateINS_34SPIRVSubgroupAVCIntelInstBaseIntraELN3spv2OpE5812ELb1ELj4ELb0ELj4294967295ELj4294967295ELj4294967295EEEEEPNS_10SPIRVEntryEv@Base 0
 (optional=templinst)_ZN5SPIRV6createINS_17SPIRVInstTemplateINS_34SPIRVSubgroupAVCIntelInstBaseIntraELN3spv2OpE5814ELb1ELj4ELb0ELj4294967295ELj4294967295ELj4294967295EEEEEPNS_10SPIRVEntryEv@Base 0
 (optional=templinst)_ZN5SPIRV6createINS_17SPIRVInstTemplateINS_34SPIRVSubgroupAVCIntelInstBaseIntraELN3spv2OpE5815ELb1ELj4ELb0ELj4294967295ELj4294967295ELj4294967295EEEEEPNS_10SPIRVEntryEv@Base 0
 (optional=templinst)_ZN5SPIRV6createINS_17SPIRVInstTemplateINS_35SPIRVSubgroupAVCIntelInstBaseChromaELN3spv2OpE5727ELb1ELj3ELb0ELj4294967295ELj4294967295ELj4294967295EEEEEPNS_10SPIRVEntryEv@Base 0
 (optional=templinst)_ZN5SPIRV6createINS_17SPIRVInstTemplateINS_35SPIRVSubgroupAVCIntelInstBaseChromaELN3spv2OpE5794ELb1ELj14ELb0ELj4294967295ELj4294967295ELj4294967295EEEEEPNS_10SPIRVEntryEv@Base 0
 (optional=templinst)_ZN5SPIRV6createINS_17SPIRVInstTemplateINS_35SPIRVSubgroupAVCIntelInstBaseChromaELN3spv2OpE5799ELb1ELj5ELb0ELj4294967295ELj4294967295ELj4294967295EEEEEPNS_10SPIRVEntryEv@Base 0
 (optional=templinst)_ZN5SPIRV6createINS_17SPIRVInstTemplateINS_35SPIRVSubgroupAVCIntelInstBaseChromaELN3spv2OpE5811ELb1ELj4ELb0ELj4294967295ELj4294967295ELj4294967295EEEEEPNS_10SPIRVEntryEv@Base 0
 (optional=templinst)_ZN5SPIRV6createINS_17SPIRVInstTemplateINS_35SPIRVSubgroupAVCIntelInstBaseChromaELN3spv2OpE5813ELb1ELj4ELb0ELj4294967295ELj4294967295ELj4294967295EEEEEPNS_10SPIRVEntryEv@Base 0
 (optional=templinst)_ZN5SPIRV6createINS_17SPIRVInstTemplateINS_37SPIRVVariableLengthArrayINTELInstBaseELN3spv2OpE5818ELb1ELj4ELb0ELj4294967295ELj4294967295ELj4294967295EEEEEPNS_10SPIRVEntryEv@Base 12
 (optional=templinst)_ZN5SPIRV6createINS_17SPIRVInstTemplateINS_37SPIRVVariableLengthArrayINTELInstBaseELN3spv2OpE5819ELb1ELj3ELb0ELj4294967295ELj4294967295ELj4294967295EEEEEPNS_10SPIRVEntryEv@Base 12
 (optional=templinst)_ZN5SPIRV6createINS_17SPIRVInstTemplateINS_37SPIRVVariableLengthArrayINTELInstBaseELN3spv2OpE5820ELb0ELj2ELb0ELj4294967295ELj4294967295ELj4294967295EEEEEPNS_10SPIRVEntryEv@Base 12
 (optional=templinst)_ZN5SPIRV6createINS_17SPIRVInstTemplateINS_38SPIRVGroupUniformArithmeticKHRInstBaseELN3spv2OpE6401ELb1ELj6ELb0ELj1ELj4294967295ELj4294967295EEEEEPNS_10SPIRVEntryEv@Base 15
 (optional=templinst)_ZN5SPIRV6createINS_17SPIRVInstTemplateINS_38SPIRVGroupUniformArithmeticKHRInstBaseELN3spv2OpE6402ELb1ELj6ELb0ELj1ELj4294967295ELj4294967295EEEEEPNS_10SPIRVEntryEv@Base 15
 (optional=templinst)_ZN5SPIRV6createINS_17SPIRVInstTemplateINS_38SPIRVGroupUniformArithmeticKHRInstBaseELN3spv2OpE6403ELb1ELj6ELb0ELj1ELj4294967295ELj4294967295EEEEEPNS_10SPIRVEntryEv@Base 15
 (optional=templinst)_ZN5SPIRV6createINS_17SPIRVInstTemplateINS_38SPIRVGroupUniformArithmeticKHRInstBaseELN3spv2OpE6404ELb1ELj6ELb0ELj1ELj4294967295ELj4294967295EEEEEPNS_10SPIRVEntryEv@Base 15
 (optional=templinst)_ZN5SPIRV6createINS_17SPIRVInstTemplateINS_38SPIRVGroupUniformArithmeticKHRInstBaseELN3spv2OpE6405ELb1ELj6ELb0ELj1ELj4294967295ELj4294967295EEEEEPNS_10SPIRVEntryEv@Base 15
 (optional=templinst)_ZN5SPIRV6createINS_17SPIRVInstTemplateINS_38SPIRVGroupUniformArithmeticKHRInstBaseELN3spv2OpE6406ELb1ELj6ELb0ELj1ELj4294967295ELj4294967295EEEEEPNS_10SPIRVEntryEv@Base 15
 (optional=templinst)_ZN5SPIRV6createINS_17SPIRVInstTemplateINS_38SPIRVGroupUniformArithmeticKHRInstBaseELN3spv2OpE6407ELb1ELj6ELb0ELj1ELj4294967295ELj4294967295EEEEEPNS_10SPIRVEntryEv@Base 15
 (optional=templinst)_ZN5SPIRV6createINS_17SPIRVInstTemplateINS_38SPIRVGroupUniformArithmeticKHRInstBaseELN3spv2OpE6408ELb1ELj6ELb0ELj1ELj4294967295ELj4294967295EEEEEPNS_10SPIRVEntryEv@Base 15
 (optional=templinst)_ZN5SPIRV6createINS_17SPIRVInstTemplateINS_38SPIRVSubgroupImageBlockIOINTELInstBaseELN3spv2OpE5577ELb1ELj5ELb0ELj4294967295ELj4294967295ELj4294967295EEEEEPNS_10SPIRVEntryEv@Base 0
 (optional=templinst)_ZN5SPIRV6createINS_17SPIRVInstTemplateINS_38SPIRVSubgroupImageBlockIOINTELInstBaseELN3spv2OpE5578ELb0ELj4ELb0ELj4294967295ELj4294967295ELj4294967295EEEEEPNS_10SPIRVEntryEv@Base 0
 (optional=templinst)_ZN5SPIRV6createINS_17SPIRVInstTemplateINS_39SPIRVGroupNonUniformShuffleRelativeInstELN3spv2OpE347ELb1ELj6ELb0ELj4294967295ELj4294967295ELj4294967295EEEEEPNS_10SPIRVEntryEv@Base 0
 (optional=templinst)_ZN5SPIRV6createINS_17SPIRVInstTemplateINS_39SPIRVGroupNonUniformShuffleRelativeInstELN3spv2OpE348ELb1ELj6ELb0ELj4294967295ELj4294967295ELj4294967295EEEEEPNS_10SPIRVEntryEv@Base 0
 (optional=templinst)_ZN5SPIRV6createINS_17SPIRVInstTemplateINS_39SPIRVSubgroupBufferBlockIOINTELInstBaseELN3spv2OpE5575ELb1ELj4ELb0ELj4294967295ELj4294967295ELj4294967295EEEEEPNS_10SPIRVEntryEv@Base 0
 (optional=templinst)_ZN5SPIRV6createINS_17SPIRVInstTemplateINS_39SPIRVSubgroupBufferBlockIOINTELInstBaseELN3spv2OpE5576ELb0ELj3ELb0ELj4294967295ELj4294967295ELj4294967295EEEEEPNS_10SPIRVEntryEv@Base 0
 (optional=templinst)_ZN5SPIRV6createINS_17SPIRVInstTemplateINS_43SPIRVSubgroupImageMediaBlockIOINTELInstBaseELN3spv2OpE5580ELb1ELj7ELb0ELj4294967295ELj4294967295ELj4294967295EEEEEPNS_10SPIRVEntryEv@Base 0
 (optional=templinst)_ZN5SPIRV6createINS_17SPIRVInstTemplateINS_43SPIRVSubgroupImageMediaBlockIOINTELInstBaseELN3spv2OpE5581ELb0ELj6ELb0ELj4294967295ELj4294967295ELj4294967295EEEEEPNS_10SPIRVEntryEv@Base 0
 (optional=templinst)_ZN5SPIRV6createINS_17SPIRVTypeFunctionEEEPNS_10SPIRVEntryEv@Base 0
 (optional=templinst)_ZN5SPIRV6createINS_18SPIRVAssumeTrueKHREEEPNS_10SPIRVEntryEv@Base 13
 (optional=templinst)_ZN5SPIRV6createINS_18SPIRVExecutionModeEEEPNS_10SPIRVEntryEv@Base 0
 (optional=templinst)_ZN5SPIRV6createINS_18SPIRVExtInstImportEEEPNS_10SPIRVEntryEv@Base 0
 (optional=templinst)_ZN5SPIRV6createINS_18SPIRVGroupDecorateEEEPNS_10SPIRVEntryEv@Base 0
 (optional=templinst)_ZN5SPIRV6createINS_18SPIRVInstNoOperandILN3spv2OpE253EEEEEPNS_10SPIRVEntryEv@Base 0
 (optional=templinst)_ZN5SPIRV6createINS_18SPIRVInstNoOperandILN3spv2OpE255EEEEEPNS_10SPIRVEntryEv@Base 0
 (optional=templinst)_ZN5SPIRV6createINS_19SPIRVAsmTargetINTELEEEPNS_10SPIRVEntryEv@Base 0
 (optional=templinst)_ZN5SPIRV6createINS_19SPIRVControlBarrierEEEPNS_10SPIRVEntryEv@Base 0
 (optional=templinst)_ZN5SPIRV6createINS_19SPIRVGroupAsyncCopyEEEPNS_10SPIRVEntryEv@Base 0
 (optional=templinst)_ZN5SPIRV6createINS_19SPIRVMemberDecorateEEEPNS_10SPIRVEntryEv@Base 0
 (optional=templinst)_ZN5SPIRV6createINS_19SPIRVSelectionMergeEEEPNS_10SPIRVEntryEv@Base 0
 (optional=templinst)_ZN5SPIRV6createINS_19SPIRVTypeTokenINTELEEEPNS_10SPIRVEntryEv@Base 13
 (optional=templinst)_ZN5SPIRV6createINS_20SPIRVConstantSamplerEEEPNS_10SPIRVEntryEv@Base 0
 (optional=templinst)_ZN5SPIRV6createINS_20SPIRVCopyMemorySizedEEEPNS_10SPIRVEntryEv@Base 0
 (optional=templinst)_ZN5SPIRV6createINS_20SPIRVDecorationGroupEEEPNS_10SPIRVEntryEv@Base 0
 (optional=templinst)_ZN5SPIRV6createINS_20SPIRVEntryOpCodeOnlyILN3spv2OpE56EEEEEPNS_10SPIRVEntryEv@Base 0
 (optional=templinst)_ZN5SPIRV6createINS_20SPIRVModuleProcessedEEEPNS_10SPIRVEntryEv@Base 12
 (optional=templinst)_ZN5SPIRV6createINS_20SPIRVSourceExtensionEEEPNS_10SPIRVEntryEv@Base 0
 (optional=templinst)_ZN5SPIRV6createINS_20SPIRVTypeDeviceEventEEEPNS_10SPIRVEntryEv@Base 0
 (optional=templinst)_ZN5SPIRV6createINS_20SPIRVTypePipeStorageEEEPNS_10SPIRVEntryEv@Base 0
 (optional=templinst)_ZN5SPIRV6createINS_21SPIRVComplexFloatInstILN3spv2OpE6415EEEEEPNS_10SPIRVEntryEv@Base 15
 (optional=templinst)_ZN5SPIRV6createINS_21SPIRVComplexFloatInstILN3spv2OpE6416EEEEEPNS_10SPIRVEntryEv@Base 15
 (optional=templinst)_ZN5SPIRV6createINS_21SPIRVLoopControlINTELEEEPNS_10SPIRVEntryEv@Base 0
 (optional=templinst)_ZN5SPIRV6createINS_21SPIRVTypeSampledImageEEEPNS_10SPIRVEntryEv@Base 0
 (optional=templinst)_ZN5SPIRV6createINS_22SPIRVBranchConditionalEEEPNS_10SPIRVEntryEv@Base 0
 (optional=templinst)_ZN5SPIRV6createINS_22SPIRVFunctionParameterEEEPNS_10SPIRVEntryEv@Base 0
 (optional=templinst)_ZN5SPIRV6createINS_22SPIRVMatrixTimesMatrixEEEPNS_10SPIRVEntryEv@Base 0
 (optional=templinst)_ZN5SPIRV6createINS_22SPIRVMatrixTimesScalarEEEPNS_10SPIRVEntryEv@Base 0
 (optional=templinst)_ZN5SPIRV6createINS_22SPIRVMatrixTimesVectorEEEPNS_10SPIRVEntryEv@Base 0
 (optional=templinst)_ZN5SPIRV6createINS_22SPIRVOpaqueGenericTypeILN3spv2OpE34EEEEEPNS_10SPIRVEntryEv@Base 0
 (optional=templinst)_ZN5SPIRV6createINS_22SPIRVOpaqueGenericTypeILN3spv2OpE36EEEEEPNS_10SPIRVEntryEv@Base 0
 (optional=templinst)_ZN5SPIRV6createINS_22SPIRVTypeVmeImageINTELEEEPNS_10SPIRVEntryEv@Base 0
 (optional=templinst)_ZN5SPIRV6createINS_22SPIRVVectorTimesMatrixEEEPNS_10SPIRVEntryEv@Base 0
 (optional=templinst)_ZN5SPIRV6createINS_22SPIRVVectorTimesScalarEEEPNS_10SPIRVEntryEv@Base 0
 (optional=templinst)_ZN5SPIRV6createINS_23SPIRVAccessChainGenericILN3spv2OpE65ELj4EEEEEPNS_10SPIRVEntryEv@Base 0
 (optional=templinst)_ZN5SPIRV6createINS_23SPIRVAccessChainGenericILN3spv2OpE66ELj4EEEEEPNS_10SPIRVEntryEv@Base 0
 (optional=templinst)_ZN5SPIRV6createINS_23SPIRVAccessChainGenericILN3spv2OpE67ELj5EEEEEPNS_10SPIRVEntryEv@Base 0
 (optional=templinst)_ZN5SPIRV6createINS_23SPIRVAccessChainGenericILN3spv2OpE70ELj5EEEEEPNS_10SPIRVEntryEv@Base 0
 (optional=templinst)_ZN5SPIRV6createINS_23SPIRVCompositeConstructEEEPNS_10SPIRVEntryEv@Base 0
 (optional=templinst)_ZN5SPIRV6createINS_23SPIRVEntryUnimplementedILN3spv2OpE0EEEEEPNS_10SPIRVEntryEv@Base 0
 (optional=templinst)_ZN5SPIRV6createINS_23SPIRVEntryUnimplementedILN3spv2OpE100EEEEEPNS_10SPIRVEntryEv@Base 0
 (optional=templinst)_ZN5SPIRV6createINS_23SPIRVEntryUnimplementedILN3spv2OpE116EEEEEPNS_10SPIRVEntryEv@Base 0
 (optional=templinst)_ZN5SPIRV6createINS_23SPIRVEntryUnimplementedILN3spv2OpE147EEEEEPNS_10SPIRVEntryEv@Base 0
 (optional=templinst)_ZN5SPIRV6createINS_23SPIRVEntryUnimplementedILN3spv2OpE149EEEEEPNS_10SPIRVEntryEv@Base 0
 (optional=templinst)_ZN5SPIRV6createINS_23SPIRVEntryUnimplementedILN3spv2OpE150EEEEEPNS_10SPIRVEntryEv@Base 0
 (optional=templinst)_ZN5SPIRV6createINS_23SPIRVEntryUnimplementedILN3spv2OpE151EEEEEPNS_10SPIRVEntryEv@Base 0
 (optional=templinst)_ZN5SPIRV6createINS_23SPIRVEntryUnimplementedILN3spv2OpE152EEEEEPNS_10SPIRVEntryEv@Base 0
 (optional=templinst)_ZN5SPIRV6createINS_23SPIRVEntryUnimplementedILN3spv2OpE207EEEEEPNS_10SPIRVEntryEv@Base 0
 (optional=templinst)_ZN5SPIRV6createINS_23SPIRVEntryUnimplementedILN3spv2OpE208EEEEEPNS_10SPIRVEntryEv@Base 0
 (optional=templinst)_ZN5SPIRV6createINS_23SPIRVEntryUnimplementedILN3spv2OpE209EEEEEPNS_10SPIRVEntryEv@Base 0
 (optional=templinst)_ZN5SPIRV6createINS_23SPIRVEntryUnimplementedILN3spv2OpE210EEEEEPNS_10SPIRVEntryEv@Base 0
 (optional=templinst)_ZN5SPIRV6createINS_23SPIRVEntryUnimplementedILN3spv2OpE211EEEEEPNS_10SPIRVEntryEv@Base 0
 (optional=templinst)_ZN5SPIRV6createINS_23SPIRVEntryUnimplementedILN3spv2OpE212EEEEEPNS_10SPIRVEntryEv@Base 0
 (optional=templinst)_ZN5SPIRV6createINS_23SPIRVEntryUnimplementedILN3spv2OpE213EEEEEPNS_10SPIRVEntryEv@Base 0
 (optional=templinst)_ZN5SPIRV6createINS_23SPIRVEntryUnimplementedILN3spv2OpE214EEEEEPNS_10SPIRVEntryEv@Base 0
 (optional=templinst)_ZN5SPIRV6createINS_23SPIRVEntryUnimplementedILN3spv2OpE215EEEEEPNS_10SPIRVEntryEv@Base 0
 (optional=templinst)_ZN5SPIRV6createINS_23SPIRVEntryUnimplementedILN3spv2OpE218EEEEEPNS_10SPIRVEntryEv@Base 0
 (optional=templinst)_ZN5SPIRV6createINS_23SPIRVEntryUnimplementedILN3spv2OpE219EEEEEPNS_10SPIRVEntryEv@Base 0
 (optional=templinst)_ZN5SPIRV6createINS_23SPIRVEntryUnimplementedILN3spv2OpE220EEEEEPNS_10SPIRVEntryEv@Base 0
 (optional=templinst)_ZN5SPIRV6createINS_23SPIRVEntryUnimplementedILN3spv2OpE221EEEEEPNS_10SPIRVEntryEv@Base 0
 (optional=templinst)_ZN5SPIRV6createINS_23SPIRVEntryUnimplementedILN3spv2OpE252EEEEEPNS_10SPIRVEntryEv@Base 0
 (optional=templinst)_ZN5SPIRV6createINS_23SPIRVEntryUnimplementedILN3spv2OpE29EEEEEPNS_10SPIRVEntryEv@Base 0
 (optional=templinst)_ZN5SPIRV6createINS_23SPIRVEntryUnimplementedILN3spv2OpE2EEEEEPNS_10SPIRVEntryEv@Base 0
 (optional=templinst)_ZN5SPIRV6createINS_23SPIRVEntryUnimplementedILN3spv2OpE305EEEEEPNS_10SPIRVEntryEv@Base 0
 (optional=templinst)_ZN5SPIRV6createINS_23SPIRVEntryUnimplementedILN3spv2OpE306EEEEEPNS_10SPIRVEntryEv@Base 0
 (optional=templinst)_ZN5SPIRV6createINS_23SPIRVEntryUnimplementedILN3spv2OpE307EEEEEPNS_10SPIRVEntryEv@Base 0
 (optional=templinst)_ZN5SPIRV6createINS_23SPIRVEntryUnimplementedILN3spv2OpE308EEEEEPNS_10SPIRVEntryEv@Base 0
 (optional=templinst)_ZN5SPIRV6createINS_23SPIRVEntryUnimplementedILN3spv2OpE309EEEEEPNS_10SPIRVEntryEv@Base 0
 (optional=templinst)_ZN5SPIRV6createINS_23SPIRVEntryUnimplementedILN3spv2OpE310EEEEEPNS_10SPIRVEntryEv@Base 0
 (optional=templinst)_ZN5SPIRV6createINS_23SPIRVEntryUnimplementedILN3spv2OpE311EEEEEPNS_10SPIRVEntryEv@Base 0
 (optional=templinst)_ZN5SPIRV6createINS_23SPIRVEntryUnimplementedILN3spv2OpE312EEEEEPNS_10SPIRVEntryEv@Base 0
 (optional=templinst)_ZN5SPIRV6createINS_23SPIRVEntryUnimplementedILN3spv2OpE313EEEEEPNS_10SPIRVEntryEv@Base 0
 (optional=templinst)_ZN5SPIRV6createINS_23SPIRVEntryUnimplementedILN3spv2OpE314EEEEEPNS_10SPIRVEntryEv@Base 0
 (optional=templinst)_ZN5SPIRV6createINS_23SPIRVEntryUnimplementedILN3spv2OpE315EEEEEPNS_10SPIRVEntryEv@Base 0
 (optional=templinst)_ZN5SPIRV6createINS_23SPIRVEntryUnimplementedILN3spv2OpE316EEEEEPNS_10SPIRVEntryEv@Base 0
 (optional=templinst)_ZN5SPIRV6createINS_23SPIRVEntryUnimplementedILN3spv2OpE317EEEEEPNS_10SPIRVEntryEv@Base 0
 (optional=templinst)_ZN5SPIRV6createINS_23SPIRVEntryUnimplementedILN3spv2OpE60EEEEEPNS_10SPIRVEntryEv@Base 0
 (optional=templinst)_ZN5SPIRV6createINS_23SPIRVEntryUnimplementedILN3spv2OpE68EEEEEPNS_10SPIRVEntryEv@Base 0
 (optional=templinst)_ZN5SPIRV6createINS_23SPIRVEntryUnimplementedILN3spv2OpE89EEEEEPNS_10SPIRVEntryEv@Base 0
 (optional=templinst)_ZN5SPIRV6createINS_23SPIRVEntryUnimplementedILN3spv2OpE90EEEEEPNS_10SPIRVEntryEv@Base 0
 (optional=templinst)_ZN5SPIRV6createINS_23SPIRVEntryUnimplementedILN3spv2OpE91EEEEEPNS_10SPIRVEntryEv@Base 0
 (optional=templinst)_ZN5SPIRV6createINS_23SPIRVEntryUnimplementedILN3spv2OpE92EEEEEPNS_10SPIRVEntryEv@Base 0
 (optional=templinst)_ZN5SPIRV6createINS_23SPIRVEntryUnimplementedILN3spv2OpE93EEEEEPNS_10SPIRVEntryEv@Base 0
 (optional=templinst)_ZN5SPIRV6createINS_23SPIRVEntryUnimplementedILN3spv2OpE94EEEEEPNS_10SPIRVEntryEv@Base 0
 (optional=templinst)_ZN5SPIRV6createINS_23SPIRVEntryUnimplementedILN3spv2OpE95EEEEEPNS_10SPIRVEntryEv@Base 0
 (optional=templinst)_ZN5SPIRV6createINS_23SPIRVEntryUnimplementedILN3spv2OpE96EEEEEPNS_10SPIRVEntryEv@Base 0
 (optional=templinst)_ZN5SPIRV6createINS_23SPIRVEntryUnimplementedILN3spv2OpE97EEEEEPNS_10SPIRVEntryEv@Base 0
 (optional=templinst)_ZN5SPIRV6createINS_23SPIRVTypeForwardPointerEEEPNS_10SPIRVEntryEv@Base 0
 (optional=templinst)_ZN5SPIRV6createINS_24SPIRVConstantPipeStorageEEEPNS_10SPIRVEntryEv@Base 0
 (optional=templinst)_ZN5SPIRV6createINS_24SPIRVGroupMemberDecorateEEEPNS_10SPIRVEntryEv@Base 0
 (optional=templinst)_ZN5SPIRV6createINS_24SPIRVVectorInsertDynamicEEEPNS_10SPIRVEntryEv@Base 0
 (optional=templinst)_ZN5SPIRV6createINS_25SPIRVSubgroupAvcINTELTypeILN3spv2OpE5701EEEEEPNS_10SPIRVEntryEv@Base 0
 (optional=templinst)_ZN5SPIRV6createINS_25SPIRVSubgroupAvcINTELTypeILN3spv2OpE5702EEEEEPNS_10SPIRVEntryEv@Base 0
 (optional=templinst)_ZN5SPIRV6createINS_25SPIRVSubgroupAvcINTELTypeILN3spv2OpE5703EEEEEPNS_10SPIRVEntryEv@Base 0
 (optional=templinst)_ZN5SPIRV6createINS_25SPIRVSubgroupAvcINTELTypeILN3spv2OpE5704EEEEEPNS_10SPIRVEntryEv@Base 0
 (optional=templinst)_ZN5SPIRV6createINS_25SPIRVSubgroupAvcINTELTypeILN3spv2OpE5705EEEEEPNS_10SPIRVEntryEv@Base 0
 (optional=templinst)_ZN5SPIRV6createINS_25SPIRVSubgroupAvcINTELTypeILN3spv2OpE5706EEEEEPNS_10SPIRVEntryEv@Base 0
 (optional=templinst)_ZN5SPIRV6createINS_25SPIRVSubgroupAvcINTELTypeILN3spv2OpE5707EEEEEPNS_10SPIRVEntryEv@Base 0
 (optional=templinst)_ZN5SPIRV6createINS_25SPIRVSubgroupAvcINTELTypeILN3spv2OpE5708EEEEEPNS_10SPIRVEntryEv@Base 0
 (optional=templinst)_ZN5SPIRV6createINS_25SPIRVSubgroupAvcINTELTypeILN3spv2OpE5709EEEEEPNS_10SPIRVEntryEv@Base 0
 (optional=templinst)_ZN5SPIRV6createINS_25SPIRVSubgroupAvcINTELTypeILN3spv2OpE5710EEEEEPNS_10SPIRVEntryEv@Base 0
 (optional=templinst)_ZN5SPIRV6createINS_25SPIRVSubgroupAvcINTELTypeILN3spv2OpE5711EEEEEPNS_10SPIRVEntryEv@Base 0
 (optional=templinst)_ZN5SPIRV6createINS_25SPIRVSubgroupAvcINTELTypeILN3spv2OpE5712EEEEEPNS_10SPIRVEntryEv@Base 0
 (optional=templinst)_ZN5SPIRV6createINS_25SPIRVTypeJointMatrixINTELEEEPNS_10SPIRVEntryEv@Base 14
 (optional=templinst)_ZN5SPIRV6createINS_25SPIRVVectorExtractDynamicEEEPNS_10SPIRVEntryEv@Base 0
 (optional=templinst)_ZN5SPIRV6createINS_26SPIRVConstantCompositeBaseILN3spv2OpE44EEEEEPNS_10SPIRVEntryEv@Base 0
 (optional=templinst)_ZN5SPIRV6createINS_26SPIRVConstantCompositeBaseILN3spv2OpE51EEEEEPNS_10SPIRVEntryEv@Base 0
 (optional=templinst)_ZN5SPIRV6createINS_27SPIRVContinuedInstINTELBaseILN3spv2OpE6091EEEEEPNS_10SPIRVEntryEv@Base 12
 (optional=templinst)_ZN5SPIRV6createINS_27SPIRVContinuedInstINTELBaseILN3spv2OpE6092EEEEEPNS_10SPIRVEntryEv@Base 12
 (optional=templinst)_ZN5SPIRV6createINS_27SPIRVTypeBufferSurfaceINTELEEEPNS_10SPIRVEntryEv@Base 0
 (optional=templinst)_ZN5SPIRV6createINS_28SPIRVMemAliasingINTELGenericILN3spv2OpE5911ELj2EEEEEPNS_10SPIRVEntryEv@Base 13
 (optional=templinst)_ZN5SPIRV6createINS_28SPIRVMemAliasingINTELGenericILN3spv2OpE5912ELj2EEEEEPNS_10SPIRVEntryEv@Base 13
 (optional=templinst)_ZN5SPIRV6createINS_28SPIRVMemAliasingINTELGenericILN3spv2OpE5913ELj2EEEEEPNS_10SPIRVEntryEv@Base 13
 (optional=templinst)_ZN5SPIRV6createINS_29SPIRVFunctionPointerCallINTELEEEPNS_10SPIRVEntryEv@Base 0
 (optional=templinst)_ZN5SPIRV6createINS_29SPIRVTypeStructContinuedINTELEEEPNS_10SPIRVEntryEv@Base 12
 (optional=templinst)_ZN5SPIRV6createINS_33SPIRVConstantFunctionPointerINTELEEEPNS_10SPIRVEntryEv@Base 13
 (optional=templinst)_ZN5SPIRV6createINS_36SPIRVBfloat16ConversionINTELInstBaseILN3spv2OpE6116EEEEEPNS_10SPIRVEntryEv@Base 13
 (optional=templinst)_ZN5SPIRV6createINS_36SPIRVBfloat16ConversionINTELInstBaseILN3spv2OpE6117EEEEEPNS_10SPIRVEntryEv@Base 13
 (optional=templinst)_ZN5SPIRV6createINS_8SPIRVPhiEEEPNS_10SPIRVEntryEv@Base 0
 (optional=templinst)_ZN5SPIRV6createINS_9SPIRVLineEEEPNS_10SPIRVEntryEv@Base 0
 (optional=templinst)_ZN5SPIRV6createINS_9SPIRVLoadEEEPNS_10SPIRVEntryEv@Base 0
 (optional=templinst)_ZN5SPIRV6createINS_9SPIRVNameEEEPNS_10SPIRVEntryEv@Base 0
 (optional=templinst)_ZN5SPIRV6decodeIN10SPIRVDebug11InstructionEEERKNS_12SPIRVDecoderES5_RT_@Base 0
 (optional=templinst)_ZN5SPIRV6decodeIN3spv10CapabilityEEERKNS_12SPIRVDecoderES5_RT_@Base 0
 (optional=templinst)_ZN5SPIRV6decodeIN3spv10DecorationEEERKNS_12SPIRVDecoderES5_RT_@Base 0
 (optional=templinst)_ZN5SPIRV6decodeIN3spv11LinkageTypeEEERKNS_12SPIRVDecoderES5_RT_@Base 0
 (optional=templinst)_ZN5SPIRV6decodeIN3spv2OpEEERKNS_12SPIRVDecoderES5_RT_@Base 0
 (optional=templinst)_ZN5SPIRV6decodeIN9OpenCLLIB11EntrypointsEEERKNS_12SPIRVDecoderES5_RT_@Base 0
 (optional=templinst)_ZN5SPIRV6encodeIN10SPIRVDebug11InstructionEEERKNS_12SPIRVEncoderES5_T_@Base 0
 (optional=templinst)_ZN5SPIRV6encodeIN3spv10CapabilityEEERKNS_12SPIRVEncoderES5_T_@Base 0
 (optional=templinst)_ZN5SPIRV6encodeIN3spv10DecorationEEERKNS_12SPIRVEncoderES5_T_@Base 0
 (optional=templinst)_ZN5SPIRV6encodeIN3spv11LinkageTypeEEERKNS_12SPIRVEncoderES5_T_@Base 0
 (optional=templinst)_ZN5SPIRV6encodeIN3spv2OpEEERKNS_12SPIRVEncoderES5_T_@Base 0
 (optional=templinst)_ZN5SPIRV6encodeIN9OpenCLLIB11EntrypointsEEERKNS_12SPIRVEncoderES5_T_@Base 0
 (subst)_ZN5SPIRV6getIntEPN4llvm6ModuleE{int64_t}@Base 0
 (optional=templinst)_ZN5SPIRV7getNameIN3spv2OpEEENSt7__cxx1112basic_stringIcSt11char_traitsIcESaIcEEET_@Base 0
 (optional=templinst)_ZN5SPIRV7getNameIN3spv7BuiltInEEENSt7__cxx1112basic_stringIcSt11char_traitsIcESaIcEEET_@Base 13
 (optional=templinst)_ZN5SPIRV7getNameIN9OpenCLLIB11EntrypointsEEENSt7__cxx1112basic_stringIcSt11char_traitsIcESaIcEEET_@Base 0
 (subst)_ZN5SPIRV7getUIntEPN4llvm6ModuleE{uint64_t}@Base 0
 _ZN5SPIRV7mapSIntEPN4llvm6ModuleEPNS0_11ConstantIntESt8functionIFiiEE@Base 0
 _ZN5SPIRV7mapUIntEPN4llvm6ModuleEPNS0_11ConstantIntESt8functionIFjjEE@Base 0
 (optional=templinst)_ZN5SPIRV8SPIRVMapIN4llvm13AtomicRMWInst5BinOpEN3spv2OpEvE4initEv@Base 0
 (optional=templinst)_ZN5SPIRV8SPIRVMapIN7OCLUtil12OCLScopeKindEN3spv5ScopeEvE4initEv@Base 0
 (optional=templinst)_ZN5SPIRV8SPIRVMapIN7OCLUtil15OCLMemFenceKindEN3spv19MemorySemanticsMaskEvE4initEv@Base 0
 (optional=templinst)_ZN5SPIRV8SPIRVMapIN7OCLUtil15OCLMemOrderKindEjN3spv19MemorySemanticsMaskEE4initEv@Base 0
 (optional=templinst)_ZN5SPIRV8SPIRVMapIN7OCLUtil23OCLMemFenceExtendedKindEN3spv19MemorySemanticsMaskEvE4initEv@Base 0
 (optional=templinst)_ZN5SPIRV8SPIRVMapIN7OCLUtil6OclExt4KindEN3spv10CapabilityEvE4initEv@Base 0
 (optional=templinst)_ZN5SPIRV8SPIRVMapIN7OCLUtil6OclExt4KindENSt7__cxx1112basic_stringIcSt11char_traitsIcESaIcEEEvE4initEv@Base 0
 (optional=templinst)_ZN5SPIRV8SPIRVMapINSt7__cxx1112basic_stringIcSt11char_traitsIcESaIcEEEN3spv14FPRoundingModeEvE4initEv@Base 0
 (optional=templinst)_ZN5SPIRV8SPIRVMapINSt7__cxx1112basic_stringIcSt11char_traitsIcESaIcEEEN3spv14GroupOperationEvE4initEv@Base 0
 (optional=templinst)_ZN5SPIRV8SPIRVMapINSt7__cxx1112basic_stringIcSt11char_traitsIcESaIcEEEN3spv2OpEN7OCLUtil12OCL12BuiltinEE4initEv@Base 0
 (optional=templinst)_ZN5SPIRV8SPIRVMapINSt7__cxx1112basic_stringIcSt11char_traitsIcESaIcEEEN3spv2OpEN7OCLUtil13OCLOpaqueTypeEE4initEv@Base 0
 (optional=templinst)_ZN5SPIRV8SPIRVMapINSt7__cxx1112basic_stringIcSt11char_traitsIcESaIcEEEN3spv2OpENS_16SPIRVInstructionEE4initEv@Base 0
 (optional=templinst)_ZN5SPIRV8SPIRVMapINSt7__cxx1112basic_stringIcSt11char_traitsIcESaIcEEEN3spv2OpENS_26SPIRVSubgroupsAVCIntelInstEE4initEv@Base 0
 (optional=templinst)_ZN5SPIRV8SPIRVMapINSt7__cxx1112basic_stringIcSt11char_traitsIcESaIcEEEN3spv7BuiltInEvE4initEv@Base 0
 _ZN5SPIRV8getInt32EPN4llvm6ModuleERKSt6vectorIiSaIiEE@Base 0
 _ZN5SPIRV8getInt32EPN4llvm6ModuleEi@Base 0
 (subst)_ZN5SPIRV8getInt64EPN4llvm6ModuleE{int64_t}@Base 0
 (subst)_ZN5SPIRV8getSizetEPN4llvm6ModuleE{uint64_t}@Base 0
 (optional=templinst)_ZN5SPIRV8toStringIN4llvm10AllocaInstEEENSt7__cxx1112basic_stringIcSt11char_traitsIcESaIcEEEPKT_@Base 14
 (optional=templinst)_ZN5SPIRV8toStringIN4llvm11InstructionEEENSt7__cxx1112basic_stringIcSt11char_traitsIcESaIcEEEPKT_@Base 14
 (optional=templinst)_ZN5SPIRV8toStringIN4llvm14GlobalVariableEEENSt7__cxx1112basic_stringIcSt11char_traitsIcESaIcEEEPKT_@Base 14
#MISSING: 15# (optional=templinst|arch=amd64 arm64)_ZN5SPIRV8toStringIN4llvm4TypeEEENSt7__cxx1112basic_stringIcSt11char_traitsIcESaIcEEEPKT_@Base 14
 (optional=templinst)_ZN5SPIRV8toStringIN4llvm5ValueEEENSt7__cxx1112basic_stringIcSt11char_traitsIcESaIcEEEPKT_@Base 14
 _ZN5SPIRV9SPIRVLine6decodeERSi@Base 0
 _ZN5SPIRV9SPIRVName6decodeERSi@Base 0
 _ZN5SPIRV9SPIRVNameC1EPKNS_10SPIRVEntryERKNSt7__cxx1112basic_stringIcSt11char_traitsIcESaIcEEE@Base 0
 _ZN5SPIRV9SPIRVNameC2EPKNS_10SPIRVEntryERKNSt7__cxx1112basic_stringIcSt11char_traitsIcESaIcEEE@Base 0
 _ZN5SPIRV9addFnAttrEPN4llvm8CallInstENS0_9Attribute8AttrKindE@Base 0
 _ZN5SPIRV9addVectorEPN4llvm11InstructionESt4pairIN9__gnu_cxx17__normal_iteratorIPPNS0_5ValueESt6vectorIS7_SaIS7_EEEESC_E@Base 0
 _ZN5SPIRV9dumpUsersEPN4llvm5ValueENS0_9StringRefE@Base 0
 (optional=templinst)_ZN5SPIRV9getByNameIN3spv2OpEEEbRKNSt7__cxx1112basic_stringIcSt11char_traitsIcESaIcEEERT_@Base 0
 (optional=templinst)_ZN5SPIRV9getByNameIN3spv7BuiltInEEEbRKNSt7__cxx1112basic_stringIcSt11char_traitsIcESaIcEEERT_@Base 0
 _ZN5SPIRV9getUInt16EPN4llvm6ModuleEt@Base 0
 _ZN5SPIRV9getUInt32EPN4llvm6ModuleEj@Base 0
 (subst)_ZN5SPIRV9getUInt64EPN4llvm6ModuleE{uint64_t}@Base 0
 _ZN5SPIRVlsERKNS_12SPIRVEncoderEN10SPIRVDebug11InstructionE@Base 0
 _ZN5SPIRVlsERKNS_12SPIRVEncoderEN3spv10CapabilityE@Base 0
 _ZN5SPIRVlsERKNS_12SPIRVEncoderEN3spv10DecorationE@Base 0
 _ZN5SPIRVlsERKNS_12SPIRVEncoderEN3spv11LinkageTypeE@Base 0
 _ZN5SPIRVlsERKNS_12SPIRVEncoderEN3spv2OpE@Base 0
 _ZN5SPIRVlsERKNS_12SPIRVEncoderEN9OpenCLLIB11EntrypointsE@Base 0
 _ZN5SPIRVlsERKNS_12SPIRVEncoderERKNSt7__cxx1112basic_stringIcSt11char_traitsIcESaIcEEE@Base 0
 _ZN5SPIRVlsERSoRKNS_10SPIRVEntryE@Base 0
 _ZN5SPIRVlsERSoRKNS_15TopologicalSortE@Base 0
 _ZN5SPIRVlsERSoRKNS_7SPIRVNLE@Base 0
 _ZN5SPIRVlsERSoRNS_11SPIRVModuleE@Base 0
 (optional=templinst|arch=!arm64 !armel !mips64el !ppc64el !riscv64 !x32)_ZN5SPIRVlsINS_9SPIRVTypeEEERKNS_12SPIRVEncoderES4_PT_@Base 0
 (optional=templinst)_ZN5SPIRVlsIjEERKNS_12SPIRVEncoderES3_T_@Base 0
 _ZN5SPIRVrsERKNS_12SPIRVDecoderERN10SPIRVDebug11InstructionE@Base 0
 _ZN5SPIRVrsERKNS_12SPIRVDecoderERN3spv10CapabilityE@Base 0
 _ZN5SPIRVrsERKNS_12SPIRVDecoderERN3spv10DecorationE@Base 0
 _ZN5SPIRVrsERKNS_12SPIRVDecoderERN3spv11LinkageTypeE@Base 0
 _ZN5SPIRVrsERKNS_12SPIRVDecoderERN3spv2OpE@Base 0
 _ZN5SPIRVrsERKNS_12SPIRVDecoderERN9OpenCLLIB11EntrypointsE@Base 0
 _ZN5SPIRVrsERKNS_12SPIRVDecoderERNSt7__cxx1112basic_stringIcSt11char_traitsIcESaIcEEE@Base 0
 _ZN5SPIRVrsERSiRNS_10SPIRVEntryE@Base 0
 _ZN5SPIRVrsERSiRNS_11SPIRVModuleE@Base 0
 (optional=templinst)_ZN5SPIRVrsIN3spv12StorageClassEEERKNS_12SPIRVDecoderES5_RT_@Base 0
 (optional=templinst)_ZN5SPIRVrsIN3spv14ExecutionModelEEERKNS_12SPIRVDecoderES5_RT_@Base 0
 (optional=templinst)_ZN5SPIRVrsIN3spv14SourceLanguageEEERKNS_12SPIRVDecoderES5_RT_@Base 0
 (optional=templinst)_ZN5SPIRVrsIN3spv15AddressingModelEEERKNS_12SPIRVDecoderES5_RT_@Base 0
 (optional=templinst)_ZN5SPIRVrsIN3spv3DimEEERKNS_12SPIRVDecoderES5_RT_@Base 0
 (optional=templinst)_ZN5SPIRVrsINS_9SPIRVTypeEEERKNS_12SPIRVDecoderES4_RPT_@Base 0
 (optional=templinst)_ZN5SPIRVrsIjEERKNS_12SPIRVDecoderES3_RT_@Base 0
 (optional=templinst)_ZN7OCLUtil11getFullPathIN4llvm10DILocationEEENSt7__cxx1112basic_stringIcSt11char_traitsIcESaIcEEEPKT_@Base 0
 (optional=templinst)_ZN7OCLUtil11getFullPathIN4llvm12DISubprogramEEENSt7__cxx1112basic_stringIcSt11char_traitsIcESaIcEEEPKT_@Base 0
 (optional=templinst)_ZN7OCLUtil11getFullPathIN4llvm13DICompileUnitEEENSt7__cxx1112basic_stringIcSt11char_traitsIcESaIcEEEPKT_@Base 0
 (optional=templinst)_ZN7OCLUtil11getFullPathIN4llvm13DIDerivedTypeEEENSt7__cxx1112basic_stringIcSt11char_traitsIcESaIcEEEPKT_@Base 0
 (optional=templinst)_ZN7OCLUtil11getFullPathIN4llvm15DICompositeTypeEEENSt7__cxx1112basic_stringIcSt11char_traitsIcESaIcEEEPKT_@Base 0
 (optional=templinst)_ZN7OCLUtil11getFullPathIN4llvm16DIGlobalVariableEEENSt7__cxx1112basic_stringIcSt11char_traitsIcESaIcEEEPKT_@Base 0
 (optional=templinst)_ZN7OCLUtil11getFullPathIN4llvm6DIFileEEENSt7__cxx1112basic_stringIcSt11char_traitsIcESaIcEEEPKT_@Base 0
 (optional=templinst)_ZN7OCLUtil11getFullPathIN4llvm7DIScopeEEENSt7__cxx1112basic_stringIcSt11char_traitsIcESaIcEEEPKT_@Base 0
#MISSING: 15# _ZN7OCLUtil11isSamplerTyEPN4llvm4TypeE@Base 0
 _ZN7OCLUtil12decodeMDNodeEPN4llvm6MDNodeERjS3_S3_@Base 0
 _ZN7OCLUtil12decodeOCLVerEj@Base 0
 _ZN7OCLUtil12encodeOCLVerEthh@Base 0
 _ZN7OCLUtil13getOCLVersionEPN4llvm6ModuleEb@Base 0
 _ZN7OCLUtil15isKernelQueryBIEN4llvm9StringRefE@Base 0
 _ZN7OCLUtil15isUnfusedMulAddEPN4llvm14BinaryOperatorE@Base 0
 _ZN7OCLUtil16transVecTypeHintEPN4llvm6MDNodeE@Base 0
 _ZN7OCLUtil17decodeVecTypeHintERN4llvm11LLVMContextEj@Base 0
 _ZN7OCLUtil17encodeVecTypeHintEPN4llvm4TypeE@Base 0
 _ZN7OCLUtil17isEnqueueKernelBIEN4llvm9StringRefE@Base 0
 _ZN7OCLUtil17isSamplerStructTyEPN4llvm10StructTypeE@Base 15
 (optional=templinst)_ZN7OCLUtil17mutateCallInstOCLEPN4llvm6ModuleEPNS0_8CallInstESt8functionIFNSt7__cxx1112basic_stringIcSt11char_traitsIcESaIcEEES4_RSt6vectorIPNS0_5ValueESaISE_EEEEPNS0_13AttributeListE@Base 0
 (optional=templinst)_ZN7OCLUtil17mutateCallInstOCLEPN4llvm6ModuleEPNS0_8CallInstESt8functionIFNSt7__cxx1112basic_stringIcSt11char_traitsIcESaIcEEES4_RSt6vectorIPNS0_5ValueESaISE_EERPNS0_4TypeEEES5_IFPNS0_11InstructionES4_EEPNS0_13AttributeListEb@Base 12
 _ZN7OCLUtil18getBarrierLiteralsEPN4llvm8CallInstE@Base 0
#MISSING: 15# _ZN7OCLUtil20isSamplerInitializerEPN4llvm11InstructionE@Base 0
#MISSING: 15# _ZN7OCLUtil24isPipeStorageInitializerEPN4llvm11InstructionE@Base 0
#MISSING: 15# _ZN7OCLUtil24isSpecialTypeInitializerEPN4llvm11InstructionE@Base 0
 _ZN7OCLUtil25getOCLOpaqueTypeAddrSpaceEN3spv2OpE@Base 0
 _ZN7OCLUtil25getOCLOpaqueTypeAddrSpaceEN4SPIR17TypePrimitiveEnumE@Base 0
 _ZN7OCLUtil25isComputeAtomicOCLBuiltinEN4llvm9StringRefE@Base 0
 _ZN7OCLUtil26isPipeOrAddressSpaceCastBIEN4llvm9StringRefE@Base 0
 _ZN7OCLUtil28unwrapSpecialTypeInitializerEPN4llvm5ValueE@Base 15
 _ZN7OCLUtil30getAtomicWorkItemFenceLiteralsEPN4llvm8CallInstE@Base 0
 _ZN7OCLUtil30insertImageNameAccessQualifierEN3spv15AccessQualifierERNSt7__cxx1112basic_stringIcSt11char_traitsIcESaIcEEE@Base 13
 _ZN7OCLUtil32getIntelSubgroupBlockDataPostfixB5cxx11Ejj@Base 0
 _ZN7OCLUtil34getAtomicBuiltinNumMemoryOrderArgsEN4llvm9StringRefE@Base 0
 _ZN7OCLUtil39getSPIRVAtomicBuiltinNumMemoryOrderArgsEN3spv2OpE@Base 0
 _ZN7OCLUtil8getExtOpEN4llvm9StringRefES1_@Base 0
 _ZNK4SPIR10AtomicType6acceptEPNS_11TypeVisitorE@Base 0
 _ZNK4SPIR10AtomicType6equalsEPKNS_9ParamTypeE@Base 0
 _ZNK4SPIR10AtomicType8toStringB5cxx11Ev@Base 0
 _ZNK4SPIR10VectorType6acceptEPNS_11TypeVisitorE@Base 0
 _ZNK4SPIR10VectorType6equalsEPKNS_9ParamTypeE@Base 0
 _ZNK4SPIR10VectorType8toStringB5cxx11Ev@Base 0
 _ZNK4SPIR11PointerType12hasQualifierENS_17TypeAttributeEnumE@Base 0
 _ZNK4SPIR11PointerType15getAddressSpaceEv@Base 0
 _ZNK4SPIR11PointerType6acceptEPNS_11TypeVisitorE@Base 0
 _ZNK4SPIR11PointerType6equalsEPKNS_9ParamTypeE@Base 0
 _ZNK4SPIR11PointerType8toStringB5cxx11Ev@Base 0
 _ZNK4SPIR13PrimitiveType6acceptEPNS_11TypeVisitorE@Base 0
 _ZNK4SPIR13PrimitiveType6equalsEPKNS_9ParamTypeE@Base 0
 _ZNK4SPIR13PrimitiveType8toStringB5cxx11Ev@Base 0
 _ZNK4SPIR15UserDefinedType6acceptEPNS_11TypeVisitorE@Base 0
 _ZNK4SPIR15UserDefinedType6equalsEPKNS_9ParamTypeE@Base 0
 _ZNK4SPIR15UserDefinedType8toStringB5cxx11Ev@Base 0
 _ZNK4SPIR18FunctionDescriptor6isNullEv@Base 0
 _ZNK4SPIR18FunctionDescriptor8toStringB5cxx11Ev@Base 0
 _ZNK4SPIR18FunctionDescriptoreqERKS0_@Base 0
 _ZNK4SPIR18FunctionDescriptorltERKS0_@Base 0
 _ZNK4SPIR9BlockType6acceptEPNS_11TypeVisitorE@Base 0
 _ZNK4SPIR9BlockType6equalsEPKNS_9ParamTypeE@Base 0
 _ZNK4SPIR9BlockType8toStringB5cxx11Ev@Base 0
 _ZNK5SPIRV10SPIRVEntry10encodeLineERSo@Base 0
 _ZNK5SPIRV10SPIRVEntry10encodeNameERSo@Base 0
 _ZNK5SPIRV10SPIRVEntry10getEncoderERSo@Base 0
 (subst)_ZNK5SPIRV10SPIRVEntry11getDecorateEN3spv10DecorationE{size_t}@Base 0
 _ZNK5SPIRV10SPIRVEntry11getErrorLogEv@Base 0
 _ZNK5SPIRV10SPIRVEntry11getOrCreateEj@Base 0
 (subst)_ZNK5SPIRV10SPIRVEntry11hasDecorateEN3spv10DecorationE{size_t}Pj@Base 0
 _ZNK5SPIRV10SPIRVEntry12getValueTypeEj@Base 0
 _ZNK5SPIRV10SPIRVEntry12isEndOfBlockEv@Base 0
 (subst)_ZNK5SPIRV10SPIRVEntry13getDecorateIdEN3spv10DecorationE{size_t}@Base 13
 _ZNK5SPIRV10SPIRVEntry13getValueTypesERKSt6vectorIjSaIjEE@Base 0
 (subst)_ZNK5SPIRV10SPIRVEntry13hasDecorateIdEN3spv10DecorationE{size_t}Pj@Base 13
 _ZNK5SPIRV10SPIRVEntry14encodeChildrenERSo@Base 0
 _ZNK5SPIRV10SPIRVEntry14encodeDecorateERSo@Base 0
 _ZNK5SPIRV10SPIRVEntry14getDecorationsEN3spv10DecorationE@Base 0
 _ZNK5SPIRV10SPIRVEntry14getDecorationsEv@Base 14
 _ZNK5SPIRV10SPIRVEntry14getLinkageTypeEv@Base 0
 _ZNK5SPIRV10SPIRVEntry14hasLinkageTypeEv@Base 0
 _ZNK5SPIRV10SPIRVEntry14validateValuesERKSt6vectorIjSaIjEE@Base 0
 _ZNK5SPIRV10SPIRVEntry15validateBuiltinEjj@Base 0
 _ZNK5SPIRV10SPIRVEntry16getDecorationIdsEN3spv10DecorationE@Base 13
 (subst)_ZNK5SPIRV10SPIRVEntry17hasMemberDecorateEN3spv10DecorationE{size_t}jPj@Base 0
 _ZNK5SPIRV10SPIRVEntry19updateModuleVersionEv@Base 0
 _ZNK5SPIRV10SPIRVEntry21encodeWordCountOpCodeERSo@Base 0
 _ZNK5SPIRV10SPIRVEntry21getDecorationLiteralsEN3spv10DecorationE@Base 0
 _ZNK5SPIRV10SPIRVEntry23getDecorationIdLiteralsEN3spv10DecorationE@Base 13
 _ZNK5SPIRV10SPIRVEntry26getDecorationStringLiteralB5cxx11EN3spv10DecorationE@Base 0
 _ZNK5SPIRV10SPIRVEntry27getMemberDecorationLiteralsEN3spv10DecorationEj@Base 0
 _ZNK5SPIRV10SPIRVEntry27validateFunctionControlMaskEj@Base 0
 _ZNK5SPIRV10SPIRVEntry32getMemberDecorationStringLiteralB5cxx11EN3spv10DecorationEj@Base 0
 _ZNK5SPIRV10SPIRVEntry5existEj@Base 0
 _ZNK5SPIRV10SPIRVEntry6encodeERSo@Base 0
 _ZNK5SPIRV10SPIRVEntry6getIdsESt6vectorIPNS_10SPIRVValueESaIS3_EE@Base 0
 _ZNK5SPIRV10SPIRVEntry8getEntryEj@Base 0
 _ZNK5SPIRV10SPIRVEntry8getValueEj@Base 0
 _ZNK5SPIRV10SPIRVEntry9encodeAllERSo@Base 0
 _ZNK5SPIRV10SPIRVEntry9getValuesERKSt6vectorIjSaIjEE@Base 0
 _ZNK5SPIRV10SPIRVEntry9isExtInstENS_19SPIRVExtInstSetKindE@Base 0
 _ZNK5SPIRV10SPIRVEntry9isExtInstENS_19SPIRVExtInstSetKindEj@Base 0
 _ZNK5SPIRV10SPIRVValue10isVolatileEv@Base 0
 _ZNK5SPIRV10SPIRVValue12hasAlignmentEPj@Base 0
 _ZNK5SPIRV10SPIRVValue15hasNoSignedWrapEv@Base 0
 _ZNK5SPIRV10SPIRVValue17hasNoUnsignedWrapEv@Base 0
 _ZNK5SPIRV11SPIRVSource6encodeERSo@Base 0
 _ZNK5SPIRV11SPIRVString6encodeERSo@Base 0
 _ZNK5SPIRV12SPIRVDecoder8validateEv@Base 0
 _ZNK5SPIRV13SPIRVDecorate6encodeERSo@Base 0
 _ZNK5SPIRV13SPIRVFunction14encodeChildrenERSo@Base 0
 _ZNK5SPIRV13SPIRVFunction20encodeExecutionModesERSo@Base 0
 _ZNK5SPIRV13SPIRVFunction6encodeERSo@Base 0
 _ZNK5SPIRV14SPIRVExtension6encodeERSo@Base 0
 _ZNK5SPIRV14SPIRVTypeArray6encodeERSo@Base 0
 _ZNK5SPIRV14SPIRVTypeArray8validateEv@Base 0
 _ZNK5SPIRV14SPIRVTypeArray9getLengthEv@Base 0
 _ZNK5SPIRV14TranslatorOpts25isUnknownIntrinsicAllowedEPN4llvm13IntrinsicInstE@Base 13
 _ZNK5SPIRV14TranslatorOpts36isSPIRVAllowUnknownIntrinsicsEnabledEv@Base 13
 _ZNK5SPIRV15LLVMToSPIRVBase18getTranslatedValueEPKN4llvm5ValueE@Base 13
 _ZNK5SPIRV15LLVMToSPIRVBase34isAnyFunctionReachableFromFunctionEPKN4llvm8FunctionESt13unordered_setIS4_St4hashIS4_ESt8equal_toIS4_ESaIS4_EE@Base 13
 _ZNK5SPIRV15SPIRVBasicBlock14encodeChildrenERSo@Base 0
 _ZNK5SPIRV15SPIRVBasicBlock6encodeERSo@Base 0
 _ZNK5SPIRV15SPIRVCapability6encodeERSo@Base 0
 _ZNK5SPIRV15SPIRVDecorateId6encodeERSo@Base 13
 _ZNK5SPIRV15SPIRVEntryPoint6encodeERSo@Base 0
 _ZNK5SPIRV15SPIRVMemberName6encodeERSo@Base 0
 _ZNK5SPIRV15SPIRVMemberName8validateEv@Base 0
 _ZNK5SPIRV15SPIRVModuleImpl12getValueTypeEj@Base 0
 _ZNK5SPIRV15SPIRVModuleImpl12isEntryPointEN3spv14ExecutionModelEj@Base 0
 _ZNK5SPIRV15SPIRVModuleImpl13getBuiltinSetEj@Base 0
 _ZNK5SPIRV15SPIRVModuleImpl13getValueTypesERKSt6vectorIjSaIjEE@Base 0
 _ZNK5SPIRV15SPIRVModuleImpl14getCurrentLineEv@Base 0
 _ZNK5SPIRV15SPIRVModuleImpl15getExtInstSetIdENS_19SPIRVExtInstSetKindE@Base 0
 _ZNK5SPIRV15SPIRVModuleImpl5existEj@Base 0
 _ZNK5SPIRV15SPIRVModuleImpl5existEjPPNS_10SPIRVEntryE@Base 0
 _ZNK5SPIRV15SPIRVModuleImpl6getIdsERKSt6vectorIPNS_10SPIRVEntryESaIS3_EE@Base 0
 _ZNK5SPIRV15SPIRVModuleImpl6getIdsERKSt6vectorIPNS_10SPIRVValueESaIS3_EE@Base 0
 _ZNK5SPIRV15SPIRVModuleImpl8getEntryEj@Base 0
 _ZNK5SPIRV15SPIRVModuleImpl8getValueEj@Base 0
 _ZNK5SPIRV15SPIRVModuleImpl9getValuesERKSt6vectorIjSaIjEE@Base 0
 _ZNK5SPIRV15SPIRVTypeStruct8isPackedEv@Base 0
 _ZNK5SPIRV16OCLToSPIRVLegacy16getAnalysisUsageERN4llvm13AnalysisUsageE@Base 15
 _ZNK5SPIRV16SPIRVMemoryModel6encodeERSo@Base 0
 _ZNK5SPIRV16SPIRVMemoryModel8validateEv@Base 0
 (optional=templinst)_ZNK5SPIRV17SPIRVConstantBaseILN3spv2OpE43EE11getNumWordsEv@Base 13
 (optional=templinst)_ZNK5SPIRV17SPIRVConstantBaseILN3spv2OpE43EE13getFloatValueEv@Base 13
 (optional=templinst)_ZNK5SPIRV17SPIRVConstantBaseILN3spv2OpE43EE14getDoubleValueEv@Base 13
 (optional=templinst)_ZNK5SPIRV17SPIRVConstantBaseILN3spv2OpE43EE15getZExtIntValueEv@Base 13
 (optional=templinst)_ZNK5SPIRV17SPIRVConstantBaseILN3spv2OpE50EE11getNumWordsEv@Base 13
 (optional=templinst)_ZNK5SPIRV17SPIRVConstantBaseILN3spv2OpE50EE13getFloatValueEv@Base 13
 (optional=templinst)_ZNK5SPIRV17SPIRVConstantBaseILN3spv2OpE50EE14getDoubleValueEv@Base 13
 (optional=templinst)_ZNK5SPIRV17SPIRVConstantBaseILN3spv2OpE50EE15getZExtIntValueEv@Base 13
 _ZNK5SPIRV17SPIRVFunctionCall8validateEv@Base 0
 _ZNK5SPIRV18SPIRVExecutionMode6encodeERSo@Base 0
 _ZNK5SPIRV18SPIRVExtInstImport6encodeERSo@Base 0
 _ZNK5SPIRV18SPIRVExtInstImport8validateEv@Base 0
 _ZNK5SPIRV18SPIRVImageInstBase21getImageOperandsIndexEv@Base 15
 _ZNK5SPIRV19SPIRVMemberDecorate6encodeERSo@Base 0
 _ZNK5SPIRV20OCLTypeToSPIRVLegacy16getAnalysisUsageERN4llvm13AnalysisUsageE@Base 13
 (subst)_ZNK5SPIRV20SPIRVDecorateGeneric10getLiteralE{size_t}@Base 0
 _ZNK5SPIRV20SPIRVDecorateGeneric13getVecLiteralEv@Base 0
 _ZNK5SPIRV20SPIRVDecorateGeneric15getDecorateKindEv@Base 0
 _ZNK5SPIRV20SPIRVDecorateGeneric15getLiteralCountEv@Base 0
 _ZNK5SPIRV20SPIRVDecorationGroup6encodeERSo@Base 0
 _ZNK5SPIRV20SPIRVDecorationGroup9encodeAllERSo@Base 0
 _ZNK5SPIRV20SPIRVModuleProcessed6encodeERSo@Base 12
 _ZNK5SPIRV20SPIRVModuleProcessed8validateEv@Base 12
 _ZNK5SPIRV20SPIRVSourceExtension6encodeERSo@Base 0
 _ZNK5SPIRV22SPIRVAnnotationGeneric17getOrCreateTargetEv@Base 0
 _ZNK5SPIRV23SPIRVTypeForwardPointer6encodeERSo@Base 0
 _ZNK5SPIRV25SPIRVGroupDecorateGeneric6encodeERSo@Base 0
 _ZNK5SPIRV25SPIRVTypeJointMatrixINTEL6encodeERSo@Base 14
 (optional=templinst)_ZNK5SPIRV27SPIRVContinuedInstINTELBaseILN3spv2OpE6090EE6encodeERSo@Base 12
 (optional=templinst)_ZNK5SPIRV27SPIRVContinuedInstINTELBaseILN3spv2OpE6090EE8validateEv@Base 12
 (optional=templinst)_ZNK5SPIRV27SPIRVContinuedInstINTELBaseILN3spv2OpE6091EE6encodeERSo@Base 12
 (optional=templinst)_ZNK5SPIRV27SPIRVContinuedInstINTELBaseILN3spv2OpE6091EE8validateEv@Base 12
 (optional=templinst)_ZNK5SPIRV27SPIRVContinuedInstINTELBaseILN3spv2OpE6092EE6encodeERSo@Base 12
 (optional=templinst)_ZNK5SPIRV27SPIRVContinuedInstINTELBaseILN3spv2OpE6092EE8validateEv@Base 12
 _ZNK5SPIRV29SPIRVFunctionPointerCallINTEL8validateEv@Base 0
 (arch=armel armhf i386 mipsel powerpc x32)_ZNK5SPIRV29SPIRVTypeStructContinuedINTEL13getMemberTypeEj@Base 12
 (arch=!armel !armhf !i386 !mipsel !powerpc !x32)_ZNK5SPIRV29SPIRVTypeStructContinuedINTEL13getMemberTypeEm@Base 12
 _ZNK5SPIRV40SPIRVLowerBitCastToNonStandardTypeLegacy11getPassNameEv@Base 15
 _ZNK5SPIRV9SPIRVLine6encodeERSo@Base 0
 _ZNK5SPIRV9SPIRVLine8validateEv@Base 0
 _ZNK5SPIRV9SPIRVName6encodeERSo@Base 0
 _ZNK5SPIRV9SPIRVName8validateEv@Base 0
 _ZNK5SPIRV9SPIRVType10isTypeBoolEv@Base 0
 _ZNK5SPIRV9SPIRVType10isTypePipeEv@Base 0
 _ZNK5SPIRV9SPIRVType10isTypeVoidEv@Base 0
 _ZNK5SPIRV9SPIRVType11getBitWidthEv@Base 0
 _ZNK5SPIRV9SPIRVType11isTypeArrayEv@Base 0
 _ZNK5SPIRV9SPIRVType11isTypeEventEv@Base 0
 _ZNK5SPIRV9SPIRVType11isTypeFloatEj@Base 0
 _ZNK5SPIRV9SPIRVType11isTypeImageEv@Base 0
 _ZNK5SPIRV9SPIRVType12isTypeOpaqueEv@Base 0
 _ZNK5SPIRV9SPIRVType12isTypeStructEv@Base 0
 _ZNK5SPIRV9SPIRVType12isTypeVectorEv@Base 0
 _ZNK5SPIRV9SPIRVType13getScalarTypeEv@Base 0
 _ZNK5SPIRV9SPIRVType13isTypePointerEv@Base 0
 _ZNK5SPIRV9SPIRVType13isTypeSamplerEv@Base 0
 _ZNK5SPIRV9SPIRVType14getArrayLengthEv@Base 0
 _ZNK5SPIRV9SPIRVType14isTypeOCLImageEv@Base 0
 _ZNK5SPIRV9SPIRVType15isTypeCompositeEv@Base 0
 _ZNK5SPIRV9SPIRVType15isTypeReserveIdEv@Base 0
 _ZNK5SPIRV9SPIRVType15isTypeVectorIntEv@Base 0
 _ZNK5SPIRV9SPIRVType16getFloatBitWidthEv@Base 0
 _ZNK5SPIRV9SPIRVType16isTypeVectorBoolEv@Base 0
 _ZNK5SPIRV9SPIRVType17isTypeDeviceEventEv@Base 0
 _ZNK5SPIRV9SPIRVType17isTypePipeStorageEv@Base 0
 _ZNK5SPIRV9SPIRVType17isTypeVectorFloatEv@Base 0
 _ZNK5SPIRV9SPIRVType18getIntegerBitWidthEv@Base 0
 _ZNK5SPIRV9SPIRVType19getArrayElementTypeEv@Base 0
 _ZNK5SPIRV9SPIRVType19getMatrixColumnTypeEv@Base 0
 (subst)_ZNK5SPIRV9SPIRVType19getStructMemberTypeE{size_t}@Base 0
 _ZNK5SPIRV9SPIRVType20getMatrixColumnCountEv@Base 0
 _ZNK5SPIRV9SPIRVType20getStructMemberCountEv@Base 0
 _ZNK5SPIRV9SPIRVType21getFunctionReturnTypeEv@Base 0
 _ZNK5SPIRV9SPIRVType21getPointerElementTypeEv@Base 0
 _ZNK5SPIRV9SPIRVType22getPointerStorageClassEv@Base 0
 _ZNK5SPIRV9SPIRVType22getVectorComponentTypeEv@Base 0
 _ZNK5SPIRV9SPIRVType22isTypeJointMatrixINTELEv@Base 14
 _ZNK5SPIRV9SPIRVType22isTypeSubgroupAvcINTELEv@Base 0
 _ZNK5SPIRV9SPIRVType23getVectorComponentCountEv@Base 0
 _ZNK5SPIRV9SPIRVType23isTypeVectorOrScalarIntEv@Base 0
 _ZNK5SPIRV9SPIRVType24isTypeVectorOrScalarBoolEv@Base 0
 _ZNK5SPIRV9SPIRVType25isTypeSubgroupAvcMceINTELEv@Base 0
 _ZNK5SPIRV9SPIRVType25isTypeVectorOrScalarFloatEv@Base 0
 _ZNK5SPIRV9SPIRVType9isTypeIntEj@Base 0
 (optional=templinst|subst)_ZNKSt10_HashtableINSt7__cxx1112basic_stringIcSt11char_traitsIcESaIcEEESt4pairIKS5_PN4llvm6DIFileEESaISB_ENSt8__detail10_Select1stESt8equal_toIS5_ESt4hashIS5_ENSD_18_Mod_range_hashingENSD_20_Default_ranged_hashENSD_20_Prime_rehash_policyENSD_17_Hashtable_traitsILb1ELb0ELb1EEEE19_M_find_before_nodeE{size_t}RS7_{size_t}@Base 0
 (optional=templinst|subst)_ZNKSt10_HashtableINSt7__cxx1112basic_stringIcSt11char_traitsIcESaIcEEESt4pairIKS5_PN4llvm8ConstantEESaISB_ENSt8__detail10_Select1stESt8equal_toIS5_ESt4hashIS5_ENSD_18_Mod_range_hashingENSD_20_Default_ranged_hashENSD_20_Prime_rehash_policyENSD_17_Hashtable_traitsILb1ELb0ELb1EEEE19_M_find_before_nodeE{size_t}RS7_{size_t}@Base 14
 (optional=templinst|subst)_ZNKSt10_HashtableINSt7__cxx1112basic_stringIcSt11char_traitsIcESaIcEEESt4pairIKS5_PN5SPIRV11SPIRVStringEESaISB_ENSt8__detail10_Select1stESt8equal_toIS5_ESt4hashIS5_ENSD_18_Mod_range_hashingENSD_20_Default_ranged_hashENSD_20_Prime_rehash_policyENSD_17_Hashtable_traitsILb1ELb0ELb1EEEE19_M_find_before_nodeE{size_t}RS7_{size_t}@Base 0
 (optional=templinst|subst)_ZNKSt10_HashtableINSt7__cxx1112basic_stringIcSt11char_traitsIcESaIcEEESt4pairIKS5_PN5SPIRV12SPIRVExtInstEESaISB_ENSt8__detail10_Select1stESt8equal_toIS5_ESt4hashIS5_ENSD_18_Mod_range_hashingENSD_20_Default_ranged_hashENSD_20_Prime_rehash_policyENSD_17_Hashtable_traitsILb1ELb0ELb1EEEE19_M_find_before_nodeE{size_t}RS7_{size_t}@Base 0
 (optional=templinst)_ZNKSt10_HashtableIjjSaIjENSt8__detail9_IdentityESt8equal_toIjESt4hashIjENS1_18_Mod_range_hashingENS1_20_Default_ranged_hashENS1_20_Prime_rehash_policyENS1_17_Hashtable_traitsILb0ELb1ELb1EEEE4findERKj@Base 14
 (optional=templinst)_ZNKSt7__cxx1112regex_traitsIcE16lookup_classnameIPKcEENS1_10_RegexMaskET_S6_b@Base 0
 (optional=templinst)_ZNKSt7__cxx1112regex_traitsIcE18lookup_collatenameIPKcEENS_12basic_stringIcSt11char_traitsIcESaIcEEET_SA_@Base 0
 (optional=templinst)_ZNKSt7__cxx1114regex_iteratorIPKccNS_12regex_traitsIcEEEeqERKS5_@Base 14
 (optional=templinst)_ZNKSt8_Rb_treeIN3spv10DecorationESt4pairIKS1_PKN5SPIRV13SPIRVDecorateEESt10_Select1stIS8_ESt4lessIS1_ESaIS8_EE11equal_rangeERS3_@Base 0
 (optional=templinst)_ZNKSt8_Rb_treeIN3spv10DecorationESt4pairIKS1_PKN5SPIRV15SPIRVDecorateIdEESt10_Select1stIS8_ESt4lessIS1_ESaIS8_EE11equal_rangeERS3_@Base 13
 (optional=templinst|arch=amd64 arm64 armhf)_ZNKSt8_Rb_treeIN3spv2OpESt4pairIKS1_NSt7__cxx1112basic_stringIcSt11char_traitsIcESaIcEEEESt10_Select1stISA_ESt4lessIS1_ESaISA_EE4findERS3_@Base 14
 (optional=templinst)_ZNKSt8_Rb_treeINSt7__cxx1112basic_stringIcSt11char_traitsIcESaIcEEESt4pairIKS5_N3spv2OpEESt10_Select1stISA_ESt4lessIS5_ESaISA_EE4findERS7_@Base 0
 (optional=templinst)_ZNKSt8_Rb_treeISt4pairIjN3spv10DecorationEES0_IKS3_PKN5SPIRV19SPIRVMemberDecorateEESt10_Select1stIS9_ESt4lessIS3_ESaIS9_EE4findERS4_@Base 0
 (optional=templinst)_ZNKSt8__detail9_ExecutorIPKcSaINSt7__cxx119sub_matchIS2_EEENS3_12regex_traitsIcEELb0EE16_M_word_boundaryEv@Base 0
 (optional=templinst)_ZNKSt8__detail9_ExecutorIPKcSaINSt7__cxx119sub_matchIS2_EEENS3_12regex_traitsIcEELb1EE16_M_word_boundaryEv@Base 0
 (optional=templinst|arch=!i386 !mipsel !powerpc !ppc64 !s390x)_ZNSt10_HashtableINSt7__cxx1112basic_stringIcSt11char_traitsIcESaIcEEESt4pairIKS5_PN4llvm8ConstantEESaISB_ENSt8__detail10_Select1stESt8equal_toIS5_ESt4hashIS5_ENSD_18_Mod_range_hashingENSD_20_Default_ranged_hashENSD_20_Prime_rehash_policyENSD_17_Hashtable_traitsILb1ELb0ELb1EEEE4findERS7_@Base 14
 (optional=templinst)_ZNSt10_HashtableINSt7__cxx1112basic_stringIcSt11char_traitsIcESaIcEEESt4pairIKS5_PN5SPIRV12SPIRVExtInstEESaISB_ENSt8__detail10_Select1stESt8equal_toIS5_ESt4hashIS5_ENSD_18_Mod_range_hashingENSD_20_Default_ranged_hashENSD_20_Prime_rehash_policyENSD_17_Hashtable_traitsILb1ELb0ELb1EEEE4findERS7_@Base 0
 (optional=templinst|subst)_ZNSt10_HashtableIPKN4llvm6MDNodeESt4pairIKS3_PN5SPIRV10SPIRVEntryEESaIS9_ENSt8__detail10_Select1stESt8equal_toIS3_ESt4hashIS3_ENSB_18_Mod_range_hashingENSB_20_Default_ranged_hashENSB_20_Prime_rehash_policyENSB_17_Hashtable_traitsILb0ELb0ELb1EEEE21_M_insert_unique_nodeE{size_t}{size_t}PNSB_10_Hash_nodeIS9_Lb0EEE{size_t}@Base 0
 (optional=templinst)_ZNSt10_HashtableIPKN4llvm6MDNodeESt4pairIKS3_PN5SPIRV10SPIRVEntryEESaIS9_ENSt8__detail10_Select1stESt8equal_toIS3_ESt4hashIS3_ENSB_18_Mod_range_hashingENSB_20_Default_ranged_hashENSB_20_Prime_rehash_policyENSB_17_Hashtable_traitsILb0ELb0ELb1EEEE4findERS5_@Base 0
 (optional=templinst|subst)_ZNSt10_HashtableIPKN4llvm8FunctionES3_SaIS3_ENSt8__detail9_IdentityESt8equal_toIS3_ESt4hashIS3_ENS5_18_Mod_range_hashingENS5_20_Default_ranged_hashENS5_20_Prime_rehash_policyENS5_17_Hashtable_traitsILb0ELb1ELb1EEEE21_M_insert_unique_nodeE{size_t}{size_t}PNS5_10_Hash_nodeIS3_Lb0EEE{size_t}@Base 0
 (optional=templinst)_ZNSt10_HashtableIPKN5SPIRV12SPIRVExtInstESt4pairIKS3_PN4llvm6MDNodeEESaIS9_ENSt8__detail10_Select1stESt8equal_toIS3_ESt4hashIS3_ENSB_18_Mod_range_hashingENSB_20_Default_ranged_hashENSB_20_Prime_rehash_policyENSB_17_Hashtable_traitsILb0ELb0ELb1EEEE4findERS5_@Base 0
 (optional=templinst|subst)_ZNSt10_HashtableIPN4llvm6MDNodeESt4pairIKS2_PN5SPIRV10SPIRVEntryEESaIS8_ENSt8__detail10_Select1stESt8equal_toIS2_ESt4hashIS2_ENSA_18_Mod_range_hashingENSA_20_Default_ranged_hashENSA_20_Prime_rehash_policyENSA_17_Hashtable_traitsILb0ELb0ELb1EEEE21_M_insert_unique_nodeE{size_t}{size_t}PNSA_10_Hash_nodeIS8_Lb0EEE{size_t}@Base 13
 (optional=templinst)_ZNSt10_HashtableIPN4llvm6MDNodeESt4pairIKS2_PN5SPIRV10SPIRVEntryEESaIS8_ENSt8__detail10_Select1stESt8equal_toIS2_ESt4hashIS2_ENSA_18_Mod_range_hashingENSA_20_Default_ranged_hashENSA_20_Prime_rehash_policyENSA_17_Hashtable_traitsILb0ELb0ELb1EEEE4findERS4_@Base 13
 (optional=templinst|arch=armel armhf powerpc ppc64 ppc64el s390x|subst)_ZNSt10_HashtableIPN5SPIRV23SPIRVTypeForwardPointerES2_SaIS2_ENSt8__detail9_IdentityESt8functionIFbPKS1_S8_EES6_IF{size_t}S8_EENS4_18_Mod_range_hashingENS4_20_Default_ranged_hashENS4_20_Prime_rehash_policyENS4_17_Hashtable_traitsILb1ELb1ELb1EEEEC1E{size_t}RKSC_RKSA_RKS3_@Base 13
 (optional=templinst|arch=armel armhf powerpc ppc64 ppc64el s390x|subst)_ZNSt10_HashtableIPN5SPIRV23SPIRVTypeForwardPointerES2_SaIS2_ENSt8__detail9_IdentityESt8functionIFbPKS1_S8_EES6_IF{size_t}S8_EENS4_18_Mod_range_hashingENS4_20_Default_ranged_hashENS4_20_Prime_rehash_policyENS4_17_Hashtable_traitsILb1ELb1ELb1EEEEC2E{size_t}RKSC_RKSA_RKS3_@Base 13
 (optional=templinst|subst)_ZNSt10_HashtableIPN5SPIRV23SPIRVTypeForwardPointerES2_SaIS2_ENSt8__detail9_IdentityESt8functionIFbPKS1_S8_EES6_IF{size_t}S8_EENS4_18_Mod_range_hashingENS4_20_Default_ranged_hashENS4_20_Prime_rehash_policyENS4_17_Hashtable_traitsILb1ELb1ELb1EEEED1Ev@Base 13
 (optional=templinst|subst)_ZNSt10_HashtableIPN5SPIRV23SPIRVTypeForwardPointerES2_SaIS2_ENSt8__detail9_IdentityESt8functionIFbPKS1_S8_EES6_IF{size_t}S8_EENS4_18_Mod_range_hashingENS4_20_Default_ranged_hashENS4_20_Prime_rehash_policyENS4_17_Hashtable_traitsILb1ELb1ELb1EEEED2Ev@Base 13
 (optional=templinst|subst)_ZNSt10_HashtableIjSt4pairIKjPN4llvm6MDNodeEESaIS5_ENSt8__detail10_Select1stESt8equal_toIjESt4hashIjENS7_18_Mod_range_hashingENS7_20_Default_ranged_hashENS7_20_Prime_rehash_policyENS7_17_Hashtable_traitsILb0ELb0ELb1EEEE21_M_insert_unique_nodeE{size_t}{size_t}PNS7_10_Hash_nodeIS5_Lb0EEE{size_t}@Base 13
 (optional=templinst|subst)_ZNSt10_HashtableIjSt4pairIKj{uint64_t}ESaIS2_ENSt8__detail10_Select1stESt8equal_toIjESt4hashIjENS4_18_Mod_range_hashingENS4_20_Default_ranged_hashENS4_20_Prime_rehash_policyENS4_17_Hashtable_traitsILb0ELb0ELb1EEEE18_M_assign_elementsIRKSF_EEvOT_@Base 0
 (optional=templinst|subst|arch=!armel !armhf !mipsel !powerpc)_ZNSt10_HashtableIjSt4pairIKj{uint64_t}ESaIS2_ENSt8__detail10_Select1stESt8equal_toIjESt4hashIjENS4_18_Mod_range_hashingENS4_20_Default_ranged_hashENS4_20_Prime_rehash_policyENS4_17_Hashtable_traitsILb0ELb0ELb1EEEE9_M_assignIRKSF_NS4_17_ReuseOrAllocNodeISaINS4_10_Hash_nodeIS2_Lb0EEEEEEEEvOT_RKT0_@Base 0
#MISSING: 15# (optional=templinst|subst)_ZNSt10_HashtableIjjSaIjENSt8__detail9_IdentityESt8equal_toIjESt4hashIjENS1_18_Mod_range_hashingENS1_20_Default_ranged_hashENS1_20_Prime_rehash_policyENS1_17_Hashtable_traitsILb0ELb1ELb1EEEEC1IPjEET_SF_{size_t}RKS6_RKS4_RKS0_St17integral_constantIbLb1EE@Base 0
#MISSING: 15# (optional=templinst|subst)_ZNSt10_HashtableIjjSaIjENSt8__detail9_IdentityESt8equal_toIjESt4hashIjENS1_18_Mod_range_hashingENS1_20_Default_ranged_hashENS1_20_Prime_rehash_policyENS1_17_Hashtable_traitsILb0ELb1ELb1EEEEC2IPjEET_SF_{size_t}RKS6_RKS4_RKS0_St17integral_constantIbLb1EE@Base 0
 (optional=templinst|arch=mips64el mipsel riscv64 sparc64 x32|subst)_ZNSt11_Deque_baseIlSaIlEE17_M_initialize_mapE{size_t}@Base 0
 (optional=templinst)_ZNSt11_Deque_baseIlSaIlEED1Ev@Base 0
 (optional=templinst)_ZNSt11_Deque_baseIlSaIlEED2Ev@Base 0
 (optional=templinst|subst|arch=!ppc64 !s390x)_ZNSt17_Temporary_bufferIN9__gnu_cxx17__normal_iteratorIPSt4pairIjjESt6vectorIS3_SaIS3_EEEES3_EC1ES8_{ssize_t}@Base 13
 (optional=templinst|subst|arch=!ppc64 !s390x)_ZNSt17_Temporary_bufferIN9__gnu_cxx17__normal_iteratorIPSt4pairIjjESt6vectorIS3_SaIS3_EEEES3_EC2ES8_{ssize_t}@Base 13
 (optional=templinst)_ZNSt5dequeINSt8__detail9_StateSeqINSt7__cxx1112regex_traitsIcEEEESaIS5_EE12emplace_backIJS5_EEEvDpOT_@Base 0
 (optional=templinst)_ZNSt5dequeINSt8__detail9_StateSeqINSt7__cxx1112regex_traitsIcEEEESaIS5_EE16_M_push_back_auxIJRKS5_EEEvDpOT_@Base 0
 (optional=templinst|arch=!amd64 !arm64 !x32)_ZNSt5dequeINSt8__detail9_StateSeqINSt7__cxx1112regex_traitsIcEEEESaIS5_EE16_M_push_back_auxIJS5_EEEvDpOT_@Base 0
 (optional=templinst|subst)_ZNSt5dequeINSt8__detail9_StateSeqINSt7__cxx1112regex_traitsIcEEEESaIS5_EE17_M_reallocate_mapE{size_t}b@Base 0
 (optional=templinst)_ZNSt5dequeIPN4llvm4UserESaIS2_EE16_M_push_back_auxIJRKS2_EEEvDpOT_@Base 0
 (optional=templinst|subst)_ZNSt5dequeIPN4llvm4UserESaIS2_EE17_M_reallocate_mapE{size_t}b@Base 0
 (optional=templinst)_ZNSt5dequeIlSaIlEE16_M_push_back_auxIJRKlEEEvDpOT_@Base 0
 (optional=templinst)_ZNSt6vectorIN3spv10CapabilityESaIS1_EE12emplace_backIJS1_EEEvDpOT_@Base 0
 (optional=templinst)_ZNSt6vectorIN3spv10CapabilityESaIS1_EE17_M_realloc_insertIJRKS1_EEEvN9__gnu_cxx17__normal_iteratorIPS1_S3_EEDpOT_@Base 0
 (optional=templinst|subst)_ZNSt6vectorIN3spv15AccessQualifierESaIS1_EE17_M_default_appendE{size_t}@Base 0
 (optional=templinst)_ZNSt6vectorIN3spv15AccessQualifierESaIS1_EE17_M_realloc_insertIJRKS1_EEEvN9__gnu_cxx17__normal_iteratorIPS1_S3_EEDpOT_@Base 0
 (optional=templinst)_ZNSt6vectorIN4SPIR8RefCountINS0_9ParamTypeEEESaIS3_EE12emplace_backIJS3_EEEvDpOT_@Base 0
 (optional=templinst)_ZNSt6vectorIN4SPIR8RefCountINS0_9ParamTypeEEESaIS3_EE17_M_realloc_insertIJRKS3_EEEvN9__gnu_cxx17__normal_iteratorIPS3_S5_EEDpOT_@Base 0
 (optional=templinst)_ZNSt6vectorIN4SPIR8RefCountINS0_9ParamTypeEEESaIS3_EE17_M_realloc_insertIJS3_EEEvN9__gnu_cxx17__normal_iteratorIPS3_S5_EEDpOT_@Base 0
 (optional=templinst)_ZNSt6vectorIN4llvm14PointerIntPairIPNS0_4TypeELj1EbNS0_21PointerLikeTypeTraitsIS3_EENS0_18PointerIntPairInfoIS3_Lj1ES5_EEEESaIS8_EE17_M_realloc_insertIJRKS8_EEEvN9__gnu_cxx17__normal_iteratorIPS8_SA_EEDpOT_@Base 15
 (optional=templinst)_ZNSt6vectorIN5SPIRV24BuiltinArgTypeMangleInfoESaIS1_EE17_M_realloc_insertIJEEEvN9__gnu_cxx17__normal_iteratorIPS1_S3_EEDpOT_@Base 15
 (optional=templinst)_ZNSt6vectorINSt7__cxx1112basic_stringIcSt11char_traitsIcESaIcEEESaIS5_EE17_M_realloc_insertIJRKS5_EEEvN9__gnu_cxx17__normal_iteratorIPS5_S7_EEDpOT_@Base 0
 (optional=templinst)_ZNSt6vectorINSt7__cxx1112basic_stringIcSt11char_traitsIcESaIcEEESaIS5_EE17_M_realloc_insertIJS5_EEEvN9__gnu_cxx17__normal_iteratorIPS5_S7_EEDpOT_@Base 15
 (optional=templinst)_ZNSt6vectorINSt7__cxx1112regex_traitsIcE10_RegexMaskESaIS3_EE17_M_realloc_insertIJRKS3_EEEvN9__gnu_cxx17__normal_iteratorIPS3_S5_EEDpOT_@Base 0
 (optional=templinst|subst)_ZNSt6vectorINSt7__cxx119sub_matchIPKcEESaIS4_EE14_M_fill_assignE{size_t}RKS4_@Base 0
 (optional=templinst)_ZNSt6vectorINSt8__detail6_StateIcEESaIS2_EE17_M_realloc_insertIJS2_EEEvN9__gnu_cxx17__normal_iteratorIPS2_S4_EEDpOT_@Base 0
 (optional=templinst)_ZNSt6vectorIPKN4llvm20DbgVariableIntrinsicESaIS3_EE17_M_realloc_insertIJRKS3_EEEvN9__gnu_cxx17__normal_iteratorIPS3_S5_EEDpOT_@Base 0
 (optional=templinst)_ZNSt6vectorIPKN5SPIRV13SPIRVDecorateESaIS3_EE17_M_realloc_insertIJRKS3_EEEvN9__gnu_cxx17__normal_iteratorIPS3_S5_EEDpOT_@Base 0
 (optional=templinst|subst)_ZNSt6vectorIPKN5SPIRV13SPIRVDecorateESaIS3_EE7reserveE{size_t}@Base 14
 (optional=templinst)_ZNSt6vectorIPKN5SPIRV15SPIRVDecorateIdESaIS3_EE17_M_realloc_insertIJRKS3_EEEvN9__gnu_cxx17__normal_iteratorIPS3_S5_EEDpOT_@Base 13
 (optional=templinst)_ZNSt6vectorIPN4llvm11InstructionESaIS2_EE17_M_realloc_insertIJRKS2_EEEvN9__gnu_cxx17__normal_iteratorIPS2_S4_EEDpOT_@Base 0
 (optional=templinst)_ZNSt6vectorIPN4llvm11InstructionESaIS2_EE17_M_realloc_insertIJS2_EEEvN9__gnu_cxx17__normal_iteratorIPS2_S4_EEDpOT_@Base 0
 (optional=templinst)_ZNSt6vectorIPN4llvm14GlobalVariableESaIS2_EE17_M_realloc_insertIJS2_EEEvN9__gnu_cxx17__normal_iteratorIPS2_S4_EEDpOT_@Base 0
 (optional=templinst)_ZNSt6vectorIPN4llvm17GetElementPtrInstESaIS2_EE17_M_realloc_insertIJRKS2_EEEvN9__gnu_cxx17__normal_iteratorIPS2_S4_EEDpOT_@Base 0
 (optional=templinst)_ZNSt6vectorIPN4llvm18ExtractElementInstESaIS2_EE17_M_realloc_insertIJRKS2_EEEvN9__gnu_cxx17__normal_iteratorIPS2_S4_EEDpOT_@Base 15
 (optional=templinst)_ZNSt6vectorIPN4llvm4TypeESaIS2_EE17_M_realloc_insertIJRKS2_EEEvN9__gnu_cxx17__normal_iteratorIPS2_S4_EEDpOT_@Base 0
 (optional=templinst)_ZNSt6vectorIPN4llvm4TypeESaIS2_EE17_M_realloc_insertIJS2_EEEvN9__gnu_cxx17__normal_iteratorIPS2_S4_EEDpOT_@Base 0
#MISSING: 15# (optional=templinst)_ZNSt6vectorIPN4llvm4UserESaIS2_EE17_M_realloc_insertIJRKS2_EEEvN9__gnu_cxx17__normal_iteratorIPS2_S4_EEDpOT_@Base 0
#MISSING: 15# (optional=templinst)_ZNSt6vectorIPN4llvm4UserESaIS2_EE17_M_realloc_insertIJS2_EEEvN9__gnu_cxx17__normal_iteratorIPS2_S4_EEDpOT_@Base 0
 (optional=templinst)_ZNSt6vectorIPN4llvm5ValueESaIS2_EE12emplace_backIJPNS0_11ConstantIntEEEEvDpOT_@Base 14
#MISSING: 15# (optional=templinst)_ZNSt6vectorIPN4llvm5ValueESaIS2_EE12emplace_backIJS2_EEEvDpOT_@Base 0
 (optional=templinst|subst)_ZNSt6vectorIPN4llvm5ValueESaIS2_EE14_M_fill_assignE{size_t}RKS2_@Base 0
 (optional=templinst|arch=!hurd-i386 !i386 !mipsel !powerpc !ppc64 !s390x)_ZNSt6vectorIPN4llvm5ValueESaIS2_EE14_M_insert_rvalEN9__gnu_cxx17__normal_iteratorIPKS2_S4_EEOS2_@Base 0
 (optional=templinst|subst)_ZNSt6vectorIPN4llvm5ValueESaIS2_EE17_M_default_appendE{size_t}@Base 0
 (optional=templinst)_ZNSt6vectorIPN4llvm5ValueESaIS2_EE17_M_realloc_insertIJRKS2_EEEvN9__gnu_cxx17__normal_iteratorIPS2_S4_EEDpOT_@Base 0
 (optional=templinst)_ZNSt6vectorIPN4llvm5ValueESaIS2_EE17_M_realloc_insertIJRS2_EEEvN9__gnu_cxx17__normal_iteratorIPS2_S4_EEDpOT_@Base 14
 (optional=templinst)_ZNSt6vectorIPN4llvm5ValueESaIS2_EE17_M_realloc_insertIJS2_EEEvN9__gnu_cxx17__normal_iteratorIPS2_S4_EEDpOT_@Base 0
#MISSING: 15# (optional=templinst|arch=!hurd-i386 !i386 !mipsel !powerpc !ppc64 !s390x)_ZNSt6vectorIPN4llvm5ValueESaIS2_EE6insertEN9__gnu_cxx17__normal_iteratorIPKS2_S4_EERS7_@Base 0
 (optional=templinst|arch=!hurd-i386 !i386 !mipsel !powerpc !ppc64 !s390x)_ZNSt6vectorIPN4llvm5ValueESaIS2_EE8_M_eraseEN9__gnu_cxx17__normal_iteratorIPS2_S4_EE@Base 0
 (optional=templinst|arch=!hurd-i386 !i386 !mipsel !powerpc !ppc64 !s390x)_ZNSt6vectorIPN4llvm5ValueESaIS2_EE8_M_eraseEN9__gnu_cxx17__normal_iteratorIPS2_S4_EES8_@Base 0
 (optional=templinst)_ZNSt6vectorIPN4llvm8ConstantESaIS2_EE12emplace_backIJS2_EEEvDpOT_@Base 0
 (optional=templinst)_ZNSt6vectorIPN4llvm8ConstantESaIS2_EE17_M_realloc_insertIJS2_EEEvN9__gnu_cxx17__normal_iteratorIPS2_S4_EEDpOT_@Base 0
 (optional=templinst)_ZNSt6vectorIPN4llvm8FunctionESaIS2_EE17_M_realloc_insertIJS2_EEEvN9__gnu_cxx17__normal_iteratorIPS2_S4_EEDpOT_@Base 0
 (optional=templinst)_ZNSt6vectorIPN4llvm8MetadataESaIS2_EE12emplace_backIJS2_EEEvDpOT_@Base 0
 (optional=templinst)_ZNSt6vectorIPN4llvm8MetadataESaIS2_EE17_M_realloc_insertIJRKS2_EEEvN9__gnu_cxx17__normal_iteratorIPS2_S4_EEDpOT_@Base 0
 (optional=templinst)_ZNSt6vectorIPN4llvm8MetadataESaIS2_EE17_M_realloc_insertIJS2_EEEvN9__gnu_cxx17__normal_iteratorIPS2_S4_EEDpOT_@Base 0
 (optional=templinst)_ZNSt6vectorIPN5SPIRV10SPIRVEntryESaIS2_EE17_M_realloc_insertIJRKS2_EEEvN9__gnu_cxx17__normal_iteratorIPS2_S4_EEDpOT_@Base 0
 (optional=templinst)_ZNSt6vectorIPN5SPIRV10SPIRVEntryESaIS2_EE17_M_realloc_insertIJS2_EEEvN9__gnu_cxx17__normal_iteratorIPS2_S4_EEDpOT_@Base 0
 (optional=templinst)_ZNSt6vectorIPN5SPIRV10SPIRVValueESaIS2_EE12emplace_backIJS2_EEEvDpOT_@Base 0
 (optional=templinst)_ZNSt6vectorIPN5SPIRV10SPIRVValueESaIS2_EE17_M_default_appendEm@Base 15
 (optional=templinst)_ZNSt6vectorIPN5SPIRV10SPIRVValueESaIS2_EE17_M_realloc_insertIJS2_EEEvN9__gnu_cxx17__normal_iteratorIPS2_S4_EEDpOT_@Base 0
 (optional=templinst)_ZNSt6vectorIPN5SPIRV11SPIRVStringESaIS2_EE17_M_realloc_insertIJS2_EEEvN9__gnu_cxx17__normal_iteratorIPS2_S4_EEDpOT_@Base 0
 (optional=templinst)_ZNSt6vectorIPN5SPIRV12SPIRVExtInstESaIS2_EE17_M_realloc_insertIJRKS2_EEEvN9__gnu_cxx17__normal_iteratorIPS2_S4_EEDpOT_@Base 0
 (optional=templinst)_ZNSt6vectorIPN5SPIRV13SPIRVAsmINTELESaIS2_EE17_M_realloc_insertIJS2_EEEvN9__gnu_cxx17__normal_iteratorIPS2_S4_EEDpOT_@Base 0
 (optional=templinst)_ZNSt6vectorIPN5SPIRV13SPIRVFunctionESaIS2_EE17_M_realloc_insertIJS2_EEEvN9__gnu_cxx17__normal_iteratorIPS2_S4_EEDpOT_@Base 0
 (optional=templinst)_ZNSt6vectorIPN5SPIRV13SPIRVVariableESaIS2_EE17_M_realloc_insertIJS2_EEEvN9__gnu_cxx17__normal_iteratorIPS2_S4_EEDpOT_@Base 0
 (optional=templinst)_ZNSt6vectorIPN5SPIRV15SPIRVBasicBlockESaIS2_EE17_M_realloc_insertIJRKS2_EEEvN9__gnu_cxx17__normal_iteratorIPS2_S4_EEDpOT_@Base 0
 (optional=templinst)_ZNSt6vectorIPN5SPIRV15SPIRVEntryPointESaIS2_EE17_M_realloc_insertIJRKS2_EEEvN9__gnu_cxx17__normal_iteratorIPS2_S4_EEDpOT_@Base 14
 (optional=templinst)_ZNSt6vectorIPN5SPIRV15SPIRVMemberNameESaIS2_EE17_M_realloc_insertIJS2_EEEvN9__gnu_cxx17__normal_iteratorIPS2_S4_EEDpOT_@Base 0
 (optional=templinst)_ZNSt6vectorIPN5SPIRV16SPIRVInstructionESaIS2_EE17_M_realloc_insertIJRKS2_EEEvN9__gnu_cxx17__normal_iteratorIPS2_S4_EEDpOT_@Base 0
 (optional=templinst)_ZNSt6vectorIPN5SPIRV19SPIRVAsmTargetINTELESaIS2_EE17_M_realloc_insertIJS2_EEEvN9__gnu_cxx17__normal_iteratorIPS2_S4_EEDpOT_@Base 0
 (optional=templinst)_ZNSt6vectorIPN5SPIRV20SPIRVDecorateGenericESaIS2_EE17_M_realloc_insertIJRKS2_EEEvN9__gnu_cxx17__normal_iteratorIPS2_S4_EEDpOT_@Base 14
 (optional=templinst)_ZNSt6vectorIPN5SPIRV20SPIRVDecorationGroupESaIS2_EE17_M_realloc_insertIJRKS2_EEEvN9__gnu_cxx17__normal_iteratorIPS2_S4_EEDpOT_@Base 0
 (optional=templinst)_ZNSt6vectorIPN5SPIRV20SPIRVModuleProcessedESaIS2_EE17_M_realloc_insertIJS2_EEEvN9__gnu_cxx17__normal_iteratorIPS2_S4_EEDpOT_@Base 12
 (optional=templinst)_ZNSt6vectorIPN5SPIRV22SPIRVFunctionParameterESaIS2_EE17_M_realloc_insertIJRKS2_EEEvN9__gnu_cxx17__normal_iteratorIPS2_S4_EEDpOT_@Base 0
 (optional=templinst)_ZNSt6vectorIPN5SPIRV25SPIRVGroupDecorateGenericESaIS2_EE17_M_realloc_insertIJRKS2_EEEvN9__gnu_cxx17__normal_iteratorIPS2_S4_EEDpOT_@Base 0
 (optional=templinst)_ZNSt6vectorIPN5SPIRV27SPIRVContinuedInstINTELBaseILN3spv2OpE6091EEESaIS5_EE17_M_realloc_insertIJRKS5_EEEvN9__gnu_cxx17__normal_iteratorIPS5_S7_EEDpOT_@Base 12
 (optional=templinst)_ZNSt6vectorIPN5SPIRV27SPIRVContinuedInstINTELBaseILN3spv2OpE6092EEESaIS5_EE17_M_realloc_insertIJRKS5_EEEvN9__gnu_cxx17__normal_iteratorIPS5_S7_EEDpOT_@Base 12
 (optional=templinst)_ZNSt6vectorIPN5SPIRV29SPIRVTypeStructContinuedINTELESaIS2_EE17_M_realloc_insertIJRKS2_EEEvN9__gnu_cxx17__normal_iteratorIPS2_S4_EEDpOT_@Base 12
 (optional=templinst)_ZNSt6vectorIPN5SPIRV9SPIRVTypeESaIS2_EE17_M_realloc_insertIJRKS2_EEEvN9__gnu_cxx17__normal_iteratorIPS2_S4_EEDpOT_@Base 0
 (optional=templinst)_ZNSt6vectorIPN5SPIRV9SPIRVTypeESaIS2_EE17_M_realloc_insertIJS2_EEEvN9__gnu_cxx17__normal_iteratorIPS2_S4_EEDpOT_@Base 0
 (optional=templinst)_ZNSt6vectorISt10unique_ptrIN4llvm6detail11PassConceptINS1_6ModuleENS1_15AnalysisManagerIS4_JEEEJEEESt14default_deleteIS7_EESaISA_EE17_M_realloc_insertIJSA_EEEvN9__gnu_cxx17__normal_iteratorIPSA_SC_EEDpOT_@Base 15
#MISSING: 15# (optional=templinst)_ZNSt6vectorISt4pairIN3spv10DecorationENSt7__cxx1112basic_stringIcSt11char_traitsIcESaIcEEEESaIS9_EE12emplace_backIJS2_RA1_KcEEEvDpOT_@Base 0
#MISSING: 15# (optional=templinst)_ZNSt6vectorISt4pairIN3spv10DecorationENSt7__cxx1112basic_stringIcSt11char_traitsIcESaIcEEEESaIS9_EE12emplace_backIJS2_S8_EEEvDpOT_@Base 0
 (optional=templinst)_ZNSt6vectorISt4pairIN3spv10DecorationES_INSt7__cxx1112basic_stringIcSt11char_traitsIcESaIcEEESaIS8_EEESaISB_EE12emplace_backIJS2_SA_EEEvDpOT_@Base 15
 (optional=templinst)_ZNSt6vectorISt4pairIN3spv10DecorationES_INSt7__cxx1112basic_stringIcSt11char_traitsIcESaIcEEESaIS8_EEESaISB_EE17_M_realloc_insertIJRS2_SA_EEEvN9__gnu_cxx17__normal_iteratorIPSB_SD_EEDpOT_@Base 15
 (optional=templinst)_ZNSt6vectorISt4pairIN3spv10DecorationES_INSt7__cxx1112basic_stringIcSt11char_traitsIcESaIcEEESaIS8_EEESaISB_EE17_M_realloc_insertIJS2_SA_EEEvN9__gnu_cxx17__normal_iteratorIPSB_SD_EEDpOT_@Base 15
 (optional=templinst)_ZNSt6vectorISt4pairINSt7__cxx1112basic_stringIcSt11char_traitsIcESaIcEEES6_ESaIS7_EE17_M_realloc_insertIJS7_EEEvN9__gnu_cxx17__normal_iteratorIPS7_S9_EEDpOT_@Base 0
#MISSING: 15# (optional=templinst)_ZNSt6vectorISt4pairIPN4llvm8FunctionEN3spv2OpEESaIS6_EE17_M_realloc_insertIJS6_EEEvN9__gnu_cxx17__normal_iteratorIPS6_S8_EEDpOT_@Base 0
 (optional=templinst)_ZNSt6vectorISt4pairIS_IjSaIjEEPN5SPIRV15SPIRVBasicBlockEESaIS6_EE17_M_realloc_insertIJS6_EEEvN9__gnu_cxx17__normal_iteratorIPS6_S8_EEDpOT_@Base 0
 (optional=templinst)_ZNSt6vectorISt4pairIccESaIS1_EE17_M_realloc_insertIJS1_EEEvN9__gnu_cxx17__normal_iteratorIPS1_S3_EEDpOT_@Base 0
 (optional=templinst)_ZNSt6vectorISt4pairIjjESaIS1_EE12emplace_backIJN3spv15LoopControlMaskERjEEEvDpOT_@Base 12
 (optional=templinst|arch=!armel !armhf !i386 !mipsel !powerpc !x32)_ZNSt6vectorISt4pairIjjESaIS1_EE12emplace_backIJN3spv15LoopControlMaskERmEEEvDpOT_@Base 12
 (optional=templinst)_ZNSt6vectorISt4pairIjjESaIS1_EE12emplace_backIJN3spv15LoopControlMaskEiEEEvDpOT_@Base 12
 (optional=templinst|arch=armel armhf i386 mipsel powerpc x32)_ZNSt6vectorISt4pairIjjESaIS1_EE12emplace_backIJN3spv15LoopControlMaskEjEEEvDpOT_@Base 12
 (optional=templinst|arch=!armel !armhf !i386 !mipsel !powerpc !x32)_ZNSt6vectorISt4pairIjjESaIS1_EE12emplace_backIJN3spv15LoopControlMaskEmEEEvDpOT_@Base 12
 (optional=templinst)_ZNSt6vectorISt4pairIjjESaIS1_EE12emplace_backIJRKN3spv15LoopControlMaskEjEEEvDpOT_@Base 13
 (optional=templinst)_ZNSt6vectorISt4pairIjjESaIS1_EE12emplace_backIJRKjRjEEEvDpOT_@Base 0
 (optional=templinst|arch=armel armhf hurd-i386 i386 mipsel powerpc)_ZNSt6vectorISt4pairIjjESaIS1_EE17_M_realloc_insertIJRjS5_EEEvN9__gnu_cxx17__normal_iteratorIPS1_S3_EEDpOT_@Base 0
 (optional=templinst)_ZNSt6vectorISt4pairIjjESaIS1_EE17_M_realloc_insertIJS1_EEEvN9__gnu_cxx17__normal_iteratorIPS1_S3_EEDpOT_@Base 0
 (optional=templinst|arch=!x32)_ZNSt6vectorISt4pairIlS_INSt7__cxx119sub_matchIPKcEESaIS5_EEESaIS8_EE12emplace_backIJRlRKS7_EEEvDpOT_@Base 0
 (optional=templinst)_ZNSt6vectorISt4pairIlS_INSt7__cxx119sub_matchIPKcEESaIS5_EEESaIS8_EE17_M_realloc_insertIJRlRKS7_EEEvN9__gnu_cxx17__normal_iteratorIPS8_SA_EEDpOT_@Base 0
 (optional=templinst)_ZNSt6vectorIcSaIcEE12emplace_backIJcEEEvDpOT_@Base 0
 (optional=templinst)_ZNSt6vectorIcSaIcEE17_M_realloc_insertIJcEEEvN9__gnu_cxx17__normal_iteratorIPcS1_EEDpOT_@Base 0
 (optional=templinst)_ZNSt6vectorIiSaIiEE12emplace_backIJiEEEvDpOT_@Base 0
 (optional=templinst)_ZNSt6vectorIiSaIiEE17_M_realloc_insertIJiEEEvN9__gnu_cxx17__normal_iteratorIPiS1_EEDpOT_@Base 0
 (optional=templinst)_ZNSt6vectorIjSaIjEE12emplace_backIJjEEEvDpOT_@Base 0
 (optional=templinst|arch=armel armhf i386 mipsel powerpc x32)_ZNSt6vectorIjSaIjEE14_M_fill_insertEN9__gnu_cxx17__normal_iteratorIPjS1_EEjRKj@Base 12
 (optional=templinst|arch=!armel !armhf !i386 !mipsel !powerpc !x32)_ZNSt6vectorIjSaIjEE14_M_fill_insertEN9__gnu_cxx17__normal_iteratorIPjS1_EEmRKj@Base 12
 (optional=templinst|subst)_ZNSt6vectorIjSaIjEE17_M_default_appendE{size_t}@Base 0
 (optional=templinst)_ZNSt6vectorIjSaIjEE17_M_realloc_insertIJRKjEEEvN9__gnu_cxx17__normal_iteratorIPjS1_EEDpOT_@Base 0
 (optional=templinst)_ZNSt6vectorIjSaIjEE17_M_realloc_insertIJjEEEvN9__gnu_cxx17__normal_iteratorIPjS1_EEDpOT_@Base 0
 (optional=templinst|arch=!armel !armhf !hurd-i386 !i386 !mipsel !powerpc !x32)_ZNSt6vectorImSaImEE17_M_realloc_insertIJRKmEEEvN9__gnu_cxx17__normal_iteratorIPmS1_EEDpOT_@Base 0
 (optional=templinst|subst)_ZNSt6vectorI{uint64_t}SaI{uint64_t}EE17_M_realloc_insertIJ{uint64_t}EEEvN9__gnu_cxx17__normal_iteratorIP{uint64_t}S1_EEDpOT_@Base 14
 (optional=templinst|arch=!amd64 !arm64 !mips64el !ppc64el !riscv64 !sparc64 !x32)_ZNSt8_Rb_treeI14VCFloatControlSt4pairIKS0_N17VectorComputeUtil11VCFloatTypeEESt10_Select1stIS5_ESt4lessIS0_ESaIS5_EE22_M_emplace_hint_uniqueIJRKSt21piecewise_construct_tSt5tupleIJRS2_EESG_IJEEEEESt17_Rb_tree_iteratorIS5_ESt23_Rb_tree_const_iteratorIS5_EDpOT_@Base 0
 (optional=templinst)_ZNSt8_Rb_treeI14VCFloatControlSt4pairIKS0_N17VectorComputeUtil11VCFloatTypeEESt10_Select1stIS5_ESt4lessIS0_ESaIS5_EE24_M_get_insert_unique_posERS2_@Base 0
 (optional=templinst|arch=amd64 arm64 mips64el ppc64el riscv64 sparc64 x32)_ZNSt8_Rb_treeI14VCFloatControlSt4pairIKS0_N17VectorComputeUtil11VCFloatTypeEESt10_Select1stIS5_ESt4lessIS0_ESaIS5_EE29_M_get_insert_hint_unique_posESt23_Rb_tree_const_iteratorIS5_ERS2_@Base 0
 (optional=templinst|arch=!amd64 !arm64 !mips64el !ppc64el !riscv64 !sparc64 !x32)_ZNSt8_Rb_treeI14VCFloatControlSt4pairIKS0_N3spv14FPRoundingModeEESt10_Select1stIS5_ESt4lessIS0_ESaIS5_EE22_M_emplace_hint_uniqueIJRKSt21piecewise_construct_tSt5tupleIJRS2_EESG_IJEEEEESt17_Rb_tree_iteratorIS5_ESt23_Rb_tree_const_iteratorIS5_EDpOT_@Base 0
 (optional=templinst)_ZNSt8_Rb_treeI14VCFloatControlSt4pairIKS0_N3spv14FPRoundingModeEESt10_Select1stIS5_ESt4lessIS0_ESaIS5_EE24_M_get_insert_unique_posERS2_@Base 0
 (optional=templinst|arch=amd64 arm64 mips64el ppc64el riscv64 sparc64 x32)_ZNSt8_Rb_treeI14VCFloatControlSt4pairIKS0_N3spv14FPRoundingModeEESt10_Select1stIS5_ESt4lessIS0_ESaIS5_EE29_M_get_insert_hint_unique_posESt23_Rb_tree_const_iteratorIS5_ERS2_@Base 0
 (optional=templinst|arch=!amd64 !arm64 !mips64el !ppc64el !riscv64 !sparc64 !x32)_ZNSt8_Rb_treeI14VCFloatControlSt4pairIKS0_N3spv15FPOperationModeEESt10_Select1stIS5_ESt4lessIS0_ESaIS5_EE22_M_emplace_hint_uniqueIJRKSt21piecewise_construct_tSt5tupleIJRS2_EESG_IJEEEEESt17_Rb_tree_iteratorIS5_ESt23_Rb_tree_const_iteratorIS5_EDpOT_@Base 0
 (optional=templinst)_ZNSt8_Rb_treeI14VCFloatControlSt4pairIKS0_N3spv15FPOperationModeEESt10_Select1stIS5_ESt4lessIS0_ESaIS5_EE24_M_get_insert_unique_posERS2_@Base 0
 (optional=templinst|arch=amd64 arm64 mips64el ppc64el riscv64 sparc64 x32)_ZNSt8_Rb_treeI14VCFloatControlSt4pairIKS0_N3spv15FPOperationModeEESt10_Select1stIS5_ESt4lessIS0_ESaIS5_EE29_M_get_insert_hint_unique_posESt23_Rb_tree_const_iteratorIS5_ERS2_@Base 0
 (optional=templinst|arch=!amd64 !arm64 !mips64el !ppc64el !riscv64 !sparc64 !x32)_ZNSt8_Rb_treeIN10SPIRVDebug11EncodingTagESt4pairIKS1_N4llvm5dwarf8TypeKindEESt10_Select1stIS7_ESt4lessIS1_ESaIS7_EE22_M_emplace_hint_uniqueIJRKSt21piecewise_construct_tSt5tupleIJRS3_EESI_IJEEEEESt17_Rb_tree_iteratorIS7_ESt23_Rb_tree_const_iteratorIS7_EDpOT_@Base 0
 (optional=templinst)_ZNSt8_Rb_treeIN10SPIRVDebug11EncodingTagESt4pairIKS1_N4llvm5dwarf8TypeKindEESt10_Select1stIS7_ESt4lessIS1_ESaIS7_EE24_M_get_insert_unique_posERS3_@Base 0
 (optional=templinst|arch=amd64 arm64 mips64el ppc64el riscv64 sparc64 x32)_ZNSt8_Rb_treeIN10SPIRVDebug11EncodingTagESt4pairIKS1_N4llvm5dwarf8TypeKindEESt10_Select1stIS7_ESt4lessIS1_ESaIS7_EE29_M_get_insert_hint_unique_posESt23_Rb_tree_const_iteratorIS7_ERS3_@Base 0
 (optional=templinst)_ZNSt8_Rb_treeIN10SPIRVDebug11InstructionESt4pairIKS1_NSt7__cxx1112basic_stringIcSt11char_traitsIcESaIcEEEESt10_Select1stISA_ESt4lessIS1_ESaISA_EE24_M_get_insert_unique_posERS3_@Base 0
 (optional=templinst|arch=amd64 arm64 mips64el ppc64el riscv64 sparc64 x32)_ZNSt8_Rb_treeIN10SPIRVDebug11InstructionESt4pairIKS1_NSt7__cxx1112basic_stringIcSt11char_traitsIcESaIcEEEESt10_Select1stISA_ESt4lessIS1_ESaISA_EE29_M_get_insert_hint_unique_posESt23_Rb_tree_const_iteratorISA_ERS3_@Base 0
 (optional=templinst|arch=!amd64 !arm64 !mips64el !ppc64el !riscv64 !sparc64 !x32)_ZNSt8_Rb_treeIN10SPIRVDebug16CompositeTypeTagESt4pairIKS1_N4llvm5dwarf3TagEESt10_Select1stIS7_ESt4lessIS1_ESaIS7_EE22_M_emplace_hint_uniqueIJRKSt21piecewise_construct_tSt5tupleIJRS3_EESI_IJEEEEESt17_Rb_tree_iteratorIS7_ESt23_Rb_tree_const_iteratorIS7_EDpOT_@Base 0
 (optional=templinst)_ZNSt8_Rb_treeIN10SPIRVDebug16CompositeTypeTagESt4pairIKS1_N4llvm5dwarf3TagEESt10_Select1stIS7_ESt4lessIS1_ESaIS7_EE24_M_get_insert_unique_posERS3_@Base 0
 (optional=templinst|arch=amd64 arm64 mips64el ppc64el riscv64 sparc64 x32)_ZNSt8_Rb_treeIN10SPIRVDebug16CompositeTypeTagESt4pairIKS1_N4llvm5dwarf3TagEESt10_Select1stIS7_ESt4lessIS1_ESaIS7_EE29_M_get_insert_hint_unique_posESt23_Rb_tree_const_iteratorIS7_ERS3_@Base 0
 (optional=templinst|arch=!amd64 !arm64 !mips64el !ppc64el !riscv64 !sparc64 !x32)_ZNSt8_Rb_treeIN10SPIRVDebug16ExpressionOpCodeESt4pairIKS1_N4llvm5dwarf12LocationAtomEESt10_Select1stIS7_ESt4lessIS1_ESaIS7_EE22_M_emplace_hint_uniqueIJRKSt21piecewise_construct_tSt5tupleIJRS3_EESI_IJEEEEESt17_Rb_tree_iteratorIS7_ESt23_Rb_tree_const_iteratorIS7_EDpOT_@Base 0
 (optional=templinst)_ZNSt8_Rb_treeIN10SPIRVDebug16ExpressionOpCodeESt4pairIKS1_N4llvm5dwarf12LocationAtomEESt10_Select1stIS7_ESt4lessIS1_ESaIS7_EE24_M_get_insert_unique_posERS3_@Base 0
 (optional=templinst|arch=amd64 arm64 mips64el ppc64el riscv64 sparc64 x32)_ZNSt8_Rb_treeIN10SPIRVDebug16ExpressionOpCodeESt4pairIKS1_N4llvm5dwarf12LocationAtomEESt10_Select1stIS7_ESt4lessIS1_ESaIS7_EE29_M_get_insert_hint_unique_posESt23_Rb_tree_const_iteratorIS7_ERS3_@Base 0
 (optional=templinst)_ZNSt8_Rb_treeIN10SPIRVDebug16ExpressionOpCodeESt4pairIKS1_jESt10_Select1stIS4_ESt4lessIS1_ESaIS4_EE24_M_get_insert_unique_posERS3_@Base 0
 (optional=templinst)_ZNSt8_Rb_treeIN10SPIRVDebug16ExpressionOpCodeESt4pairIKS1_jESt10_Select1stIS4_ESt4lessIS1_ESaIS4_EE29_M_get_insert_hint_unique_posESt23_Rb_tree_const_iteratorIS4_ERS3_@Base 0
 (optional=templinst|arch=!amd64 !arm64 !mips64el !ppc64el !riscv64 !sparc64 !x32)_ZNSt8_Rb_treeIN10SPIRVDebug16TypeQualifierTagESt4pairIKS1_N4llvm5dwarf3TagEESt10_Select1stIS7_ESt4lessIS1_ESaIS7_EE22_M_emplace_hint_uniqueIJRKSt21piecewise_construct_tSt5tupleIJRS3_EESI_IJEEEEESt17_Rb_tree_iteratorIS7_ESt23_Rb_tree_const_iteratorIS7_EDpOT_@Base 0
 (optional=templinst)_ZNSt8_Rb_treeIN10SPIRVDebug16TypeQualifierTagESt4pairIKS1_N4llvm5dwarf3TagEESt10_Select1stIS7_ESt4lessIS1_ESaIS7_EE24_M_get_insert_unique_posERS3_@Base 0
 (optional=templinst|arch=amd64 arm64 mips64el ppc64el riscv64 sparc64 x32)_ZNSt8_Rb_treeIN10SPIRVDebug16TypeQualifierTagESt4pairIKS1_N4llvm5dwarf3TagEESt10_Select1stIS7_ESt4lessIS1_ESaIS7_EE29_M_get_insert_hint_unique_posESt23_Rb_tree_const_iteratorIS7_ERS3_@Base 0
 (optional=templinst|arch=!amd64 !arm64 !mips64el !ppc64el !riscv64 !sparc64 !x32)_ZNSt8_Rb_treeIN10SPIRVDebug17ImportedEntityTagESt4pairIKS1_N4llvm5dwarf3TagEESt10_Select1stIS7_ESt4lessIS1_ESaIS7_EE22_M_emplace_hint_uniqueIJRKSt21piecewise_construct_tSt5tupleIJRS3_EESI_IJEEEEESt17_Rb_tree_iteratorIS7_ESt23_Rb_tree_const_iteratorIS7_EDpOT_@Base 0
 (optional=templinst)_ZNSt8_Rb_treeIN10SPIRVDebug17ImportedEntityTagESt4pairIKS1_N4llvm5dwarf3TagEESt10_Select1stIS7_ESt4lessIS1_ESaIS7_EE24_M_get_insert_unique_posERS3_@Base 0
 (optional=templinst|arch=amd64 arm64 mips64el ppc64el riscv64 sparc64 x32)_ZNSt8_Rb_treeIN10SPIRVDebug17ImportedEntityTagESt4pairIKS1_N4llvm5dwarf3TagEESt10_Select1stIS7_ESt4lessIS1_ESaIS7_EE29_M_get_insert_hint_unique_posESt23_Rb_tree_const_iteratorIS7_ERS3_@Base 0
 (optional=templinst|arch=!amd64 !arm64 !mips64el !ppc64el !riscv64 !sparc64 !x32)_ZNSt8_Rb_treeIN17VectorComputeUtil11VCFloatTypeESt4pairIKS1_14VCFloatControlESt10_Select1stIS5_ESt4lessIS1_ESaIS5_EE22_M_emplace_hint_uniqueIJRKSt21piecewise_construct_tSt5tupleIJRS3_EESG_IJEEEEESt17_Rb_tree_iteratorIS5_ESt23_Rb_tree_const_iteratorIS5_EDpOT_@Base 0
 (optional=templinst)_ZNSt8_Rb_treeIN17VectorComputeUtil11VCFloatTypeESt4pairIKS1_14VCFloatControlESt10_Select1stIS5_ESt4lessIS1_ESaIS5_EE24_M_get_insert_unique_posERS3_@Base 0
 (optional=templinst|arch=amd64 arm64 mips64el ppc64el riscv64 sparc64 x32)_ZNSt8_Rb_treeIN17VectorComputeUtil11VCFloatTypeESt4pairIKS1_14VCFloatControlESt10_Select1stIS5_ESt4lessIS1_ESaIS5_EE29_M_get_insert_hint_unique_posESt23_Rb_tree_const_iteratorIS5_ERS3_@Base 0
 (optional=templinst|arch=!amd64 !arm64 !mips64el !ppc64el !riscv64 !sparc64 !x32)_ZNSt8_Rb_treeIN17VectorComputeUtil11VCFloatTypeESt4pairIKS1_jESt10_Select1stIS4_ESt4lessIS1_ESaIS4_EE22_M_emplace_hint_uniqueIJRKSt21piecewise_construct_tSt5tupleIJRS3_EESF_IJEEEEESt17_Rb_tree_iteratorIS4_ESt23_Rb_tree_const_iteratorIS4_EDpOT_@Base 0
 (optional=templinst)_ZNSt8_Rb_treeIN17VectorComputeUtil11VCFloatTypeESt4pairIKS1_jESt10_Select1stIS4_ESt4lessIS1_ESaIS4_EE24_M_get_insert_unique_posERS3_@Base 0
 (optional=templinst|arch=amd64 arm64 mips64el ppc64el riscv64 sparc64 x32)_ZNSt8_Rb_treeIN17VectorComputeUtil11VCFloatTypeESt4pairIKS1_jESt10_Select1stIS4_ESt4lessIS1_ESaIS4_EE29_M_get_insert_hint_unique_posESt23_Rb_tree_const_iteratorIS4_ERS3_@Base 0
 (optional=templinst|arch=!amd64 !arm64 !mips64el !ppc64el !riscv64 !sparc64 !x32)_ZNSt8_Rb_treeIN3spv10CapabilityESt4pairIKS1_N7OCLUtil6OclExt4KindEESt10_Select1stIS7_ESt4lessIS1_ESaIS7_EE22_M_emplace_hint_uniqueIJRKSt21piecewise_construct_tSt5tupleIJRS3_EESI_IJEEEEESt17_Rb_tree_iteratorIS7_ESt23_Rb_tree_const_iteratorIS7_EDpOT_@Base 0
 (optional=templinst)_ZNSt8_Rb_treeIN3spv10CapabilityESt4pairIKS1_N7OCLUtil6OclExt4KindEESt10_Select1stIS7_ESt4lessIS1_ESaIS7_EE24_M_get_insert_unique_posERS3_@Base 0
 (optional=templinst|arch=amd64 arm64 mips64el ppc64el riscv64 sparc64 x32)_ZNSt8_Rb_treeIN3spv10CapabilityESt4pairIKS1_N7OCLUtil6OclExt4KindEESt10_Select1stIS7_ESt4lessIS1_ESaIS7_EE29_M_get_insert_hint_unique_posESt23_Rb_tree_const_iteratorIS7_ERS3_@Base 0
 (optional=templinst)_ZNSt8_Rb_treeIN3spv10CapabilityESt4pairIKS1_NSt7__cxx1112basic_stringIcSt11char_traitsIcESaIcEEEESt10_Select1stISA_ESt4lessIS1_ESaISA_EE24_M_get_insert_unique_posERS3_@Base 0
 (optional=templinst|arch=amd64 arm64 mips64el ppc64el riscv64 sparc64 x32)_ZNSt8_Rb_treeIN3spv10CapabilityESt4pairIKS1_NSt7__cxx1112basic_stringIcSt11char_traitsIcESaIcEEEESt10_Select1stISA_ESt4lessIS1_ESaISA_EE29_M_get_insert_hint_unique_posESt23_Rb_tree_const_iteratorISA_ERS3_@Base 0
 (optional=templinst)_ZNSt8_Rb_treeIN3spv10CapabilityESt4pairIKS1_St6vectorIS1_SaIS1_EEESt10_Select1stIS7_ESt4lessIS1_ESaIS7_EE24_M_get_insert_unique_posERS3_@Base 0
 (optional=templinst|arch=amd64 arm64 mips64el ppc64el riscv64 sparc64 x32)_ZNSt8_Rb_treeIN3spv10CapabilityESt4pairIKS1_St6vectorIS1_SaIS1_EEESt10_Select1stIS7_ESt4lessIS1_ESaIS7_EE29_M_get_insert_hint_unique_posESt23_Rb_tree_const_iteratorIS7_ERS3_@Base 0
 (optional=templinst)_ZNSt8_Rb_treeIN3spv10DecorationESt4pairIKS1_NSt7__cxx1112basic_stringIcSt11char_traitsIcESaIcEEEESt10_Select1stISA_ESt4lessIS1_ESaISA_EE24_M_get_insert_unique_posERS3_@Base 0
 (optional=templinst|arch=amd64 arm64 mips64el ppc64el riscv64 sparc64 x32)_ZNSt8_Rb_treeIN3spv10DecorationESt4pairIKS1_NSt7__cxx1112basic_stringIcSt11char_traitsIcESaIcEEEESt10_Select1stISA_ESt4lessIS1_ESaISA_EE29_M_get_insert_hint_unique_posESt23_Rb_tree_const_iteratorISA_ERS3_@Base 0
 (optional=templinst)_ZNSt8_Rb_treeIN3spv10DecorationESt4pairIKS1_PKN5SPIRV13SPIRVDecorateEESt10_Select1stIS8_ESt4lessIS1_ESaIS8_EE11equal_rangeERS3_@Base 0
 (optional=templinst|arch=!hurd-i386 !i386 !mipsel !powerpc !ppc64 !s390x)_ZNSt8_Rb_treeIN3spv10DecorationESt4pairIKS1_PKN5SPIRV13SPIRVDecorateEESt10_Select1stIS8_ESt4lessIS1_ESaIS8_EE16_M_emplace_equalIJS2_IS1_PS5_EEEESt17_Rb_tree_iteratorIS8_EDpOT_@Base 0
 (optional=templinst|arch=!i386 !mipsel !powerpc !ppc64 !s390x)_ZNSt8_Rb_treeIN3spv10DecorationESt4pairIKS1_PKN5SPIRV15SPIRVDecorateIdEESt10_Select1stIS8_ESt4lessIS1_ESaIS8_EE16_M_emplace_equalIJS2_IS1_PS5_EEEESt17_Rb_tree_iteratorIS8_EDpOT_@Base 13
 (optional=templinst)_ZNSt8_Rb_treeIN3spv10DecorationESt4pairIKS1_St6vectorINS0_10CapabilityESaIS5_EEESt10_Select1stIS8_ESt4lessIS1_ESaIS8_EE24_M_get_insert_unique_posERS3_@Base 0
 (optional=templinst|arch=amd64 arm64 mips64el ppc64el riscv64 sparc64 x32)_ZNSt8_Rb_treeIN3spv10DecorationESt4pairIKS1_St6vectorINS0_10CapabilityESaIS5_EEESt10_Select1stIS8_ESt4lessIS1_ESaIS8_EE29_M_get_insert_hint_unique_posESt23_Rb_tree_const_iteratorIS8_ERS3_@Base 0
 (optional=templinst)_ZNSt8_Rb_treeIN3spv11LinkageTypeESt4pairIKS1_NSt7__cxx1112basic_stringIcSt11char_traitsIcESaIcEEEESt10_Select1stISA_ESt4lessIS1_ESaISA_EE24_M_get_insert_unique_posERS3_@Base 0
 (optional=templinst|arch=amd64 arm64 mips64el ppc64el riscv64 sparc64 x32)_ZNSt8_Rb_treeIN3spv11LinkageTypeESt4pairIKS1_NSt7__cxx1112basic_stringIcSt11char_traitsIcESaIcEEEESt10_Select1stISA_ESt4lessIS1_ESaISA_EE29_M_get_insert_hint_unique_posESt23_Rb_tree_const_iteratorISA_ERS3_@Base 0
 (optional=templinst|arch=!amd64 !arm64 !mips64el !ppc64el !riscv64 !sparc64 !x32)_ZNSt8_Rb_treeIN3spv12FPDenormModeESt4pairIKS1_NS0_13ExecutionModeEESt10_Select1stIS5_ESt4lessIS1_ESaIS5_EE22_M_emplace_hint_uniqueIJRKSt21piecewise_construct_tSt5tupleIJRS3_EESG_IJEEEEESt17_Rb_tree_iteratorIS5_ESt23_Rb_tree_const_iteratorIS5_EDpOT_@Base 0
 (optional=templinst)_ZNSt8_Rb_treeIN3spv12FPDenormModeESt4pairIKS1_NS0_13ExecutionModeEESt10_Select1stIS5_ESt4lessIS1_ESaIS5_EE24_M_get_insert_unique_posERS3_@Base 0
 (optional=templinst|arch=amd64 arm64 mips64el ppc64el riscv64 sparc64 x32)_ZNSt8_Rb_treeIN3spv12FPDenormModeESt4pairIKS1_NS0_13ExecutionModeEESt10_Select1stIS5_ESt4lessIS1_ESaIS5_EE29_M_get_insert_hint_unique_posESt23_Rb_tree_const_iteratorIS5_ERS3_@Base 0
 (optional=templinst|arch=!amd64 !arm64 !mips64el !ppc64el !riscv64 !sparc64 !x32)_ZNSt8_Rb_treeIN3spv12StorageClassESt4pairIKS1_N5SPIRV16SPIRAddressSpaceEESt10_Select1stIS6_ESt4lessIS1_ESaIS6_EE22_M_emplace_hint_uniqueIJRKSt21piecewise_construct_tSt5tupleIJRS3_EESH_IJEEEEESt17_Rb_tree_iteratorIS6_ESt23_Rb_tree_const_iteratorIS6_EDpOT_@Base 0
 (optional=templinst)_ZNSt8_Rb_treeIN3spv12StorageClassESt4pairIKS1_N5SPIRV16SPIRAddressSpaceEESt10_Select1stIS6_ESt4lessIS1_ESaIS6_EE24_M_get_insert_unique_posERS3_@Base 0
 (optional=templinst|arch=amd64 arm64 mips64el ppc64el riscv64 sparc64 x32)_ZNSt8_Rb_treeIN3spv12StorageClassESt4pairIKS1_N5SPIRV16SPIRAddressSpaceEESt10_Select1stIS6_ESt4lessIS1_ESaIS6_EE29_M_get_insert_hint_unique_posESt23_Rb_tree_const_iteratorIS6_ERS3_@Base 0
 (optional=templinst)_ZNSt8_Rb_treeIN3spv12StorageClassESt4pairIKS1_St6vectorINS0_10CapabilityESaIS5_EEESt10_Select1stIS8_ESt4lessIS1_ESaIS8_EE24_M_get_insert_unique_posERS3_@Base 0
 (optional=templinst|arch=amd64 arm64 mips64el ppc64el riscv64 sparc64 x32)_ZNSt8_Rb_treeIN3spv12StorageClassESt4pairIKS1_St6vectorINS0_10CapabilityESaIS5_EEESt10_Select1stIS8_ESt4lessIS1_ESaIS8_EE29_M_get_insert_hint_unique_posESt23_Rb_tree_const_iteratorIS8_ERS3_@Base 0
 (optional=templinst|arch=!amd64 !arm64 !mips64el !ppc64el !riscv64 !sparc64 !x32)_ZNSt8_Rb_treeIN3spv13ExecutionModeESt4pairIKS1_NS0_12FPDenormModeEESt10_Select1stIS5_ESt4lessIS1_ESaIS5_EE22_M_emplace_hint_uniqueIJRKSt21piecewise_construct_tSt5tupleIJRS3_EESG_IJEEEEESt17_Rb_tree_iteratorIS5_ESt23_Rb_tree_const_iteratorIS5_EDpOT_@Base 0
 (optional=templinst)_ZNSt8_Rb_treeIN3spv13ExecutionModeESt4pairIKS1_NS0_12FPDenormModeEESt10_Select1stIS5_ESt4lessIS1_ESaIS5_EE24_M_get_insert_unique_posERS3_@Base 0
 (optional=templinst|arch=amd64 arm64 mips64el ppc64el riscv64 sparc64 x32)_ZNSt8_Rb_treeIN3spv13ExecutionModeESt4pairIKS1_NS0_12FPDenormModeEESt10_Select1stIS5_ESt4lessIS1_ESaIS5_EE29_M_get_insert_hint_unique_posESt23_Rb_tree_const_iteratorIS5_ERS3_@Base 0
 (optional=templinst|arch=!amd64 !arm64 !mips64el !ppc64el !riscv64 !sparc64 !x32)_ZNSt8_Rb_treeIN3spv13ExecutionModeESt4pairIKS1_NS0_14FPRoundingModeEESt10_Select1stIS5_ESt4lessIS1_ESaIS5_EE22_M_emplace_hint_uniqueIJRKSt21piecewise_construct_tSt5tupleIJRS3_EESG_IJEEEEESt17_Rb_tree_iteratorIS5_ESt23_Rb_tree_const_iteratorIS5_EDpOT_@Base 0
 (optional=templinst)_ZNSt8_Rb_treeIN3spv13ExecutionModeESt4pairIKS1_NS0_14FPRoundingModeEESt10_Select1stIS5_ESt4lessIS1_ESaIS5_EE24_M_get_insert_unique_posERS3_@Base 0
 (optional=templinst|arch=amd64 arm64 mips64el ppc64el riscv64 sparc64 x32)_ZNSt8_Rb_treeIN3spv13ExecutionModeESt4pairIKS1_NS0_14FPRoundingModeEESt10_Select1stIS5_ESt4lessIS1_ESaIS5_EE29_M_get_insert_hint_unique_posESt23_Rb_tree_const_iteratorIS5_ERS3_@Base 0
 (optional=templinst|arch=!amd64 !arm64 !mips64el !ppc64el !riscv64 !sparc64 !x32)_ZNSt8_Rb_treeIN3spv13ExecutionModeESt4pairIKS1_NS0_15FPOperationModeEESt10_Select1stIS5_ESt4lessIS1_ESaIS5_EE22_M_emplace_hint_uniqueIJRKSt21piecewise_construct_tSt5tupleIJRS3_EESG_IJEEEEESt17_Rb_tree_iteratorIS5_ESt23_Rb_tree_const_iteratorIS5_EDpOT_@Base 0
 (optional=templinst)_ZNSt8_Rb_treeIN3spv13ExecutionModeESt4pairIKS1_NS0_15FPOperationModeEESt10_Select1stIS5_ESt4lessIS1_ESaIS5_EE24_M_get_insert_unique_posERS3_@Base 0
 (optional=templinst|arch=amd64 arm64 mips64el ppc64el riscv64 sparc64 x32)_ZNSt8_Rb_treeIN3spv13ExecutionModeESt4pairIKS1_NS0_15FPOperationModeEESt10_Select1stIS5_ESt4lessIS1_ESaIS5_EE29_M_get_insert_hint_unique_posESt23_Rb_tree_const_iteratorIS5_ERS3_@Base 0
 (optional=templinst)_ZNSt8_Rb_treeIN3spv13ExecutionModeESt4pairIKS1_St6vectorINS0_10CapabilityESaIS5_EEESt10_Select1stIS8_ESt4lessIS1_ESaIS8_EE24_M_get_insert_unique_posERS3_@Base 0
 (optional=templinst|arch=amd64 arm64 mips64el ppc64el riscv64 sparc64 x32)_ZNSt8_Rb_treeIN3spv13ExecutionModeESt4pairIKS1_St6vectorINS0_10CapabilityESaIS5_EEESt10_Select1stIS8_ESt4lessIS1_ESaIS8_EE29_M_get_insert_hint_unique_posESt23_Rb_tree_const_iteratorIS8_ERS3_@Base 0
 (optional=templinst)_ZNSt8_Rb_treeIN3spv14ExecutionModelESt4pairIKS1_St3setIjSt4lessIjESaIjEEESt10_Select1stIS9_ES5_IS1_ESaIS9_EE24_M_get_insert_unique_posERS3_@Base 0
 (optional=templinst|arch=amd64 arm64 mips64el ppc64el riscv64 sparc64 x32)_ZNSt8_Rb_treeIN3spv14ExecutionModelESt4pairIKS1_St3setIjSt4lessIjESaIjEEESt10_Select1stIS9_ES5_IS1_ESaIS9_EE29_M_get_insert_hint_unique_posESt23_Rb_tree_const_iteratorIS9_ERS3_@Base 0
 (optional=templinst)_ZNSt8_Rb_treeIN3spv14ExecutionModelESt4pairIKS1_St6vectorINS0_10CapabilityESaIS5_EEESt10_Select1stIS8_ESt4lessIS1_ESaIS8_EE24_M_get_insert_unique_posERS3_@Base 0
 (optional=templinst|arch=amd64 arm64 mips64el ppc64el riscv64 sparc64 x32)_ZNSt8_Rb_treeIN3spv14ExecutionModelESt4pairIKS1_St6vectorINS0_10CapabilityESaIS5_EEESt10_Select1stIS8_ESt4lessIS1_ESaIS8_EE29_M_get_insert_hint_unique_posESt23_Rb_tree_const_iteratorIS8_ERS3_@Base 0
 (optional=templinst|arch=!amd64 !arm64 !mips64el !ppc64el !riscv64 !sparc64 !x32)_ZNSt8_Rb_treeIN3spv14FPRoundingModeESt4pairIKS1_14VCFloatControlESt10_Select1stIS5_ESt4lessIS1_ESaIS5_EE22_M_emplace_hint_uniqueIJRKSt21piecewise_construct_tSt5tupleIJRS3_EESG_IJEEEEESt17_Rb_tree_iteratorIS5_ESt23_Rb_tree_const_iteratorIS5_EDpOT_@Base 0
 (optional=templinst)_ZNSt8_Rb_treeIN3spv14FPRoundingModeESt4pairIKS1_14VCFloatControlESt10_Select1stIS5_ESt4lessIS1_ESaIS5_EE24_M_get_insert_unique_posERS3_@Base 0
 (optional=templinst|arch=amd64 arm64 mips64el ppc64el riscv64 sparc64 x32)_ZNSt8_Rb_treeIN3spv14FPRoundingModeESt4pairIKS1_14VCFloatControlESt10_Select1stIS5_ESt4lessIS1_ESaIS5_EE29_M_get_insert_hint_unique_posESt23_Rb_tree_const_iteratorIS5_ERS3_@Base 0
 (optional=templinst|arch=!amd64 !arm64 !mips64el !ppc64el !riscv64 !sparc64 !x32)_ZNSt8_Rb_treeIN3spv14FPRoundingModeESt4pairIKS1_NS0_13ExecutionModeEESt10_Select1stIS5_ESt4lessIS1_ESaIS5_EE22_M_emplace_hint_uniqueIJRKSt21piecewise_construct_tSt5tupleIJRS3_EESG_IJEEEEESt17_Rb_tree_iteratorIS5_ESt23_Rb_tree_const_iteratorIS5_EDpOT_@Base 0
 (optional=templinst)_ZNSt8_Rb_treeIN3spv14FPRoundingModeESt4pairIKS1_NS0_13ExecutionModeEESt10_Select1stIS5_ESt4lessIS1_ESaIS5_EE24_M_get_insert_unique_posERS3_@Base 0
 (optional=templinst|arch=amd64 arm64 mips64el ppc64el riscv64 sparc64 x32)_ZNSt8_Rb_treeIN3spv14FPRoundingModeESt4pairIKS1_NS0_13ExecutionModeEESt10_Select1stIS5_ESt4lessIS1_ESaIS5_EE29_M_get_insert_hint_unique_posESt23_Rb_tree_const_iteratorIS5_ERS3_@Base 0
 (optional=templinst)_ZNSt8_Rb_treeIN3spv14FPRoundingModeESt4pairIKS1_NSt7__cxx1112basic_stringIcSt11char_traitsIcESaIcEEEESt10_Select1stISA_ESt4lessIS1_ESaISA_EE24_M_get_insert_unique_posERS3_@Base 0
 (optional=templinst|arch=amd64 arm64 mips64el ppc64el riscv64 sparc64 x32)_ZNSt8_Rb_treeIN3spv14FPRoundingModeESt4pairIKS1_NSt7__cxx1112basic_stringIcSt11char_traitsIcESaIcEEEESt10_Select1stISA_ESt4lessIS1_ESaISA_EE29_M_get_insert_hint_unique_posESt23_Rb_tree_const_iteratorISA_ERS3_@Base 0
 (optional=templinst)_ZNSt8_Rb_treeIN3spv14GroupOperationESt4pairIKS1_NSt7__cxx1112basic_stringIcSt11char_traitsIcESaIcEEEESt10_Select1stISA_ESt4lessIS1_ESaISA_EE24_M_get_insert_unique_posERS3_@Base 0
 (optional=templinst|arch=amd64 arm64 mips64el ppc64el riscv64 sparc64 x32)_ZNSt8_Rb_treeIN3spv14GroupOperationESt4pairIKS1_NSt7__cxx1112basic_stringIcSt11char_traitsIcESaIcEEEESt10_Select1stISA_ESt4lessIS1_ESaISA_EE29_M_get_insert_hint_unique_posESt23_Rb_tree_const_iteratorISA_ERS3_@Base 0
 (optional=templinst)_ZNSt8_Rb_treeIN3spv15AccessQualifierESt4pairIKS1_NSt7__cxx1112basic_stringIcSt11char_traitsIcESaIcEEEESt10_Select1stISA_ESt4lessIS1_ESaISA_EE24_M_get_insert_unique_posERS3_@Base 0
 (optional=templinst|arch=amd64 arm64 mips64el ppc64el riscv64 sparc64 x32)_ZNSt8_Rb_treeIN3spv15AccessQualifierESt4pairIKS1_NSt7__cxx1112basic_stringIcSt11char_traitsIcESaIcEEEESt10_Select1stISA_ESt4lessIS1_ESaISA_EE29_M_get_insert_hint_unique_posESt23_Rb_tree_const_iteratorISA_ERS3_@Base 0
 (optional=templinst|arch=!amd64 !arm64 !mips64el !ppc64el !riscv64 !sparc64 !x32)_ZNSt8_Rb_treeIN3spv15FPOperationModeESt4pairIKS1_14VCFloatControlESt10_Select1stIS5_ESt4lessIS1_ESaIS5_EE22_M_emplace_hint_uniqueIJRKSt21piecewise_construct_tSt5tupleIJRS3_EESG_IJEEEEESt17_Rb_tree_iteratorIS5_ESt23_Rb_tree_const_iteratorIS5_EDpOT_@Base 0
 (optional=templinst)_ZNSt8_Rb_treeIN3spv15FPOperationModeESt4pairIKS1_14VCFloatControlESt10_Select1stIS5_ESt4lessIS1_ESaIS5_EE24_M_get_insert_unique_posERS3_@Base 0
 (optional=templinst|arch=amd64 arm64 mips64el ppc64el riscv64 sparc64 x32)_ZNSt8_Rb_treeIN3spv15FPOperationModeESt4pairIKS1_14VCFloatControlESt10_Select1stIS5_ESt4lessIS1_ESaIS5_EE29_M_get_insert_hint_unique_posESt23_Rb_tree_const_iteratorIS5_ERS3_@Base 0
 (optional=templinst|arch=!amd64 !arm64 !mips64el !ppc64el !riscv64 !sparc64 !x32)_ZNSt8_Rb_treeIN3spv15FPOperationModeESt4pairIKS1_NS0_13ExecutionModeEESt10_Select1stIS5_ESt4lessIS1_ESaIS5_EE22_M_emplace_hint_uniqueIJRKSt21piecewise_construct_tSt5tupleIJRS3_EESG_IJEEEEESt17_Rb_tree_iteratorIS5_ESt23_Rb_tree_const_iteratorIS5_EDpOT_@Base 0
 (optional=templinst)_ZNSt8_Rb_treeIN3spv15FPOperationModeESt4pairIKS1_NS0_13ExecutionModeEESt10_Select1stIS5_ESt4lessIS1_ESaIS5_EE24_M_get_insert_unique_posERS3_@Base 0
 (optional=templinst|arch=amd64 arm64 mips64el ppc64el riscv64 sparc64 x32)_ZNSt8_Rb_treeIN3spv15FPOperationModeESt4pairIKS1_NS0_13ExecutionModeEESt10_Select1stIS5_ESt4lessIS1_ESaIS5_EE29_M_get_insert_hint_unique_posESt23_Rb_tree_const_iteratorIS5_ERS3_@Base 0
 (optional=templinst|arch=!amd64 !arm64 !mips64el !ppc64el !riscv64 !sparc64 !x32)_ZNSt8_Rb_treeIN3spv19FunctionControlMaskESt4pairIKS1_N4llvm9Attribute8AttrKindEESt10_Select1stIS7_ESt4lessIS1_ESaIS7_EE22_M_emplace_hint_uniqueIJRKSt21piecewise_construct_tSt5tupleIJRS3_EESI_IJEEEEESt17_Rb_tree_iteratorIS7_ESt23_Rb_tree_const_iteratorIS7_EDpOT_@Base 0
 (optional=templinst)_ZNSt8_Rb_treeIN3spv19FunctionControlMaskESt4pairIKS1_N4llvm9Attribute8AttrKindEESt10_Select1stIS7_ESt4lessIS1_ESaIS7_EE24_M_get_insert_unique_posERS3_@Base 0
 (optional=templinst|arch=amd64 arm64 mips64el ppc64el riscv64 sparc64 x32)_ZNSt8_Rb_treeIN3spv19FunctionControlMaskESt4pairIKS1_N4llvm9Attribute8AttrKindEESt10_Select1stIS7_ESt4lessIS1_ESaIS7_EE29_M_get_insert_hint_unique_posESt23_Rb_tree_const_iteratorIS7_ERS3_@Base 0
 (optional=templinst|arch=!amd64 !arm64 !mips64el !ppc64el !riscv64 !sparc64 !x32)_ZNSt8_Rb_treeIN3spv19MemorySemanticsMaskESt4pairIKS1_N7OCLUtil15OCLMemFenceKindEESt10_Select1stIS6_ESt4lessIS1_ESaIS6_EE22_M_emplace_hint_uniqueIJRKSt21piecewise_construct_tSt5tupleIJRS3_EESH_IJEEEEESt17_Rb_tree_iteratorIS6_ESt23_Rb_tree_const_iteratorIS6_EDpOT_@Base 0
 (optional=templinst)_ZNSt8_Rb_treeIN3spv19MemorySemanticsMaskESt4pairIKS1_N7OCLUtil15OCLMemFenceKindEESt10_Select1stIS6_ESt4lessIS1_ESaIS6_EE24_M_get_insert_unique_posERS3_@Base 0
 (optional=templinst|arch=amd64 arm64 mips64el ppc64el riscv64 sparc64 x32)_ZNSt8_Rb_treeIN3spv19MemorySemanticsMaskESt4pairIKS1_N7OCLUtil15OCLMemFenceKindEESt10_Select1stIS6_ESt4lessIS1_ESaIS6_EE29_M_get_insert_hint_unique_posESt23_Rb_tree_const_iteratorIS6_ERS3_@Base 0
 (optional=templinst|arch=!amd64 !arm64 !mips64el !ppc64el !riscv64 !sparc64 !x32)_ZNSt8_Rb_treeIN3spv19MemorySemanticsMaskESt4pairIKS1_N7OCLUtil23OCLMemFenceExtendedKindEESt10_Select1stIS6_ESt4lessIS1_ESaIS6_EE22_M_emplace_hint_uniqueIJRKSt21piecewise_construct_tSt5tupleIJRS3_EESH_IJEEEEESt17_Rb_tree_iteratorIS6_ESt23_Rb_tree_const_iteratorIS6_EDpOT_@Base 0
 (optional=templinst)_ZNSt8_Rb_treeIN3spv19MemorySemanticsMaskESt4pairIKS1_N7OCLUtil23OCLMemFenceExtendedKindEESt10_Select1stIS6_ESt4lessIS1_ESaIS6_EE24_M_get_insert_unique_posERS3_@Base 0
 (optional=templinst|arch=amd64 arm64 mips64el ppc64el riscv64 sparc64 x32)_ZNSt8_Rb_treeIN3spv19MemorySemanticsMaskESt4pairIKS1_N7OCLUtil23OCLMemFenceExtendedKindEESt10_Select1stIS6_ESt4lessIS1_ESaIS6_EE29_M_get_insert_hint_unique_posESt23_Rb_tree_const_iteratorIS6_ERS3_@Base 0
 (optional=templinst|arch=!amd64 !arm64 !mips64el !ppc64el !riscv64 !sparc64 !x32)_ZNSt8_Rb_treeIN3spv26FunctionParameterAttributeESt4pairIKS1_N4llvm9Attribute8AttrKindEESt10_Select1stIS7_ESt4lessIS1_ESaIS7_EE22_M_emplace_hint_uniqueIJRKSt21piecewise_construct_tSt5tupleIJRS3_EESI_IJEEEEESt17_Rb_tree_iteratorIS7_ESt23_Rb_tree_const_iteratorIS7_EDpOT_@Base 0
 (optional=templinst)_ZNSt8_Rb_treeIN3spv26FunctionParameterAttributeESt4pairIKS1_N4llvm9Attribute8AttrKindEESt10_Select1stIS7_ESt4lessIS1_ESaIS7_EE24_M_get_insert_unique_posERS3_@Base 0
 (optional=templinst|arch=amd64 arm64 mips64el ppc64el riscv64 sparc64 x32)_ZNSt8_Rb_treeIN3spv26FunctionParameterAttributeESt4pairIKS1_N4llvm9Attribute8AttrKindEESt10_Select1stIS7_ESt4lessIS1_ESaIS7_EE29_M_get_insert_hint_unique_posESt23_Rb_tree_const_iteratorIS7_ERS3_@Base 0
 (optional=templinst|arch=!amd64 !arm64 !mips64el !ppc64el !riscv64 !sparc64 !x32)_ZNSt8_Rb_treeIN3spv2OpESt4pairIKS1_N4llvm13AtomicRMWInst5BinOpEESt10_Select1stIS7_ESt4lessIS1_ESaIS7_EE22_M_emplace_hint_uniqueIJRKSt21piecewise_construct_tSt5tupleIJRS3_EESI_IJEEEEESt17_Rb_tree_iteratorIS7_ESt23_Rb_tree_const_iteratorIS7_EDpOT_@Base 0
 (optional=templinst)_ZNSt8_Rb_treeIN3spv2OpESt4pairIKS1_N4llvm13AtomicRMWInst5BinOpEESt10_Select1stIS7_ESt4lessIS1_ESaIS7_EE24_M_get_insert_unique_posERS3_@Base 0
 (optional=templinst|arch=amd64 arm64 mips64el ppc64el riscv64 sparc64 x32)_ZNSt8_Rb_treeIN3spv2OpESt4pairIKS1_N4llvm13AtomicRMWInst5BinOpEESt10_Select1stIS7_ESt4lessIS1_ESaIS7_EE29_M_get_insert_hint_unique_posESt23_Rb_tree_const_iteratorIS7_ERS3_@Base 0
 (optional=templinst|arch=!amd64 !arm64 !mips64el !ppc64el !riscv64 !sparc64 !x32)_ZNSt8_Rb_treeIN3spv2OpESt4pairIKS1_N4llvm7CmpInst9PredicateEESt10_Select1stIS7_ESt4lessIS1_ESaIS7_EE22_M_emplace_hint_uniqueIJRKSt21piecewise_construct_tSt5tupleIJRS3_EESI_IJEEEEESt17_Rb_tree_iteratorIS7_ESt23_Rb_tree_const_iteratorIS7_EDpOT_@Base 0
 (optional=templinst)_ZNSt8_Rb_treeIN3spv2OpESt4pairIKS1_N4llvm7CmpInst9PredicateEESt10_Select1stIS7_ESt4lessIS1_ESaIS7_EE24_M_get_insert_unique_posERS3_@Base 0
 (optional=templinst|arch=amd64 arm64 mips64el ppc64el riscv64 sparc64 x32)_ZNSt8_Rb_treeIN3spv2OpESt4pairIKS1_N4llvm7CmpInst9PredicateEESt10_Select1stIS7_ESt4lessIS1_ESaIS7_EE29_M_get_insert_hint_unique_posESt23_Rb_tree_const_iteratorIS7_ERS3_@Base 0
 (optional=templinst)_ZNSt8_Rb_treeIN3spv2OpESt4pairIKS1_NSt7__cxx1112basic_stringIcSt11char_traitsIcESaIcEEEESt10_Select1stISA_ESt4lessIS1_ESaISA_EE24_M_get_insert_unique_posERS3_@Base 0
 (optional=templinst|arch=amd64 arm64 mips64el ppc64el riscv64 sparc64 x32)_ZNSt8_Rb_treeIN3spv2OpESt4pairIKS1_NSt7__cxx1112basic_stringIcSt11char_traitsIcESaIcEEEESt10_Select1stISA_ESt4lessIS1_ESaISA_EE29_M_get_insert_hint_unique_posESt23_Rb_tree_const_iteratorISA_ERS3_@Base 0
 (optional=templinst)_ZNSt8_Rb_treeIN3spv2OpESt4pairIKS1_S1_ESt10_Select1stIS4_ESt4lessIS1_ESaIS4_EE22_M_emplace_hint_uniqueIJRKSt21piecewise_construct_tSt5tupleIJRS3_EESF_IJEEEEESt17_Rb_tree_iteratorIS4_ESt23_Rb_tree_const_iteratorIS4_EDpOT_@Base 0
 (optional=templinst)_ZNSt8_Rb_treeIN3spv2OpESt4pairIKS1_S1_ESt10_Select1stIS4_ESt4lessIS1_ESaIS4_EE24_M_get_insert_unique_posERS3_@Base 0
 (optional=templinst|arch=amd64 arm64 mips64el ppc64el riscv64 sparc64 x32)_ZNSt8_Rb_treeIN3spv2OpESt4pairIKS1_S1_ESt10_Select1stIS4_ESt4lessIS1_ESaIS4_EE29_M_get_insert_hint_unique_posESt23_Rb_tree_const_iteratorIS4_ERS3_@Base 0
 (optional=templinst|arch=!amd64 !arm64 !mips64el !ppc64el !riscv64 !sparc64 !x32)_ZNSt8_Rb_treeIN3spv2OpESt4pairIKS1_jESt10_Select1stIS4_ESt4lessIS1_ESaIS4_EE22_M_emplace_hint_uniqueIJRKSt21piecewise_construct_tSt5tupleIJRS3_EESF_IJEEEEESt17_Rb_tree_iteratorIS4_ESt23_Rb_tree_const_iteratorIS4_EDpOT_@Base 0
 (optional=templinst)_ZNSt8_Rb_treeIN3spv2OpESt4pairIKS1_jESt10_Select1stIS4_ESt4lessIS1_ESaIS4_EE24_M_get_insert_unique_posERS3_@Base 0
 (optional=templinst|arch=amd64 arm64 mips64el ppc64el riscv64 sparc64 x32)_ZNSt8_Rb_treeIN3spv2OpESt4pairIKS1_jESt10_Select1stIS4_ESt4lessIS1_ESaIS4_EE29_M_get_insert_hint_unique_posESt23_Rb_tree_const_iteratorIS4_ERS3_@Base 0
 (optional=templinst|arch=!amd64 !arm64 !mips64el !ppc64el !riscv64 !sparc64 !x32)_ZNSt8_Rb_treeIN3spv5ScopeESt4pairIKS1_N7OCLUtil12OCLScopeKindEESt10_Select1stIS6_ESt4lessIS1_ESaIS6_EE22_M_emplace_hint_uniqueIJRKSt21piecewise_construct_tSt5tupleIJRS3_EESH_IJEEEEESt17_Rb_tree_iteratorIS6_ESt23_Rb_tree_const_iteratorIS6_EDpOT_@Base 0
 (optional=templinst)_ZNSt8_Rb_treeIN3spv5ScopeESt4pairIKS1_N7OCLUtil12OCLScopeKindEESt10_Select1stIS6_ESt4lessIS1_ESaIS6_EE24_M_get_insert_unique_posERS3_@Base 0
 (optional=templinst|arch=amd64 arm64 mips64el ppc64el riscv64 sparc64 x32)_ZNSt8_Rb_treeIN3spv5ScopeESt4pairIKS1_N7OCLUtil12OCLScopeKindEESt10_Select1stIS6_ESt4lessIS1_ESaIS6_EE29_M_get_insert_hint_unique_posESt23_Rb_tree_const_iteratorIS6_ERS3_@Base 0
 (optional=templinst)_ZNSt8_Rb_treeIN3spv5ScopeESt4pairIKS1_NSt7__cxx1112basic_stringIcSt11char_traitsIcESaIcEEEESt10_Select1stISA_ESt4lessIS1_ESaISA_EE24_M_get_insert_unique_posERS3_@Base 14
 (optional=templinst|arch=amd64 arm64 mips64el ppc64el riscv64 sparc64)_ZNSt8_Rb_treeIN3spv5ScopeESt4pairIKS1_NSt7__cxx1112basic_stringIcSt11char_traitsIcESaIcEEEESt10_Select1stISA_ESt4lessIS1_ESaISA_EE29_M_get_insert_hint_unique_posESt23_Rb_tree_const_iteratorISA_ERS3_@Base 14
 (optional=templinst)_ZNSt8_Rb_treeIN3spv7BuiltInESt4pairIKS1_NSt7__cxx1112basic_stringIcSt11char_traitsIcESaIcEEEESt10_Select1stISA_ESt4lessIS1_ESaISA_EE24_M_get_insert_unique_posERS3_@Base 0
 (optional=templinst|arch=amd64 arm64 mips64el ppc64el riscv64 sparc64 x32)_ZNSt8_Rb_treeIN3spv7BuiltInESt4pairIKS1_NSt7__cxx1112basic_stringIcSt11char_traitsIcESaIcEEEESt10_Select1stISA_ESt4lessIS1_ESaISA_EE29_M_get_insert_hint_unique_posESt23_Rb_tree_const_iteratorISA_ERS3_@Base 0
 (optional=templinst)_ZNSt8_Rb_treeIN3spv7BuiltInESt4pairIKS1_St6vectorINS0_10CapabilityESaIS5_EEESt10_Select1stIS8_ESt4lessIS1_ESaIS8_EE24_M_get_insert_unique_posERS3_@Base 12
 (optional=templinst|arch=amd64 arm64 mips64el ppc64el riscv64 sparc64 x32)_ZNSt8_Rb_treeIN3spv7BuiltInESt4pairIKS1_St6vectorINS0_10CapabilityESaIS5_EEESt10_Select1stIS8_ESt4lessIS1_ESaIS8_EE29_M_get_insert_hint_unique_posESt23_Rb_tree_const_iteratorIS8_ERS3_@Base 12
 (optional=templinst)_ZNSt8_Rb_treeIN3spv8internal25InternalJointMatrixLayoutESt4pairIKS2_NSt7__cxx1112basic_stringIcSt11char_traitsIcESaIcEEEESt10_Select1stISB_ESt4lessIS2_ESaISB_EE24_M_get_insert_unique_posERS4_@Base 14
 (optional=templinst|arch=amd64 arm64 mips64el ppc64el riscv64 sparc64)_ZNSt8_Rb_treeIN3spv8internal25InternalJointMatrixLayoutESt4pairIKS2_NSt7__cxx1112basic_stringIcSt11char_traitsIcESaIcEEEESt10_Select1stISB_ESt4lessIS2_ESaISB_EE29_M_get_insert_hint_unique_posESt23_Rb_tree_const_iteratorISB_ERS4_@Base 14
 (optional=templinst|arch=!amd64 !arm64 !mips64el !ppc64el !riscv64 !sparc64 !x32)_ZNSt8_Rb_treeIN4llvm13AtomicRMWInst5BinOpESt4pairIKS2_N3spv2OpEESt10_Select1stIS7_ESt4lessIS2_ESaIS7_EE22_M_emplace_hint_uniqueIJRKSt21piecewise_construct_tSt5tupleIJRS4_EESI_IJEEEEESt17_Rb_tree_iteratorIS7_ESt23_Rb_tree_const_iteratorIS7_EDpOT_@Base 0
 (optional=templinst)_ZNSt8_Rb_treeIN4llvm13AtomicRMWInst5BinOpESt4pairIKS2_N3spv2OpEESt10_Select1stIS7_ESt4lessIS2_ESaIS7_EE24_M_get_insert_unique_posERS4_@Base 0
 (optional=templinst|arch=amd64 arm64 mips64el ppc64el riscv64 sparc64 x32)_ZNSt8_Rb_treeIN4llvm13AtomicRMWInst5BinOpESt4pairIKS2_N3spv2OpEESt10_Select1stIS7_ESt4lessIS2_ESaIS7_EE29_M_get_insert_hint_unique_posESt23_Rb_tree_const_iteratorIS7_ERS4_@Base 0
 (optional=templinst|arch=!amd64 !arm64 !mips64el !ppc64el !riscv64 !sparc64 !x32)_ZNSt8_Rb_treeIN4llvm5dwarf12LocationAtomESt4pairIKS2_N10SPIRVDebug16ExpressionOpCodeEESt10_Select1stIS7_ESt4lessIS2_ESaIS7_EE22_M_emplace_hint_uniqueIJRKSt21piecewise_construct_tSt5tupleIJRS4_EESI_IJEEEEESt17_Rb_tree_iteratorIS7_ESt23_Rb_tree_const_iteratorIS7_EDpOT_@Base 0
 (optional=templinst)_ZNSt8_Rb_treeIN4llvm5dwarf12LocationAtomESt4pairIKS2_N10SPIRVDebug16ExpressionOpCodeEESt10_Select1stIS7_ESt4lessIS2_ESaIS7_EE24_M_get_insert_unique_posERS4_@Base 0
 (optional=templinst|arch=amd64 arm64 mips64el ppc64el riscv64 sparc64 x32)_ZNSt8_Rb_treeIN4llvm5dwarf12LocationAtomESt4pairIKS2_N10SPIRVDebug16ExpressionOpCodeEESt10_Select1stIS7_ESt4lessIS2_ESaIS7_EE29_M_get_insert_hint_unique_posESt23_Rb_tree_const_iteratorIS7_ERS4_@Base 0
 (optional=templinst|arch=!amd64 !arm64 !mips64el !ppc64el !riscv64 !sparc64 !x32)_ZNSt8_Rb_treeIN4llvm5dwarf3TagESt4pairIKS2_N10SPIRVDebug16CompositeTypeTagEESt10_Select1stIS7_ESt4lessIS2_ESaIS7_EE22_M_emplace_hint_uniqueIJRKSt21piecewise_construct_tSt5tupleIJRS4_EESI_IJEEEEESt17_Rb_tree_iteratorIS7_ESt23_Rb_tree_const_iteratorIS7_EDpOT_@Base 0
 (optional=templinst)_ZNSt8_Rb_treeIN4llvm5dwarf3TagESt4pairIKS2_N10SPIRVDebug16CompositeTypeTagEESt10_Select1stIS7_ESt4lessIS2_ESaIS7_EE24_M_get_insert_unique_posERS4_@Base 0
 (optional=templinst|arch=amd64 arm64 mips64el ppc64el riscv64 sparc64 x32)_ZNSt8_Rb_treeIN4llvm5dwarf3TagESt4pairIKS2_N10SPIRVDebug16CompositeTypeTagEESt10_Select1stIS7_ESt4lessIS2_ESaIS7_EE29_M_get_insert_hint_unique_posESt23_Rb_tree_const_iteratorIS7_ERS4_@Base 0
 (optional=templinst|arch=!amd64 !arm64 !mips64el !ppc64el !riscv64 !sparc64 !x32)_ZNSt8_Rb_treeIN4llvm5dwarf3TagESt4pairIKS2_N10SPIRVDebug16TypeQualifierTagEESt10_Select1stIS7_ESt4lessIS2_ESaIS7_EE22_M_emplace_hint_uniqueIJRKSt21piecewise_construct_tSt5tupleIJRS4_EESI_IJEEEEESt17_Rb_tree_iteratorIS7_ESt23_Rb_tree_const_iteratorIS7_EDpOT_@Base 0
 (optional=templinst)_ZNSt8_Rb_treeIN4llvm5dwarf3TagESt4pairIKS2_N10SPIRVDebug16TypeQualifierTagEESt10_Select1stIS7_ESt4lessIS2_ESaIS7_EE24_M_get_insert_unique_posERS4_@Base 0
 (optional=templinst|arch=amd64 arm64 mips64el ppc64el riscv64 sparc64 x32)_ZNSt8_Rb_treeIN4llvm5dwarf3TagESt4pairIKS2_N10SPIRVDebug16TypeQualifierTagEESt10_Select1stIS7_ESt4lessIS2_ESaIS7_EE29_M_get_insert_hint_unique_posESt23_Rb_tree_const_iteratorIS7_ERS4_@Base 0
 (optional=templinst|arch=!amd64 !arm64 !mips64el !ppc64el !riscv64 !sparc64 !x32)_ZNSt8_Rb_treeIN4llvm5dwarf3TagESt4pairIKS2_N10SPIRVDebug17ImportedEntityTagEESt10_Select1stIS7_ESt4lessIS2_ESaIS7_EE22_M_emplace_hint_uniqueIJRKSt21piecewise_construct_tSt5tupleIJRS4_EESI_IJEEEEESt17_Rb_tree_iteratorIS7_ESt23_Rb_tree_const_iteratorIS7_EDpOT_@Base 0
 (optional=templinst)_ZNSt8_Rb_treeIN4llvm5dwarf3TagESt4pairIKS2_N10SPIRVDebug17ImportedEntityTagEESt10_Select1stIS7_ESt4lessIS2_ESaIS7_EE24_M_get_insert_unique_posERS4_@Base 0
 (optional=templinst|arch=amd64 arm64 mips64el ppc64el riscv64 sparc64 x32)_ZNSt8_Rb_treeIN4llvm5dwarf3TagESt4pairIKS2_N10SPIRVDebug17ImportedEntityTagEESt10_Select1stIS7_ESt4lessIS2_ESaIS7_EE29_M_get_insert_hint_unique_posESt23_Rb_tree_const_iteratorIS7_ERS4_@Base 0
 (optional=templinst|arch=!amd64 !arm64 !mips64el !ppc64el !riscv64 !sparc64 !x32)_ZNSt8_Rb_treeIN4llvm5dwarf8TypeKindESt4pairIKS2_N10SPIRVDebug11EncodingTagEESt10_Select1stIS7_ESt4lessIS2_ESaIS7_EE22_M_emplace_hint_uniqueIJRKSt21piecewise_construct_tSt5tupleIJRS4_EESI_IJEEEEESt17_Rb_tree_iteratorIS7_ESt23_Rb_tree_const_iteratorIS7_EDpOT_@Base 0
 (optional=templinst)_ZNSt8_Rb_treeIN4llvm5dwarf8TypeKindESt4pairIKS2_N10SPIRVDebug11EncodingTagEESt10_Select1stIS7_ESt4lessIS2_ESaIS7_EE24_M_get_insert_unique_posERS4_@Base 0
 (optional=templinst|arch=amd64 arm64 mips64el ppc64el riscv64 sparc64 x32)_ZNSt8_Rb_treeIN4llvm5dwarf8TypeKindESt4pairIKS2_N10SPIRVDebug11EncodingTagEESt10_Select1stIS7_ESt4lessIS2_ESaIS7_EE29_M_get_insert_hint_unique_posESt23_Rb_tree_const_iteratorIS7_ERS4_@Base 0
 (optional=templinst|arch=!amd64 !arm64 !mips64el !ppc64el !riscv64 !sparc64 !x32)_ZNSt8_Rb_treeIN4llvm7CmpInst9PredicateESt4pairIKS2_N3spv2OpEESt10_Select1stIS7_ESt4lessIS2_ESaIS7_EE22_M_emplace_hint_uniqueIJRKSt21piecewise_construct_tSt5tupleIJRS4_EESI_IJEEEEESt17_Rb_tree_iteratorIS7_ESt23_Rb_tree_const_iteratorIS7_EDpOT_@Base 0
 (optional=templinst)_ZNSt8_Rb_treeIN4llvm7CmpInst9PredicateESt4pairIKS2_N3spv2OpEESt10_Select1stIS7_ESt4lessIS2_ESaIS7_EE24_M_get_insert_unique_posERS4_@Base 0
 (optional=templinst|arch=amd64 arm64 mips64el ppc64el riscv64 sparc64 x32)_ZNSt8_Rb_treeIN4llvm7CmpInst9PredicateESt4pairIKS2_N3spv2OpEESt10_Select1stIS7_ESt4lessIS2_ESaIS7_EE29_M_get_insert_hint_unique_posESt23_Rb_tree_const_iteratorIS7_ERS4_@Base 0
 (optional=templinst|arch=!amd64 !arm64 !mips64el !ppc64el !riscv64 !sparc64 !x32)_ZNSt8_Rb_treeIN4llvm9Attribute8AttrKindESt4pairIKS2_N3spv19FunctionControlMaskEESt10_Select1stIS7_ESt4lessIS2_ESaIS7_EE22_M_emplace_hint_uniqueIJRKSt21piecewise_construct_tSt5tupleIJRS4_EESI_IJEEEEESt17_Rb_tree_iteratorIS7_ESt23_Rb_tree_const_iteratorIS7_EDpOT_@Base 0
 (optional=templinst)_ZNSt8_Rb_treeIN4llvm9Attribute8AttrKindESt4pairIKS2_N3spv19FunctionControlMaskEESt10_Select1stIS7_ESt4lessIS2_ESaIS7_EE24_M_get_insert_unique_posERS4_@Base 0
 (optional=templinst|arch=amd64 arm64 mips64el ppc64el riscv64 sparc64 x32)_ZNSt8_Rb_treeIN4llvm9Attribute8AttrKindESt4pairIKS2_N3spv19FunctionControlMaskEESt10_Select1stIS7_ESt4lessIS2_ESaIS7_EE29_M_get_insert_hint_unique_posESt23_Rb_tree_const_iteratorIS7_ERS4_@Base 0
 (optional=templinst|arch=!amd64 !arm64 !mips64el !ppc64el !riscv64 !sparc64 !x32)_ZNSt8_Rb_treeIN4llvm9Attribute8AttrKindESt4pairIKS2_N3spv26FunctionParameterAttributeEESt10_Select1stIS7_ESt4lessIS2_ESaIS7_EE22_M_emplace_hint_uniqueIJRKSt21piecewise_construct_tSt5tupleIJRS4_EESI_IJEEEEESt17_Rb_tree_iteratorIS7_ESt23_Rb_tree_const_iteratorIS7_EDpOT_@Base 0
 (optional=templinst)_ZNSt8_Rb_treeIN4llvm9Attribute8AttrKindESt4pairIKS2_N3spv26FunctionParameterAttributeEESt10_Select1stIS7_ESt4lessIS2_ESaIS7_EE24_M_get_insert_unique_posERS4_@Base 0
 (optional=templinst|arch=amd64 arm64 mips64el ppc64el riscv64 sparc64 x32)_ZNSt8_Rb_treeIN4llvm9Attribute8AttrKindESt4pairIKS2_N3spv26FunctionParameterAttributeEESt10_Select1stIS7_ESt4lessIS2_ESaIS7_EE29_M_get_insert_hint_unique_posESt23_Rb_tree_const_iteratorIS7_ERS4_@Base 0
 (optional=templinst)_ZNSt8_Rb_treeIN5SPIRV11ExtensionIDESt4pairIKS1_NSt7__cxx1112basic_stringIcSt11char_traitsIcESaIcEEEESt10_Select1stISA_ESt4lessIS1_ESaISA_EE24_M_get_insert_unique_posERS3_@Base 0
 (optional=templinst|arch=amd64 arm64 mips64el ppc64el riscv64 sparc64 x32)_ZNSt8_Rb_treeIN5SPIRV11ExtensionIDESt4pairIKS1_NSt7__cxx1112basic_stringIcSt11char_traitsIcESaIcEEEESt10_Select1stISA_ESt4lessIS1_ESaISA_EE29_M_get_insert_hint_unique_posESt23_Rb_tree_const_iteratorISA_ERS3_@Base 0
 (optional=templinst)_ZNSt8_Rb_treeIN5SPIRV11ExtensionIDESt4pairIKS1_bESt10_Select1stIS4_ESt4lessIS1_ESaIS4_EE22_M_emplace_hint_uniqueIJRKSt21piecewise_construct_tSt5tupleIJOS1_EESF_IJEEEEESt17_Rb_tree_iteratorIS4_ESt23_Rb_tree_const_iteratorIS4_EDpOT_@Base 0
 (optional=templinst)_ZNSt8_Rb_treeIN5SPIRV11ExtensionIDESt4pairIKS1_bESt10_Select1stIS4_ESt4lessIS1_ESaIS4_EE24_M_get_insert_unique_posERS3_@Base 0
 (optional=templinst|arch=amd64 arm64 mips64el ppc64el riscv64 sparc64 x32)_ZNSt8_Rb_treeIN5SPIRV11ExtensionIDESt4pairIKS1_bESt10_Select1stIS4_ESt4lessIS1_ESaIS4_EE29_M_get_insert_hint_unique_posESt23_Rb_tree_const_iteratorIS4_ERS3_@Base 0
 (optional=templinst)_ZNSt8_Rb_treeIN5SPIRV14SPIRVErrorCodeESt4pairIKS1_NSt7__cxx1112basic_stringIcSt11char_traitsIcESaIcEEEESt10_Select1stISA_ESt4lessIS1_ESaISA_EE24_M_get_insert_unique_posERS3_@Base 0
 (optional=templinst|arch=amd64 arm64 mips64el ppc64el riscv64 sparc64 x32)_ZNSt8_Rb_treeIN5SPIRV14SPIRVErrorCodeESt4pairIKS1_NSt7__cxx1112basic_stringIcSt11char_traitsIcESaIcEEEESt10_Select1stISA_ESt4lessIS1_ESaISA_EE29_M_get_insert_hint_unique_posESt23_Rb_tree_const_iteratorISA_ERS3_@Base 0
 (optional=templinst|arch=!amd64 !arm64 !mips64el !ppc64el !riscv64 !sparc64 !x32)_ZNSt8_Rb_treeIN5SPIRV16SPIRAddressSpaceESt4pairIKS1_N3spv12StorageClassEESt10_Select1stIS6_ESt4lessIS1_ESaIS6_EE22_M_emplace_hint_uniqueIJRKSt21piecewise_construct_tSt5tupleIJRS3_EESH_IJEEEEESt17_Rb_tree_iteratorIS6_ESt23_Rb_tree_const_iteratorIS6_EDpOT_@Base 0
 (optional=templinst)_ZNSt8_Rb_treeIN5SPIRV16SPIRAddressSpaceESt4pairIKS1_N3spv12StorageClassEESt10_Select1stIS6_ESt4lessIS1_ESaIS6_EE24_M_get_insert_unique_posERS3_@Base 0
 (optional=templinst|arch=amd64 arm64 mips64el ppc64el riscv64 sparc64 x32)_ZNSt8_Rb_treeIN5SPIRV16SPIRAddressSpaceESt4pairIKS1_N3spv12StorageClassEESt10_Select1stIS6_ESt4lessIS1_ESaIS6_EE29_M_get_insert_hint_unique_posESt23_Rb_tree_const_iteratorIS6_ERS3_@Base 0
 (optional=templinst)_ZNSt8_Rb_treeIN5SPIRV19SPIRVExtInstSetKindESt4pairIKS1_NSt7__cxx1112basic_stringIcSt11char_traitsIcESaIcEEEESt10_Select1stISA_ESt4lessIS1_ESaISA_EE24_M_get_insert_unique_posERS3_@Base 0
 (optional=templinst|arch=amd64 arm64 mips64el ppc64el riscv64 sparc64 x32)_ZNSt8_Rb_treeIN5SPIRV19SPIRVExtInstSetKindESt4pairIKS1_NSt7__cxx1112basic_stringIcSt11char_traitsIcESaIcEEEESt10_Select1stISA_ESt4lessIS1_ESaISA_EE29_M_get_insert_hint_unique_posESt23_Rb_tree_const_iteratorISA_ERS3_@Base 0
 (optional=templinst)_ZNSt8_Rb_treeIN5SPIRV19SPIRVExtInstSetKindESt4pairIKS1_jESt10_Select1stIS4_ESt4lessIS1_ESaIS4_EE24_M_get_insert_unique_posERS3_@Base 0
 (optional=templinst)_ZNSt8_Rb_treeIN5SPIRV19SPIRVExtInstSetKindESt4pairIKS1_jESt10_Select1stIS4_ESt4lessIS1_ESaIS4_EE29_M_get_insert_hint_unique_posESt23_Rb_tree_const_iteratorIS4_ERS3_@Base 0
 (optional=templinst)_ZNSt8_Rb_treeIN5SPIRV24SPIRVTypeImageDescriptorESt4pairIKS1_NSt7__cxx1112basic_stringIcSt11char_traitsIcESaIcEEEESt10_Select1stISA_ESt4lessIS1_ESaISA_EE24_M_get_insert_unique_posERS3_@Base 0
 (optional=templinst|arch=amd64 arm64 mips64el ppc64el riscv64 sparc64 x32)_ZNSt8_Rb_treeIN5SPIRV24SPIRVTypeImageDescriptorESt4pairIKS1_NSt7__cxx1112basic_stringIcSt11char_traitsIcESaIcEEEESt10_Select1stISA_ESt4lessIS1_ESaISA_EE29_M_get_insert_hint_unique_posESt23_Rb_tree_const_iteratorISA_ERS3_@Base 0
 (optional=templinst|arch=!amd64 !arm64 !mips64el !ppc64el !riscv64 !sparc64 !x32)_ZNSt8_Rb_treeIN7OCLUtil12OCLScopeKindESt4pairIKS1_N3spv5ScopeEESt10_Select1stIS6_ESt4lessIS1_ESaIS6_EE22_M_emplace_hint_uniqueIJRKSt21piecewise_construct_tSt5tupleIJRS3_EESH_IJEEEEESt17_Rb_tree_iteratorIS6_ESt23_Rb_tree_const_iteratorIS6_EDpOT_@Base 0
 (optional=templinst)_ZNSt8_Rb_treeIN7OCLUtil12OCLScopeKindESt4pairIKS1_N3spv5ScopeEESt10_Select1stIS6_ESt4lessIS1_ESaIS6_EE24_M_get_insert_unique_posERS3_@Base 0
 (optional=templinst|arch=amd64 arm64 mips64el ppc64el riscv64 sparc64 x32)_ZNSt8_Rb_treeIN7OCLUtil12OCLScopeKindESt4pairIKS1_N3spv5ScopeEESt10_Select1stIS6_ESt4lessIS1_ESaIS6_EE29_M_get_insert_hint_unique_posESt23_Rb_tree_const_iteratorIS6_ERS3_@Base 0
 (optional=templinst|arch=!amd64 !arm64 !mips64el !ppc64el !riscv64 !sparc64 !x32)_ZNSt8_Rb_treeIN7OCLUtil15OCLMemFenceKindESt4pairIKS1_N3spv19MemorySemanticsMaskEESt10_Select1stIS6_ESt4lessIS1_ESaIS6_EE22_M_emplace_hint_uniqueIJRKSt21piecewise_construct_tSt5tupleIJRS3_EESH_IJEEEEESt17_Rb_tree_iteratorIS6_ESt23_Rb_tree_const_iteratorIS6_EDpOT_@Base 0
 (optional=templinst)_ZNSt8_Rb_treeIN7OCLUtil15OCLMemFenceKindESt4pairIKS1_N3spv19MemorySemanticsMaskEESt10_Select1stIS6_ESt4lessIS1_ESaIS6_EE24_M_get_insert_unique_posERS3_@Base 0
 (optional=templinst|arch=amd64 arm64 mips64el ppc64el riscv64 sparc64 x32)_ZNSt8_Rb_treeIN7OCLUtil15OCLMemFenceKindESt4pairIKS1_N3spv19MemorySemanticsMaskEESt10_Select1stIS6_ESt4lessIS1_ESaIS6_EE29_M_get_insert_hint_unique_posESt23_Rb_tree_const_iteratorIS6_ERS3_@Base 0
 (optional=templinst|arch=!amd64 !arm64 !mips64el !ppc64el !riscv64 !sparc64 !x32)_ZNSt8_Rb_treeIN7OCLUtil15OCLMemOrderKindESt4pairIKS1_jESt10_Select1stIS4_ESt4lessIS1_ESaIS4_EE22_M_emplace_hint_uniqueIJRKSt21piecewise_construct_tSt5tupleIJRS3_EESF_IJEEEEESt17_Rb_tree_iteratorIS4_ESt23_Rb_tree_const_iteratorIS4_EDpOT_@Base 0
 (optional=templinst)_ZNSt8_Rb_treeIN7OCLUtil15OCLMemOrderKindESt4pairIKS1_jESt10_Select1stIS4_ESt4lessIS1_ESaIS4_EE24_M_get_insert_unique_posERS3_@Base 0
 (optional=templinst|arch=amd64 arm64 mips64el ppc64el riscv64 sparc64 x32)_ZNSt8_Rb_treeIN7OCLUtil15OCLMemOrderKindESt4pairIKS1_jESt10_Select1stIS4_ESt4lessIS1_ESaIS4_EE29_M_get_insert_hint_unique_posESt23_Rb_tree_const_iteratorIS4_ERS3_@Base 0
 (optional=templinst|arch=!amd64 !arm64 !mips64el !ppc64el !riscv64 !sparc64 !x32)_ZNSt8_Rb_treeIN7OCLUtil23OCLMemFenceExtendedKindESt4pairIKS1_N3spv19MemorySemanticsMaskEESt10_Select1stIS6_ESt4lessIS1_ESaIS6_EE22_M_emplace_hint_uniqueIJRKSt21piecewise_construct_tSt5tupleIJRS3_EESH_IJEEEEESt17_Rb_tree_iteratorIS6_ESt23_Rb_tree_const_iteratorIS6_EDpOT_@Base 0
 (optional=templinst)_ZNSt8_Rb_treeIN7OCLUtil23OCLMemFenceExtendedKindESt4pairIKS1_N3spv19MemorySemanticsMaskEESt10_Select1stIS6_ESt4lessIS1_ESaIS6_EE24_M_get_insert_unique_posERS3_@Base 0
 (optional=templinst|arch=amd64 arm64 mips64el ppc64el riscv64 sparc64 x32)_ZNSt8_Rb_treeIN7OCLUtil23OCLMemFenceExtendedKindESt4pairIKS1_N3spv19MemorySemanticsMaskEESt10_Select1stIS6_ESt4lessIS1_ESaIS6_EE29_M_get_insert_hint_unique_posESt23_Rb_tree_const_iteratorIS6_ERS3_@Base 0
 (optional=templinst|arch=amd64 arm64 mips64el ppc64el riscv64 sparc64 x32)_ZNSt8_Rb_treeIN7OCLUtil6OclExt4KindES2_St9_IdentityIS2_ESt4lessIS2_ESaIS2_EE16_M_insert_uniqueIRKS2_EESt4pairISt17_Rb_tree_iteratorIS2_EbEOT_@Base 0
 (optional=templinst)_ZNSt8_Rb_treeIN7OCLUtil6OclExt4KindES2_St9_IdentityIS2_ESt4lessIS2_ESaIS2_EE24_M_get_insert_unique_posERKS2_@Base 0
 (optional=templinst|arch=amd64 arm64 mips64el ppc64el riscv64 sparc64 x32)_ZNSt8_Rb_treeIN7OCLUtil6OclExt4KindES2_St9_IdentityIS2_ESt4lessIS2_ESaIS2_EE29_M_get_insert_hint_unique_posESt23_Rb_tree_const_iteratorIS2_ERKS2_@Base 0
 (optional=templinst|arch=!amd64 !arm64 !mips64el !ppc64el !riscv64 !sparc64 !x32)_ZNSt8_Rb_treeIN7OCLUtil6OclExt4KindESt4pairIKS2_N3spv10CapabilityEESt10_Select1stIS7_ESt4lessIS2_ESaIS7_EE22_M_emplace_hint_uniqueIJRKSt21piecewise_construct_tSt5tupleIJRS4_EESI_IJEEEEESt17_Rb_tree_iteratorIS7_ESt23_Rb_tree_const_iteratorIS7_EDpOT_@Base 0
 (optional=templinst)_ZNSt8_Rb_treeIN7OCLUtil6OclExt4KindESt4pairIKS2_N3spv10CapabilityEESt10_Select1stIS7_ESt4lessIS2_ESaIS7_EE24_M_get_insert_unique_posERS4_@Base 0
 (optional=templinst|arch=amd64 arm64 mips64el ppc64el riscv64 sparc64 x32)_ZNSt8_Rb_treeIN7OCLUtil6OclExt4KindESt4pairIKS2_N3spv10CapabilityEESt10_Select1stIS7_ESt4lessIS2_ESaIS7_EE29_M_get_insert_hint_unique_posESt23_Rb_tree_const_iteratorIS7_ERS4_@Base 0
 (optional=templinst)_ZNSt8_Rb_treeIN7OCLUtil6OclExt4KindESt4pairIKS2_NSt7__cxx1112basic_stringIcSt11char_traitsIcESaIcEEEESt10_Select1stISB_ESt4lessIS2_ESaISB_EE24_M_get_insert_unique_posERS4_@Base 0
 (optional=templinst|arch=amd64 arm64 mips64el ppc64el riscv64 sparc64 x32)_ZNSt8_Rb_treeIN7OCLUtil6OclExt4KindESt4pairIKS2_NSt7__cxx1112basic_stringIcSt11char_traitsIcESaIcEEEESt10_Select1stISB_ESt4lessIS2_ESaISB_EE29_M_get_insert_hint_unique_posESt23_Rb_tree_const_iteratorISB_ERS4_@Base 0
 (optional=templinst)_ZNSt8_Rb_treeIN9OpenCLLIB11EntrypointsESt4pairIKS1_NSt7__cxx1112basic_stringIcSt11char_traitsIcESaIcEEEESt10_Select1stISA_ESt4lessIS1_ESaISA_EE24_M_get_insert_unique_posERS3_@Base 0
 (optional=templinst|arch=amd64 arm64 mips64el ppc64el riscv64 sparc64 x32)_ZNSt8_Rb_treeIN9OpenCLLIB11EntrypointsESt4pairIKS1_NSt7__cxx1112basic_stringIcSt11char_traitsIcESaIcEEEESt10_Select1stISA_ESt4lessIS1_ESaISA_EE29_M_get_insert_hint_unique_posESt23_Rb_tree_const_iteratorISA_ERS3_@Base 0
 (optional=templinst|arch=amd64 arm64 mips64el ppc64el riscv64 sparc64 x32)_ZNSt8_Rb_treeINSt7__cxx1112basic_stringIcSt11char_traitsIcESaIcEEES5_St9_IdentityIS5_ESt4lessIS5_ESaIS5_EE16_M_insert_uniqueIRKS5_EESt4pairISt17_Rb_tree_iteratorIS5_EbEOT_@Base 0
 (optional=templinst|arch=amd64 arm64 mips64el ppc64el riscv64 sparc64 x32)_ZNSt8_Rb_treeINSt7__cxx1112basic_stringIcSt11char_traitsIcESaIcEEES5_St9_IdentityIS5_ESt4lessIS5_ESaIS5_EE16_M_insert_uniqueIS5_EESt4pairISt17_Rb_tree_iteratorIS5_EbEOT_@Base 0
 (optional=templinst)_ZNSt8_Rb_treeINSt7__cxx1112basic_stringIcSt11char_traitsIcESaIcEEES5_St9_IdentityIS5_ESt4lessIS5_ESaIS5_EE24_M_get_insert_unique_posERKS5_@Base 0
 (optional=templinst)_ZNSt8_Rb_treeINSt7__cxx1112basic_stringIcSt11char_traitsIcESaIcEEES5_St9_IdentityIS5_ESt4lessIS5_ESaIS5_EE4findERKS5_@Base 14
 (optional=templinst)_ZNSt8_Rb_treeINSt7__cxx1112basic_stringIcSt11char_traitsIcESaIcEEESt4pairIKS5_N10SPIRVDebug11InstructionEESt10_Select1stISA_ESt4lessIS5_ESaISA_EE24_M_get_insert_unique_posERS7_@Base 0
 (optional=templinst|arch=amd64 arm64 mips64el ppc64el riscv64 sparc64 x32)_ZNSt8_Rb_treeINSt7__cxx1112basic_stringIcSt11char_traitsIcESaIcEEESt4pairIKS5_N10SPIRVDebug11InstructionEESt10_Select1stISA_ESt4lessIS5_ESaISA_EE29_M_get_insert_hint_unique_posESt23_Rb_tree_const_iteratorISA_ERS7_@Base 0
 (optional=templinst)_ZNSt8_Rb_treeINSt7__cxx1112basic_stringIcSt11char_traitsIcESaIcEEESt4pairIKS5_N3spv10CapabilityEESt10_Select1stISA_ESt4lessIS5_ESaISA_EE24_M_get_insert_unique_posERS7_@Base 0
 (optional=templinst|arch=amd64 arm64 mips64el ppc64el riscv64 sparc64 x32)_ZNSt8_Rb_treeINSt7__cxx1112basic_stringIcSt11char_traitsIcESaIcEEESt4pairIKS5_N3spv10CapabilityEESt10_Select1stISA_ESt4lessIS5_ESaISA_EE29_M_get_insert_hint_unique_posESt23_Rb_tree_const_iteratorISA_ERS7_@Base 0
 (optional=templinst)_ZNSt8_Rb_treeINSt7__cxx1112basic_stringIcSt11char_traitsIcESaIcEEESt4pairIKS5_N3spv10DecorationEESt10_Select1stISA_ESt4lessIS5_ESaISA_EE24_M_get_insert_unique_posERS7_@Base 0
 (optional=templinst|arch=amd64 arm64 mips64el ppc64el riscv64 sparc64 x32)_ZNSt8_Rb_treeINSt7__cxx1112basic_stringIcSt11char_traitsIcESaIcEEESt4pairIKS5_N3spv10DecorationEESt10_Select1stISA_ESt4lessIS5_ESaISA_EE29_M_get_insert_hint_unique_posESt23_Rb_tree_const_iteratorISA_ERS7_@Base 0
 (optional=templinst)_ZNSt8_Rb_treeINSt7__cxx1112basic_stringIcSt11char_traitsIcESaIcEEESt4pairIKS5_N3spv11LinkageTypeEESt10_Select1stISA_ESt4lessIS5_ESaISA_EE24_M_get_insert_unique_posERS7_@Base 0
 (optional=templinst|arch=amd64 arm64 mips64el ppc64el riscv64 sparc64 x32)_ZNSt8_Rb_treeINSt7__cxx1112basic_stringIcSt11char_traitsIcESaIcEEESt4pairIKS5_N3spv11LinkageTypeEESt10_Select1stISA_ESt4lessIS5_ESaISA_EE29_M_get_insert_hint_unique_posESt23_Rb_tree_const_iteratorISA_ERS7_@Base 0
 (optional=templinst)_ZNSt8_Rb_treeINSt7__cxx1112basic_stringIcSt11char_traitsIcESaIcEEESt4pairIKS5_N3spv14FPRoundingModeEESt10_Select1stISA_ESt4lessIS5_ESaISA_EE24_M_get_insert_unique_posERS7_@Base 0
 (optional=templinst|arch=amd64 arm64 mips64el ppc64el riscv64 sparc64 x32)_ZNSt8_Rb_treeINSt7__cxx1112basic_stringIcSt11char_traitsIcESaIcEEESt4pairIKS5_N3spv14FPRoundingModeEESt10_Select1stISA_ESt4lessIS5_ESaISA_EE29_M_get_insert_hint_unique_posESt23_Rb_tree_const_iteratorISA_ERS7_@Base 0
 (optional=templinst)_ZNSt8_Rb_treeINSt7__cxx1112basic_stringIcSt11char_traitsIcESaIcEEESt4pairIKS5_N3spv14GroupOperationEESt10_Select1stISA_ESt4lessIS5_ESaISA_EE24_M_get_insert_unique_posERS7_@Base 0
 (optional=templinst|arch=amd64 arm64 mips64el ppc64el riscv64 sparc64 x32)_ZNSt8_Rb_treeINSt7__cxx1112basic_stringIcSt11char_traitsIcESaIcEEESt4pairIKS5_N3spv14GroupOperationEESt10_Select1stISA_ESt4lessIS5_ESaISA_EE29_M_get_insert_hint_unique_posESt23_Rb_tree_const_iteratorISA_ERS7_@Base 0
 (optional=templinst)_ZNSt8_Rb_treeINSt7__cxx1112basic_stringIcSt11char_traitsIcESaIcEEESt4pairIKS5_N3spv15AccessQualifierEESt10_Select1stISA_ESt4lessIS5_ESaISA_EE24_M_get_insert_unique_posERS7_@Base 0
 (optional=templinst|arch=amd64 arm64 mips64el ppc64el riscv64 sparc64 x32)_ZNSt8_Rb_treeINSt7__cxx1112basic_stringIcSt11char_traitsIcESaIcEEESt4pairIKS5_N3spv15AccessQualifierEESt10_Select1stISA_ESt4lessIS5_ESaISA_EE29_M_get_insert_hint_unique_posESt23_Rb_tree_const_iteratorISA_ERS7_@Base 0
 (optional=templinst)_ZNSt8_Rb_treeINSt7__cxx1112basic_stringIcSt11char_traitsIcESaIcEEESt4pairIKS5_N3spv2OpEESt10_Select1stISA_ESt4lessIS5_ESaISA_EE24_M_get_insert_unique_posERS7_@Base 0
 (optional=templinst|arch=amd64 arm64 mips64el ppc64el riscv64 sparc64 x32)_ZNSt8_Rb_treeINSt7__cxx1112basic_stringIcSt11char_traitsIcESaIcEEESt4pairIKS5_N3spv2OpEESt10_Select1stISA_ESt4lessIS5_ESaISA_EE29_M_get_insert_hint_unique_posESt23_Rb_tree_const_iteratorISA_ERS7_@Base 0
 (optional=templinst)_ZNSt8_Rb_treeINSt7__cxx1112basic_stringIcSt11char_traitsIcESaIcEEESt4pairIKS5_N3spv5ScopeEESt10_Select1stISA_ESt4lessIS5_ESaISA_EE24_M_get_insert_unique_posERS7_@Base 14
 (optional=templinst|arch=amd64 arm64 mips64el ppc64el riscv64 sparc64)_ZNSt8_Rb_treeINSt7__cxx1112basic_stringIcSt11char_traitsIcESaIcEEESt4pairIKS5_N3spv5ScopeEESt10_Select1stISA_ESt4lessIS5_ESaISA_EE29_M_get_insert_hint_unique_posESt23_Rb_tree_const_iteratorISA_ERS7_@Base 14
 (optional=templinst)_ZNSt8_Rb_treeINSt7__cxx1112basic_stringIcSt11char_traitsIcESaIcEEESt4pairIKS5_N3spv7BuiltInEESt10_Select1stISA_ESt4lessIS5_ESaISA_EE24_M_get_insert_unique_posERS7_@Base 0
 (optional=templinst|arch=amd64 arm64 mips64el ppc64el riscv64 sparc64 x32)_ZNSt8_Rb_treeINSt7__cxx1112basic_stringIcSt11char_traitsIcESaIcEEESt4pairIKS5_N3spv7BuiltInEESt10_Select1stISA_ESt4lessIS5_ESaISA_EE29_M_get_insert_hint_unique_posESt23_Rb_tree_const_iteratorISA_ERS7_@Base 0
 (optional=templinst)_ZNSt8_Rb_treeINSt7__cxx1112basic_stringIcSt11char_traitsIcESaIcEEESt4pairIKS5_N3spv8internal25InternalJointMatrixLayoutEESt10_Select1stISB_ESt4lessIS5_ESaISB_EE24_M_get_insert_unique_posERS7_@Base 14
 (optional=templinst|arch=amd64 arm64 mips64el ppc64el riscv64 sparc64)_ZNSt8_Rb_treeINSt7__cxx1112basic_stringIcSt11char_traitsIcESaIcEEESt4pairIKS5_N3spv8internal25InternalJointMatrixLayoutEESt10_Select1stISB_ESt4lessIS5_ESaISB_EE29_M_get_insert_hint_unique_posESt23_Rb_tree_const_iteratorISB_ERS7_@Base 14
 (optional=templinst)_ZNSt8_Rb_treeINSt7__cxx1112basic_stringIcSt11char_traitsIcESaIcEEESt4pairIKS5_N5SPIRV11ExtensionIDEESt10_Select1stISA_ESt4lessIS5_ESaISA_EE24_M_get_insert_unique_posERS7_@Base 0
 (optional=templinst|arch=amd64 arm64 mips64el ppc64el riscv64 sparc64 x32)_ZNSt8_Rb_treeINSt7__cxx1112basic_stringIcSt11char_traitsIcESaIcEEESt4pairIKS5_N5SPIRV11ExtensionIDEESt10_Select1stISA_ESt4lessIS5_ESaISA_EE29_M_get_insert_hint_unique_posESt23_Rb_tree_const_iteratorISA_ERS7_@Base 0
 (optional=templinst)_ZNSt8_Rb_treeINSt7__cxx1112basic_stringIcSt11char_traitsIcESaIcEEESt4pairIKS5_N5SPIRV14SPIRVErrorCodeEESt10_Select1stISA_ESt4lessIS5_ESaISA_EE24_M_get_insert_unique_posERS7_@Base 0
 (optional=templinst|arch=amd64 arm64 mips64el ppc64el riscv64 sparc64 x32)_ZNSt8_Rb_treeINSt7__cxx1112basic_stringIcSt11char_traitsIcESaIcEEESt4pairIKS5_N5SPIRV14SPIRVErrorCodeEESt10_Select1stISA_ESt4lessIS5_ESaISA_EE29_M_get_insert_hint_unique_posESt23_Rb_tree_const_iteratorISA_ERS7_@Base 0
 (optional=templinst)_ZNSt8_Rb_treeINSt7__cxx1112basic_stringIcSt11char_traitsIcESaIcEEESt4pairIKS5_N5SPIRV19SPIRVExtInstSetKindEESt10_Select1stISA_ESt4lessIS5_ESaISA_EE24_M_get_insert_unique_posERS7_@Base 0
 (optional=templinst|arch=amd64 arm64 mips64el ppc64el riscv64 sparc64 x32)_ZNSt8_Rb_treeINSt7__cxx1112basic_stringIcSt11char_traitsIcESaIcEEESt4pairIKS5_N5SPIRV19SPIRVExtInstSetKindEESt10_Select1stISA_ESt4lessIS5_ESaISA_EE29_M_get_insert_hint_unique_posESt23_Rb_tree_const_iteratorISA_ERS7_@Base 0
 (optional=templinst)_ZNSt8_Rb_treeINSt7__cxx1112basic_stringIcSt11char_traitsIcESaIcEEESt4pairIKS5_N5SPIRV24SPIRVTypeImageDescriptorEESt10_Select1stISA_ESt4lessIS5_ESaISA_EE24_M_get_insert_unique_posERS7_@Base 0
 (optional=templinst|arch=amd64 arm64 mips64el ppc64el riscv64 sparc64 x32)_ZNSt8_Rb_treeINSt7__cxx1112basic_stringIcSt11char_traitsIcESaIcEEESt4pairIKS5_N5SPIRV24SPIRVTypeImageDescriptorEESt10_Select1stISA_ESt4lessIS5_ESaISA_EE29_M_get_insert_hint_unique_posESt23_Rb_tree_const_iteratorISA_ERS7_@Base 0
 (optional=templinst)_ZNSt8_Rb_treeINSt7__cxx1112basic_stringIcSt11char_traitsIcESaIcEEESt4pairIKS5_N7OCLUtil6OclExt4KindEESt10_Select1stISB_ESt4lessIS5_ESaISB_EE24_M_get_insert_unique_posERS7_@Base 0
 (optional=templinst|arch=amd64 arm64 mips64el ppc64el riscv64 sparc64 x32)_ZNSt8_Rb_treeINSt7__cxx1112basic_stringIcSt11char_traitsIcESaIcEEESt4pairIKS5_N7OCLUtil6OclExt4KindEESt10_Select1stISB_ESt4lessIS5_ESaISB_EE29_M_get_insert_hint_unique_posESt23_Rb_tree_const_iteratorISB_ERS7_@Base 0
 (optional=templinst)_ZNSt8_Rb_treeINSt7__cxx1112basic_stringIcSt11char_traitsIcESaIcEEESt4pairIKS5_N9OpenCLLIB11EntrypointsEESt10_Select1stISA_ESt4lessIS5_ESaISA_EE24_M_get_insert_unique_posERS7_@Base 0
 (optional=templinst|arch=amd64 arm64 mips64el ppc64el riscv64 sparc64 x32)_ZNSt8_Rb_treeINSt7__cxx1112basic_stringIcSt11char_traitsIcESaIcEEESt4pairIKS5_N9OpenCLLIB11EntrypointsEESt10_Select1stISA_ESt4lessIS5_ESaISA_EE29_M_get_insert_hint_unique_posESt23_Rb_tree_const_iteratorISA_ERS7_@Base 0
 (optional=templinst)_ZNSt8_Rb_treeINSt7__cxx1112basic_stringIcSt11char_traitsIcESaIcEEESt4pairIKS5_jESt10_Select1stIS8_ESt4lessIS5_ESaIS8_EE24_M_get_insert_unique_posERS7_@Base 0
 (optional=templinst|arch=amd64 arm64 mips64el ppc64el riscv64 sparc64 x32)_ZNSt8_Rb_treeINSt7__cxx1112basic_stringIcSt11char_traitsIcESaIcEEESt4pairIKS5_jESt10_Select1stIS8_ESt4lessIS5_ESaIS8_EE29_M_get_insert_hint_unique_posESt23_Rb_tree_const_iteratorIS8_ERS7_@Base 0
 (optional=templinst)_ZNSt8_Rb_treeIPKN4llvm10BasicBlockESt4pairIKS3_PKN5SPIRV10SPIRVValueEESt10_Select1stISA_ESt4lessIS3_ESaISA_EE24_M_get_insert_unique_posERS5_@Base 0
 (optional=templinst|arch=amd64 arm64 mips64el ppc64el riscv64 sparc64 x32)_ZNSt8_Rb_treeIPKN4llvm10BasicBlockESt4pairIKS3_PKN5SPIRV10SPIRVValueEESt10_Select1stISA_ESt4lessIS3_ESaISA_EE29_M_get_insert_hint_unique_posESt23_Rb_tree_const_iteratorISA_ERS5_@Base 0
 (optional=templinst|arch=amd64 arm64 mips64el ppc64el riscv64 sparc64 x32)_ZNSt8_Rb_treeIPN4llvm5ValueES2_St9_IdentityIS2_ESt4lessIS2_ESaIS2_EE16_M_insert_uniqueIS2_EESt4pairISt17_Rb_tree_iteratorIS2_EbEOT_@Base 0
 (optional=templinst|arch=!amd64 !arm64 !mips64el !ppc64el !riscv64 !sparc64 !x32)_ZNSt8_Rb_treeIPN4llvm5ValueESt4pairIKS2_PNS0_4TypeEESt10_Select1stIS7_ESt4lessIS2_ESaIS7_EE22_M_emplace_hint_uniqueIJRKSt21piecewise_construct_tSt5tupleIJRS4_EESI_IJEEEEESt17_Rb_tree_iteratorIS7_ESt23_Rb_tree_const_iteratorIS7_EDpOT_@Base 0
#MISSING: 15# (optional=templinst)_ZNSt8_Rb_treeIPN4llvm5ValueESt4pairIKS2_PNS0_4TypeEESt10_Select1stIS7_ESt4lessIS2_ESaIS7_EE24_M_get_insert_unique_posERS4_@Base 0
#MISSING: 15# (optional=templinst|arch=amd64 arm64 mips64el ppc64el riscv64 sparc64 x32)_ZNSt8_Rb_treeIPN4llvm5ValueESt4pairIKS2_PNS0_4TypeEESt10_Select1stIS7_ESt4lessIS2_ESaIS7_EE29_M_get_insert_hint_unique_posESt23_Rb_tree_const_iteratorIS7_ERS4_@Base 0
 (optional=templinst)_ZNSt8_Rb_treeIPN4llvm5ValueESt4pairIKS2_S3_IPNS0_4TypeEjEESt10_Select1stIS8_ESt4lessIS2_ESaIS8_EE24_M_get_insert_unique_posERS4_@Base 15
 (optional=templinst)_ZNSt8_Rb_treeIPN4llvm5ValueESt4pairIKS2_S3_IPNS0_4TypeEjEESt10_Select1stIS8_ESt4lessIS2_ESaIS8_EE29_M_get_insert_hint_unique_posESt23_Rb_tree_const_iteratorIS8_ERS4_@Base 15
 (optional=templinst)_ZNSt8_Rb_treeIPN4llvm5ValueESt4pairIKS2_St6vectorIPNS0_17GetElementPtrInstESaIS7_EEESt10_Select1stISA_ESt4lessIS2_ESaISA_EE24_M_get_insert_unique_posERS4_@Base 0
 (optional=templinst|arch=amd64 arm64 mips64el ppc64el riscv64 sparc64 x32)_ZNSt8_Rb_treeIPN4llvm5ValueESt4pairIKS2_St6vectorIPNS0_17GetElementPtrInstESaIS7_EEESt10_Select1stISA_ESt4lessIS2_ESaISA_EE29_M_get_insert_hint_unique_posESt23_Rb_tree_const_iteratorISA_ERS4_@Base 0
 (optional=templinst|arch=amd64 arm64 mips64el ppc64el riscv64 sparc64 x32)_ZNSt8_Rb_treeIPN4llvm5ValueESt4pairIKS2_jESt10_Select1stIS5_ESt4lessIS2_ESaIS5_EE17_M_emplace_uniqueIJRS2_RjEEES3_ISt17_Rb_tree_iteratorIS5_EbEDpOT_@Base 0
 (optional=templinst|arch=amd64 arm64 mips64el ppc64el riscv64 sparc64 x32)_ZNSt8_Rb_treeIPN4llvm8FunctionES2_St9_IdentityIS2_ESt4lessIS2_ESaIS2_EE16_M_insert_uniqueIRKS2_EESt4pairISt17_Rb_tree_iteratorIS2_EbEOT_@Base 0
 (optional=templinst|arch=amd64 arm64 x32)_ZNSt8_Rb_treeIPN5SPIRV10SPIRVEntryES2_St9_IdentityIS2_ESt4lessIS2_ESaIS2_EE16_M_insert_uniqueIRKS2_EESt4pairISt17_Rb_tree_iteratorIS2_EbEOT_@Base 0
 (optional=templinst|arch=amd64 arm64 mips64el ppc64el riscv64 sparc64)_ZNSt8_Rb_treeIPN5SPIRV10SPIRVEntryES2_St9_IdentityIS2_ESt4lessIS2_ESaIS2_EE24_M_get_insert_unique_posERKS2_@Base 14
 (optional=templinst|arch=armel armhf mips64el ppc64el riscv64 sparc64)_ZNSt8_Rb_treeIPN5SPIRV10SPIRVEntryESt4pairIKS2_NS0_15TopologicalSort8DFSStateEESt10_Select1stIS7_ESt8functionIFbS2_S2_EESaIS7_EE22_M_emplace_hint_uniqueIJRKSt21piecewise_construct_tSt5tupleIJOS2_EESJ_IJEEEEESt17_Rb_tree_iteratorIS7_ESt23_Rb_tree_const_iteratorIS7_EDpOT_@Base 0
#MISSING: 15# (optional=templinst)_ZNSt8_Rb_treeIPN5SPIRV10SPIRVEntryESt4pairIKS2_NS0_15TopologicalSort8DFSStateEESt10_Select1stIS7_ESt8functionIFbS2_S2_EESaIS7_EE22_M_emplace_hint_uniqueIJRKSt21piecewise_construct_tSt5tupleIJRS4_EESJ_IJEEEEESt17_Rb_tree_iteratorIS7_ESt23_Rb_tree_const_iteratorIS7_EDpOT_@Base 0
 (optional=templinst)_ZNSt8_Rb_treeIPN5SPIRV10SPIRVEntryESt4pairIKS2_NS0_15TopologicalSort8DFSStateEESt10_Select1stIS7_ESt8functionIFbS2_S2_EESaIS7_EE24_M_get_insert_unique_posERS4_@Base 0
 (optional=templinst)_ZNSt8_Rb_treeIPN5SPIRV10SPIRVEntryESt4pairIKS2_NS0_15TopologicalSort8DFSStateEESt10_Select1stIS7_ESt8functionIFbS2_S2_EESaIS7_EE29_M_get_insert_hint_unique_posESt23_Rb_tree_const_iteratorIS7_ERS4_@Base 0
 (optional=templinst)_ZNSt8_Rb_treeIPN5SPIRV10SPIRVValueESt4pairIKS2_PN4llvm8LoadInstEESt10_Select1stIS8_ESt4lessIS2_ESaIS8_EE24_M_get_insert_unique_posERS4_@Base 0
 (optional=templinst|arch=amd64 arm64 mips64el ppc64el riscv64 sparc64 x32)_ZNSt8_Rb_treeIPN5SPIRV10SPIRVValueESt4pairIKS2_PN4llvm8LoadInstEESt10_Select1stIS8_ESt4lessIS2_ESaIS8_EE29_M_get_insert_hint_unique_posESt23_Rb_tree_const_iteratorIS8_ERS4_@Base 0
 (optional=templinst)_ZNSt8_Rb_treeIPN5SPIRV15SPIRVTypeStructESt4pairIKS2_St6vectorIS3_IjjESaIS6_EEESt10_Select1stIS9_ESt4lessIS2_ESaIS9_EE24_M_get_insert_unique_posERS4_@Base 0
 (optional=templinst|arch=amd64 arm64 mips64el ppc64el riscv64 sparc64 x32)_ZNSt8_Rb_treeIPN5SPIRV15SPIRVTypeStructESt4pairIKS2_St6vectorIS3_IjjESaIS6_EEESt10_Select1stIS9_ESt4lessIS2_ESaIS9_EE29_M_get_insert_hint_unique_posESt23_Rb_tree_const_iteratorIS9_ERS4_@Base 0
 (optional=templinst|arch=amd64 arm64 mips64el ppc64el riscv64 sparc64 x32)_ZNSt8_Rb_treeISt4pairIPN4llvm5ValueEjES0_IKS4_PNS1_6MDNodeEESt10_Select1stIS8_ESt4lessIS4_ESaIS8_EE17_M_emplace_uniqueIJRS4_RS7_EEES0_ISt17_Rb_tree_iteratorIS8_EbEDpOT_@Base 12
 (optional=templinst)_ZNSt8_Rb_treeISt4pairIPN4llvm5ValueEjES0_IKS4_PNS1_6MDNodeEESt10_Select1stIS8_ESt4lessIS4_ESaIS8_EE4findERS5_@Base 12
 (optional=templinst|arch=amd64 arm64 x32)_ZNSt8_Rb_treeISt4pairIjN3spv10DecorationEES0_IKS3_PKN5SPIRV19SPIRVMemberDecorateEESt10_Select1stIS9_ESt4lessIS3_ESaIS9_EE11equal_rangeERS4_@Base 0
 (optional=templinst|arch=mips64el ppc64el riscv64 sparc64)_ZNSt8_Rb_treeISt4pairIjN3spv10DecorationEES0_IKS3_PKN5SPIRV19SPIRVMemberDecorateEESt10_Select1stIS9_ESt4lessIS3_ESaIS9_EE22_M_emplace_hint_uniqueIJRKSt21piecewise_construct_tSt5tupleIJOS3_EESK_IJEEEEESt17_Rb_tree_iteratorIS9_ESt23_Rb_tree_const_iteratorIS9_EDpOT_@Base 0
 (optional=templinst)_ZNSt8_Rb_treeISt4pairIjN3spv10DecorationEES0_IKS3_PKN5SPIRV19SPIRVMemberDecorateEESt10_Select1stIS9_ESt4lessIS3_ESaIS9_EE24_M_get_insert_unique_posERS4_@Base 0
 (optional=templinst|arch=amd64 arm64 mips64el ppc64el riscv64 sparc64 x32)_ZNSt8_Rb_treeISt4pairIjN3spv10DecorationEES0_IKS3_PKN5SPIRV19SPIRVMemberDecorateEESt10_Select1stIS9_ESt4lessIS3_ESaIS9_EE29_M_get_insert_hint_unique_posESt23_Rb_tree_const_iteratorIS9_ERS4_@Base 0
 (optional=templinst)_ZNSt8_Rb_treeISt6vectorIN3spv10CapabilityESaIS2_EESt4pairIKS4_NS1_10DecorationEESt10_Select1stIS8_ESt4lessIS4_ESaIS8_EE24_M_get_insert_unique_posERS6_@Base 0
 (optional=templinst|arch=amd64 arm64 mips64el ppc64el riscv64 sparc64 x32)_ZNSt8_Rb_treeISt6vectorIN3spv10CapabilityESaIS2_EESt4pairIKS4_NS1_10DecorationEESt10_Select1stIS8_ESt4lessIS4_ESaIS8_EE29_M_get_insert_hint_unique_posESt23_Rb_tree_const_iteratorIS8_ERS6_@Base 0
 (optional=templinst)_ZNSt8_Rb_treeISt6vectorIN3spv10CapabilityESaIS2_EESt4pairIKS4_NS1_12StorageClassEESt10_Select1stIS8_ESt4lessIS4_ESaIS8_EE24_M_get_insert_unique_posERS6_@Base 0
 (optional=templinst|arch=amd64 arm64 mips64el ppc64el riscv64 sparc64 x32)_ZNSt8_Rb_treeISt6vectorIN3spv10CapabilityESaIS2_EESt4pairIKS4_NS1_12StorageClassEESt10_Select1stIS8_ESt4lessIS4_ESaIS8_EE29_M_get_insert_hint_unique_posESt23_Rb_tree_const_iteratorIS8_ERS6_@Base 0
 (optional=templinst)_ZNSt8_Rb_treeISt6vectorIN3spv10CapabilityESaIS2_EESt4pairIKS4_NS1_13ExecutionModeEESt10_Select1stIS8_ESt4lessIS4_ESaIS8_EE24_M_get_insert_unique_posERS6_@Base 0
 (optional=templinst|arch=amd64 arm64 mips64el ppc64el riscv64 sparc64 x32)_ZNSt8_Rb_treeISt6vectorIN3spv10CapabilityESaIS2_EESt4pairIKS4_NS1_13ExecutionModeEESt10_Select1stIS8_ESt4lessIS4_ESaIS8_EE29_M_get_insert_hint_unique_posESt23_Rb_tree_const_iteratorIS8_ERS6_@Base 0
 (optional=templinst)_ZNSt8_Rb_treeISt6vectorIN3spv10CapabilityESaIS2_EESt4pairIKS4_NS1_14ExecutionModelEESt10_Select1stIS8_ESt4lessIS4_ESaIS8_EE24_M_get_insert_unique_posERS6_@Base 0
 (optional=templinst|arch=amd64 arm64 mips64el ppc64el riscv64 sparc64 x32)_ZNSt8_Rb_treeISt6vectorIN3spv10CapabilityESaIS2_EESt4pairIKS4_NS1_14ExecutionModelEESt10_Select1stIS8_ESt4lessIS4_ESaIS8_EE29_M_get_insert_hint_unique_posESt23_Rb_tree_const_iteratorIS8_ERS6_@Base 0
 (optional=templinst)_ZNSt8_Rb_treeISt6vectorIN3spv10CapabilityESaIS2_EESt4pairIKS4_NS1_7BuiltInEESt10_Select1stIS8_ESt4lessIS4_ESaIS8_EE24_M_get_insert_unique_posERS6_@Base 12
 (optional=templinst|arch=amd64 arm64 mips64el ppc64el riscv64 sparc64 x32)_ZNSt8_Rb_treeISt6vectorIN3spv10CapabilityESaIS2_EESt4pairIKS4_NS1_7BuiltInEESt10_Select1stIS8_ESt4lessIS4_ESaIS8_EE29_M_get_insert_hint_unique_posESt23_Rb_tree_const_iteratorIS8_ERS6_@Base 12
 (optional=templinst)_ZNSt8_Rb_treeISt6vectorIN3spv10CapabilityESaIS2_EESt4pairIKS4_S2_ESt10_Select1stIS7_ESt4lessIS4_ESaIS7_EE24_M_get_insert_unique_posERS6_@Base 0
 (optional=templinst|arch=amd64 arm64 mips64el ppc64el riscv64 sparc64 x32)_ZNSt8_Rb_treeISt6vectorIN3spv10CapabilityESaIS2_EESt4pairIKS4_S2_ESt10_Select1stIS7_ESt4lessIS4_ESaIS7_EE29_M_get_insert_hint_unique_posESt23_Rb_tree_const_iteratorIS7_ERS6_@Base 0
 (optional=templinst|arch=!amd64 !arm64 !mips64el !ppc64el !riscv64 !sparc64 !x32)_ZNSt8_Rb_treeIiSt4pairIKiN4SPIR17TypePrimitiveEnumEESt10_Select1stIS4_ESt4lessIiESaIS4_EE22_M_emplace_hint_uniqueIJRKSt21piecewise_construct_tSt5tupleIJRS1_EESF_IJEEEEESt17_Rb_tree_iteratorIS4_ESt23_Rb_tree_const_iteratorIS4_EDpOT_@Base 0
#MISSING: 15# (optional=templinst)_ZNSt8_Rb_treeIiSt4pairIKiN4SPIR17TypePrimitiveEnumEESt10_Select1stIS4_ESt4lessIiESaIS4_EE24_M_get_insert_unique_posERS1_@Base 0
#MISSING: 15# (optional=templinst|arch=amd64 arm64 mips64el ppc64el riscv64 sparc64 x32)_ZNSt8_Rb_treeIiSt4pairIKiN4SPIR17TypePrimitiveEnumEESt10_Select1stIS4_ESt4lessIiESaIS4_EE29_M_get_insert_hint_unique_posESt23_Rb_tree_const_iteratorIS4_ERS1_@Base 0
 (optional=templinst|arch=!amd64 !arm64 !mips64el !ppc64el !riscv64 !sparc64 !x32)_ZNSt8_Rb_treeIiSt4pairIKijESt10_Select1stIS2_ESt4lessIiESaIS2_EE22_M_emplace_hint_uniqueIJRKSt21piecewise_construct_tSt5tupleIJRS1_EESD_IJEEEEESt17_Rb_tree_iteratorIS2_ESt23_Rb_tree_const_iteratorIS2_EDpOT_@Base 0
#MISSING: 15# (optional=templinst)_ZNSt8_Rb_treeIiSt4pairIKijESt10_Select1stIS2_ESt4lessIiESaIS2_EE24_M_get_insert_unique_posERS1_@Base 0
#MISSING: 15# (optional=templinst|arch=amd64 arm64 mips64el ppc64el riscv64 sparc64 x32)_ZNSt8_Rb_treeIiSt4pairIKijESt10_Select1stIS2_ESt4lessIiESaIS2_EE29_M_get_insert_hint_unique_posESt23_Rb_tree_const_iteratorIS2_ERS1_@Base 0
 (optional=templinst|arch=!amd64 !arm64 !mips64el !ppc64el !riscv64 !sparc64 !x32)_ZNSt8_Rb_treeIjSt4pairIKjN17VectorComputeUtil11VCFloatTypeEESt10_Select1stIS4_ESt4lessIjESaIS4_EE22_M_emplace_hint_uniqueIJRKSt21piecewise_construct_tSt5tupleIJRS1_EESF_IJEEEEESt17_Rb_tree_iteratorIS4_ESt23_Rb_tree_const_iteratorIS4_EDpOT_@Base 0
 (optional=templinst)_ZNSt8_Rb_treeIjSt4pairIKjN17VectorComputeUtil11VCFloatTypeEESt10_Select1stIS4_ESt4lessIjESaIS4_EE24_M_get_insert_unique_posERS1_@Base 0
 (optional=templinst|arch=amd64 arm64 mips64el ppc64el riscv64 sparc64 x32)_ZNSt8_Rb_treeIjSt4pairIKjN17VectorComputeUtil11VCFloatTypeEESt10_Select1stIS4_ESt4lessIjESaIS4_EE29_M_get_insert_hint_unique_posESt23_Rb_tree_const_iteratorIS4_ERS1_@Base 0
 (optional=templinst|arch=!amd64 !arm64 !mips64el !ppc64el !riscv64 !sparc64 !x32)_ZNSt8_Rb_treeIjSt4pairIKjN3spv2OpEESt10_Select1stIS4_ESt4lessIjESaIS4_EE22_M_emplace_hint_uniqueIJRKSt21piecewise_construct_tSt5tupleIJRS1_EESF_IJEEEEESt17_Rb_tree_iteratorIS4_ESt23_Rb_tree_const_iteratorIS4_EDpOT_@Base 0
 (optional=templinst)_ZNSt8_Rb_treeIjSt4pairIKjN3spv2OpEESt10_Select1stIS4_ESt4lessIjESaIS4_EE24_M_get_insert_unique_posERS1_@Base 0
 (optional=templinst|arch=amd64 arm64 mips64el ppc64el riscv64 sparc64 x32)_ZNSt8_Rb_treeIjSt4pairIKjN3spv2OpEESt10_Select1stIS4_ESt4lessIjESaIS4_EE29_M_get_insert_hint_unique_posESt23_Rb_tree_const_iteratorIS4_ERS1_@Base 0
 (optional=templinst)_ZNSt8_Rb_treeIjSt4pairIKjN4llvm8SmallSetIPNS2_6MDNodeELj4ESt4lessIS5_EEEESt10_Select1stIS9_ES6_IjESaIS9_EE24_M_get_insert_unique_posERS1_@Base 12
 (optional=templinst|arch=amd64 arm64 mips64el ppc64el riscv64 sparc64 x32)_ZNSt8_Rb_treeIjSt4pairIKjN4llvm8SmallSetIPNS2_6MDNodeELj4ESt4lessIS5_EEEESt10_Select1stIS9_ES6_IjESaIS9_EE29_M_get_insert_hint_unique_posESt23_Rb_tree_const_iteratorIS9_ERS1_@Base 12
 (optional=templinst|arch=!amd64 !arm64 !mips64el !ppc64el !riscv64 !sparc64 !x32)_ZNSt8_Rb_treeIjSt4pairIKjN5SPIRV19SPIRVExtInstSetKindEESt10_Select1stIS4_ESt4lessIjESaIS4_EE22_M_emplace_hint_uniqueIJRKSt21piecewise_construct_tSt5tupleIJRS1_EESF_IJEEEEESt17_Rb_tree_iteratorIS4_ESt23_Rb_tree_const_iteratorIS4_EDpOT_@Base 0
 (optional=templinst)_ZNSt8_Rb_treeIjSt4pairIKjN5SPIRV19SPIRVExtInstSetKindEESt10_Select1stIS4_ESt4lessIjESaIS4_EE24_M_get_insert_unique_posERS1_@Base 0
 (optional=templinst|arch=amd64 arm64 mips64el ppc64el riscv64 sparc64 x32)_ZNSt8_Rb_treeIjSt4pairIKjN5SPIRV19SPIRVExtInstSetKindEESt10_Select1stIS4_ESt4lessIjESaIS4_EE29_M_get_insert_hint_unique_posESt23_Rb_tree_const_iteratorIS4_ERS1_@Base 0
 (optional=templinst|arch=!amd64 !arm64 !mips64el !ppc64el !riscv64 !sparc64 !x32)_ZNSt8_Rb_treeIjSt4pairIKjN7OCLUtil15OCLMemOrderKindEESt10_Select1stIS4_ESt4lessIjESaIS4_EE22_M_emplace_hint_uniqueIJRKSt21piecewise_construct_tSt5tupleIJRS1_EESF_IJEEEEESt17_Rb_tree_iteratorIS4_ESt23_Rb_tree_const_iteratorIS4_EDpOT_@Base 0
 (optional=templinst)_ZNSt8_Rb_treeIjSt4pairIKjN7OCLUtil15OCLMemOrderKindEESt10_Select1stIS4_ESt4lessIjESaIS4_EE24_M_get_insert_unique_posERS1_@Base 0
 (optional=templinst|arch=amd64 arm64 mips64el ppc64el riscv64 sparc64 x32)_ZNSt8_Rb_treeIjSt4pairIKjN7OCLUtil15OCLMemOrderKindEESt10_Select1stIS4_ESt4lessIjESaIS4_EE29_M_get_insert_hint_unique_posESt23_Rb_tree_const_iteratorIS4_ERS1_@Base 0
 (optional=templinst|arch=!amd64 !arm64 !mips64el !ppc64el !riscv64 !sparc64 !x32)_ZNSt8_Rb_treeIjSt4pairIKjPN4llvm4TypeEESt10_Select1stIS5_ESt4lessIjESaIS5_EE22_M_emplace_hint_uniqueIJRKSt21piecewise_construct_tSt5tupleIJOjEESG_IJEEEEESt17_Rb_tree_iteratorIS5_ESt23_Rb_tree_const_iteratorIS5_EDpOT_@Base 0
 (optional=templinst)_ZNSt8_Rb_treeIjSt4pairIKjPN4llvm4TypeEESt10_Select1stIS5_ESt4lessIjESaIS5_EE24_M_get_insert_unique_posERS1_@Base 0
 (optional=templinst|arch=amd64 arm64 mips64el ppc64el riscv64 sparc64 x32)_ZNSt8_Rb_treeIjSt4pairIKjPN4llvm4TypeEESt10_Select1stIS5_ESt4lessIjESaIS5_EE29_M_get_insert_hint_unique_posESt23_Rb_tree_const_iteratorIS5_ERS1_@Base 0
 (optional=templinst)_ZNSt8_Rb_treeIjSt4pairIKjPN5SPIRV10SPIRVEntryEESt10_Select1stIS5_ESt4lessIjESaIS5_EE22_M_emplace_hint_uniqueIJRKSt21piecewise_construct_tSt5tupleIJRS1_EESG_IJEEEEESt17_Rb_tree_iteratorIS5_ESt23_Rb_tree_const_iteratorIS5_EDpOT_@Base 0
 (optional=templinst)_ZNSt8_Rb_treeIjSt4pairIKjPN5SPIRV10SPIRVEntryEESt10_Select1stIS5_ESt4lessIjESaIS5_EE24_M_get_insert_unique_posERS1_@Base 0
 (optional=templinst|arch=amd64 arm64 mips64el ppc64el riscv64 sparc64 x32)_ZNSt8_Rb_treeIjSt4pairIKjPN5SPIRV10SPIRVEntryEESt10_Select1stIS5_ESt4lessIjESaIS5_EE29_M_get_insert_hint_unique_posESt23_Rb_tree_const_iteratorIS5_ERS1_@Base 0
 (optional=templinst|arch=!amd64 !arm64 !mips64el !ppc64el !riscv64 !sparc64 !x32)_ZNSt8_Rb_treeIjSt4pairIKjPN5SPIRV12SPIRVTypeIntEESt10_Select1stIS5_ESt4lessIjESaIS5_EE22_M_emplace_hint_uniqueIJRKSt21piecewise_construct_tSt5tupleIJRS1_EESG_IJEEEEESt17_Rb_tree_iteratorIS5_ESt23_Rb_tree_const_iteratorIS5_EDpOT_@Base 0
 (optional=templinst)_ZNSt8_Rb_treeIjSt4pairIKjPN5SPIRV12SPIRVTypeIntEESt10_Select1stIS5_ESt4lessIjESaIS5_EE24_M_get_insert_unique_posERS1_@Base 0
 (optional=templinst|arch=amd64 arm64 mips64el ppc64el riscv64 sparc64 x32)_ZNSt8_Rb_treeIjSt4pairIKjPN5SPIRV12SPIRVTypeIntEESt10_Select1stIS5_ESt4lessIjESaIS5_EE29_M_get_insert_hint_unique_posESt23_Rb_tree_const_iteratorIS5_ERS1_@Base 0
 (optional=templinst|arch=!amd64 !arm64 !mips64el !ppc64el !riscv64 !sparc64 !x32)_ZNSt8_Rb_treeIjSt4pairIKjPN5SPIRV17SPIRVConstantBaseILN3spv2OpE43EEEESt10_Select1stIS8_ESt4lessIjESaIS8_EE22_M_emplace_hint_uniqueIJRKSt21piecewise_construct_tSt5tupleIJRS1_EESJ_IJEEEEESt17_Rb_tree_iteratorIS8_ESt23_Rb_tree_const_iteratorIS8_EDpOT_@Base 0
 (optional=templinst)_ZNSt8_Rb_treeIjSt4pairIKjPN5SPIRV17SPIRVConstantBaseILN3spv2OpE43EEEESt10_Select1stIS8_ESt4lessIjESaIS8_EE24_M_get_insert_unique_posERS1_@Base 0
 (optional=templinst|arch=amd64 arm64 mips64el ppc64el riscv64 sparc64 x32)_ZNSt8_Rb_treeIjSt4pairIKjPN5SPIRV17SPIRVConstantBaseILN3spv2OpE43EEEESt10_Select1stIS8_ESt4lessIjESaIS8_EE29_M_get_insert_hint_unique_posESt23_Rb_tree_const_iteratorIS8_ERS1_@Base 0
 (optional=templinst|arch=!mips64el !ppc64el !riscv64 !sparc64)_ZNSt8_Rb_treeIjjSt9_IdentityIjESt4lessIjESaIjEE16_M_insert_uniqueIRKjEESt4pairISt17_Rb_tree_iteratorIjEbEOT_@Base 0
 (optional=templinst|arch=amd64 arm64 mips64el ppc64el riscv64 sparc64 x32)_ZNSt8_Rb_treeIjjSt9_IdentityIjESt4lessIjESaIjEE16_M_insert_uniqueIjEESt4pairISt17_Rb_tree_iteratorIjEbEOT_@Base 13
 (optional=templinst)_ZNSt8_Rb_treeIjjSt9_IdentityIjESt4lessIjESaIjEE24_M_get_insert_unique_posERKj@Base 0
 (optional=templinst)_ZNSt8_Rb_treeIlSt4pairIKllESt10_Select1stIS2_ESt4lessIlESaIS2_EE22_M_emplace_hint_uniqueIJRKSt21piecewise_construct_tSt5tupleIJRS1_EESD_IJEEEEESt17_Rb_tree_iteratorIS2_ESt23_Rb_tree_const_iteratorIS2_EDpOT_@Base 0
 (optional=templinst)_ZNSt8_Rb_treeIlSt4pairIKllESt10_Select1stIS2_ESt4lessIlESaIS2_EE24_M_get_insert_unique_posERS1_@Base 0
 (optional=templinst|arch=amd64 arm64 mips64el ppc64el riscv64 sparc64 x32)_ZNSt8_Rb_treeIlSt4pairIKllESt10_Select1stIS2_ESt4lessIlESaIS2_EE29_M_get_insert_hint_unique_posESt23_Rb_tree_const_iteratorIS2_ERS1_@Base 0
 (optional=templinst)_ZNSt8__detail17__regex_algo_implIPKcSaINSt7__cxx119sub_matchIS2_EEEcNS3_12regex_traitsIcEEEEbT_S9_RNS3_13match_resultsIS9_T0_EERKNS3_11basic_regexIT1_T2_EENSt15regex_constants15match_flag_typeENS_20_RegexExecutorPolicyEb@Base 0
 (optional=templinst)_ZNSt8__detail18__to_chars_10_implIjEEvPcjT_@Base 0
 (optional=templinst)_ZNSt8__detail8_ScannerIcE12_M_eat_classEc@Base 0
 (optional=templinst)_ZNSt8__detail8_ScannerIcE14_M_scan_normalEv@Base 0
 (optional=templinst)_ZNSt8__detail8_ScannerIcE16_M_scan_in_braceEv@Base 0
 (optional=templinst)_ZNSt8__detail8_ScannerIcE17_M_eat_escape_awkEv@Base 0
 (optional=templinst)_ZNSt8__detail8_ScannerIcE18_M_eat_escape_ecmaEv@Base 0
 (optional=templinst)_ZNSt8__detail8_ScannerIcE18_M_scan_in_bracketEv@Base 0
 (optional=templinst)_ZNSt8__detail8_ScannerIcE19_M_eat_escape_posixEv@Base 0
 (optional=templinst|arch=!mipsel)_ZNSt8__detail8_ScannerIcEC1EPKcS3_NSt15regex_constants18syntax_option_typeESt6locale@Base 0
 (optional=templinst|arch=!mipsel)_ZNSt8__detail8_ScannerIcEC2EPKcS3_NSt15regex_constants18syntax_option_typeESt6locale@Base 0
 (optional=templinst)_ZNSt8__detail9_CompilerINSt7__cxx1112regex_traitsIcEEE11_M_try_charEv@Base 0
 (optional=templinst)_ZNSt8__detail9_CompilerINSt7__cxx1112regex_traitsIcEEE12_M_assertionEv@Base 0
 (optional=templinst)_ZNSt8__detail9_CompilerINSt7__cxx1112regex_traitsIcEEE13_M_quantifierEv@Base 0
 (optional=templinst)_ZNSt8__detail9_CompilerINSt7__cxx1112regex_traitsIcEEE14_M_alternativeEv@Base 0
 (optional=templinst)_ZNSt8__detail9_CompilerINSt7__cxx1112regex_traitsIcEEE14_M_disjunctionEv@Base 0
 (optional=templinst)_ZNSt8__detail9_CompilerINSt7__cxx1112regex_traitsIcEEE16_M_cur_int_valueEi@Base 0
 (optional=templinst)_ZNSt8__detail9_CompilerINSt7__cxx1112regex_traitsIcEEE18_M_expression_termILb0ELb0EEEbRNS4_13_BracketStateERNS_15_BracketMatcherIS3_XT_EXT0_EEE@Base 0
 (optional=templinst)_ZNSt8__detail9_CompilerINSt7__cxx1112regex_traitsIcEEE18_M_expression_termILb0ELb1EEEbRNS4_13_BracketStateERNS_15_BracketMatcherIS3_XT_EXT0_EEE@Base 0
 (optional=templinst)_ZNSt8__detail9_CompilerINSt7__cxx1112regex_traitsIcEEE18_M_expression_termILb1ELb0EEEbRNS4_13_BracketStateERNS_15_BracketMatcherIS3_XT_EXT0_EEE@Base 0
 (optional=templinst)_ZNSt8__detail9_CompilerINSt7__cxx1112regex_traitsIcEEE18_M_expression_termILb1ELb1EEEbRNS4_13_BracketStateERNS_15_BracketMatcherIS3_XT_EXT0_EEE@Base 0
 (optional=templinst)_ZNSt8__detail9_CompilerINSt7__cxx1112regex_traitsIcEEE21_M_bracket_expressionEv@Base 0
 (optional=templinst)_ZNSt8__detail9_CompilerINSt7__cxx1112regex_traitsIcEEE25_M_insert_bracket_matcherILb0ELb0EEEvb@Base 0
 (optional=templinst)_ZNSt8__detail9_CompilerINSt7__cxx1112regex_traitsIcEEE25_M_insert_bracket_matcherILb0ELb1EEEvb@Base 0
 (optional=templinst)_ZNSt8__detail9_CompilerINSt7__cxx1112regex_traitsIcEEE25_M_insert_bracket_matcherILb1ELb0EEEvb@Base 0
 (optional=templinst)_ZNSt8__detail9_CompilerINSt7__cxx1112regex_traitsIcEEE25_M_insert_bracket_matcherILb1ELb1EEEvb@Base 0
 (optional=templinst)_ZNSt8__detail9_CompilerINSt7__cxx1112regex_traitsIcEEE33_M_insert_character_class_matcherILb0ELb0EEEvv@Base 0
 (optional=templinst)_ZNSt8__detail9_CompilerINSt7__cxx1112regex_traitsIcEEE33_M_insert_character_class_matcherILb0ELb1EEEvv@Base 0
 (optional=templinst)_ZNSt8__detail9_CompilerINSt7__cxx1112regex_traitsIcEEE33_M_insert_character_class_matcherILb1ELb0EEEvv@Base 0
 (optional=templinst)_ZNSt8__detail9_CompilerINSt7__cxx1112regex_traitsIcEEE33_M_insert_character_class_matcherILb1ELb1EEEvv@Base 0
 (optional=templinst)_ZNSt8__detail9_CompilerINSt7__cxx1112regex_traitsIcEEE7_M_atomEv@Base 0
 (optional=templinst)_ZNSt8__detail9_CompilerINSt7__cxx1112regex_traitsIcEEEC1EPKcS6_RKSt6localeNSt15regex_constants18syntax_option_typeE@Base 0
 (optional=templinst)_ZNSt8__detail9_CompilerINSt7__cxx1112regex_traitsIcEEEC2EPKcS6_RKSt6localeNSt15regex_constants18syntax_option_typeE@Base 0
 (optional=templinst)_ZNSt8__detail9_ExecutorIPKcSaINSt7__cxx119sub_matchIS2_EEENS3_12regex_traitsIcEELb0EE12_M_lookaheadEl@Base 0
 (optional=templinst)_ZNSt8__detail9_ExecutorIPKcSaINSt7__cxx119sub_matchIS2_EEENS3_12regex_traitsIcEELb0EE16_M_rep_once_moreENS9_11_Match_modeEl@Base 0
 (optional=templinst)_ZNSt8__detail9_ExecutorIPKcSaINSt7__cxx119sub_matchIS2_EEENS3_12regex_traitsIcEELb0EE17_M_handle_backrefENS9_11_Match_modeEl@Base 0
 (optional=templinst)_ZNSt8__detail9_ExecutorIPKcSaINSt7__cxx119sub_matchIS2_EEENS3_12regex_traitsIcEELb0EE6_M_dfsENS9_11_Match_modeEl@Base 0
 (optional=templinst)_ZNSt8__detail9_ExecutorIPKcSaINSt7__cxx119sub_matchIS2_EEENS3_12regex_traitsIcEELb1EE12_M_lookaheadEl@Base 0
 (optional=templinst)_ZNSt8__detail9_ExecutorIPKcSaINSt7__cxx119sub_matchIS2_EEENS3_12regex_traitsIcEELb1EE16_M_rep_once_moreENS9_11_Match_modeEl@Base 0
 (optional=templinst)_ZNSt8__detail9_ExecutorIPKcSaINSt7__cxx119sub_matchIS2_EEENS3_12regex_traitsIcEELb1EE17_M_handle_backrefENS9_11_Match_modeEl@Base 0
 (optional=templinst)_ZNSt8__detail9_ExecutorIPKcSaINSt7__cxx119sub_matchIS2_EEENS3_12regex_traitsIcEELb1EE6_M_dfsENS9_11_Match_modeEl@Base 0
 (optional=templinst)_ZNSt8__detail9_Map_baseINSt7__cxx1112basic_stringIcSt11char_traitsIcESaIcEEESt4pairIKS6_PN4llvm6DIFileEESaISC_ENS_10_Select1stESt8equal_toIS6_ESt4hashIS6_ENS_18_Mod_range_hashingENS_20_Default_ranged_hashENS_20_Prime_rehash_policyENS_17_Hashtable_traitsILb1ELb0ELb1EEELb1EEixERS8_@Base 0
 (optional=templinst)_ZNSt8__detail9_Map_baseINSt7__cxx1112basic_stringIcSt11char_traitsIcESaIcEEESt4pairIKS6_PN5SPIRV11SPIRVStringEESaISC_ENS_10_Select1stESt8equal_toIS6_ESt4hashIS6_ENS_18_Mod_range_hashingENS_20_Default_ranged_hashENS_20_Prime_rehash_policyENS_17_Hashtable_traitsILb1ELb0ELb1EEELb1EEixERS8_@Base 0
 (optional=templinst)_ZNSt8__detail9_Map_baseINSt7__cxx1112basic_stringIcSt11char_traitsIcESaIcEEESt4pairIKS6_PN5SPIRV12SPIRVExtInstEESaISC_ENS_10_Select1stESt8equal_toIS6_ESt4hashIS6_ENS_18_Mod_range_hashingENS_20_Default_ranged_hashENS_20_Prime_rehash_policyENS_17_Hashtable_traitsILb1ELb0ELb1EEELb1EEixERS8_@Base 0
 (optional=templinst)_ZNSt8__detail9_Map_baseIPKN5SPIRV12SPIRVExtInstESt4pairIKS4_PN4llvm6MDNodeEESaISA_ENS_10_Select1stESt8equal_toIS4_ESt4hashIS4_ENS_18_Mod_range_hashingENS_20_Default_ranged_hashENS_20_Prime_rehash_policyENS_17_Hashtable_traitsILb0ELb0ELb1EEELb1EEixERS6_@Base 0
 (optional=templinst)_ZNSt8__detail9_Map_baseIPN4llvm6MDNodeESt4pairIKS3_PN5SPIRV10SPIRVEntryEESaIS9_ENS_10_Select1stESt8equal_toIS3_ESt4hashIS3_ENS_18_Mod_range_hashingENS_20_Default_ranged_hashENS_20_Prime_rehash_policyENS_17_Hashtable_traitsILb0ELb0ELb1EEELb1EEixERS5_@Base 13
 (optional=templinst)_ZNSt8__detail9_Map_baseIjSt4pairIKjPN4llvm12DISubprogramEESaIS6_ENS_10_Select1stESt8equal_toIjESt4hashIjENS_18_Mod_range_hashingENS_20_Default_ranged_hashENS_20_Prime_rehash_policyENS_17_Hashtable_traitsILb0ELb0ELb1EEELb1EEixERS2_@Base 0
 (optional=templinst)_ZNSt8__detail9_Map_baseIjSt4pairIKjPN4llvm6MDNodeEESaIS6_ENS_10_Select1stESt8equal_toIjESt4hashIjENS_18_Mod_range_hashingENS_20_Default_ranged_hashENS_20_Prime_rehash_policyENS_17_Hashtable_traitsILb0ELb0ELb1EEELb1EEixERS2_@Base 13
 (optional=templinst)_ZNSt8__detail9_StateSeqINSt7__cxx1112regex_traitsIcEEE8_M_cloneEv@Base 0
 (optional=templinst)_ZSt11__remove_ifIN9__gnu_cxx17__normal_iteratorIPPN4llvm5ValueESt6vectorIS4_SaIS4_EEEENS0_5__ops16_Iter_equals_valIKDnEEET_SE_SE_T0_@Base 14
#MISSING: 15# (optional=templinst)_ZSt11__remove_ifIPSt4pairIjPN4llvm6MDNodeEEN9__gnu_cxx5__ops10_Iter_predIZNS1_13IRBuilderBase25AddOrRemoveMetadataToCopyEjS3_EUlRKS4_E_EEET_SE_SE_T0_@Base 14
 (optional=templinst)_ZSt13binary_searchIN9__gnu_cxx17__normal_iteratorIPKcSt6vectorIcSaIcEEEEcEbT_S8_RKT0_@Base 0
 (optional=templinst|subst)_ZSt17__rotate_adaptiveIN9__gnu_cxx17__normal_iteratorIPSt4pairIjjESt6vectorIS3_SaIS3_EEEES4_{ssize_t}ET_S9_S9_S9_T1_SA_T0_SA_@Base 13
 (optional=templinst|arch=amd64 arm64 x32)_ZStplIcSt11char_traitsIcESaIcEENSt7__cxx1112basic_stringIT_T0_T1_EEPKS5_RKS8_@Base 0
 _ZTIFvPN4llvm8MetadataEPN5SPIRV10SPIRVEntryEE@Base 14
 _ZTIN4SPIR10AtomicTypeE@Base 13
 _ZTIN4SPIR10VectorTypeE@Base 13
 _ZTIN4SPIR11PointerTypeE@Base 13
 _ZTIN4SPIR11TypeVisitorE@Base 13
 _ZTIN4SPIR13MangleVisitorE@Base 13
 _ZTIN4SPIR13PrimitiveTypeE@Base 13
 _ZTIN4SPIR15UserDefinedTypeE@Base 13
 _ZTIN4SPIR9BlockTypeE@Base 13
 _ZTIN4SPIR9ParamTypeE@Base 13
 _ZTIN4llvm11InstVisitorIN5SPIRV14OCLToSPIRVBaseEvEE@Base 13
 _ZTIN4llvm11InstVisitorIN5SPIRV14SPIRVToOCLBaseEvEE@Base 13
 _ZTIN4llvm11InstVisitorIN5SPIRV18SPIRVLowerBoolBaseEvEE@Base 13
#MISSING: 15# _ZTIN4llvm11InstVisitorIN5SPIRV30SPIRVLowerSaddWithOverflowBaseEvEE@Base 13
 _ZTIN4llvm13PassInfoMixinIN5SPIRV14OCLToSPIRVPassEEE@Base 15
 _ZTIN4llvm13PassInfoMixinIN5SPIRV16SPIRVToOCL12PassEEE@Base 15
 _ZTIN4llvm13PassInfoMixinIN5SPIRV16SPIRVToOCL20PassEEE@Base 15
 _ZTIN4llvm13PassInfoMixinIN5SPIRV18SPIRVLowerBoolPassEEE@Base 15
#MISSING: 15# _ZTIN4llvm18ValueMapCallbackVHIPKNS_5ValueENS_14WeakTrackingVHENS_14ValueMapConfigIS3_NS_3sys10SmartMutexILb0EEEEEEE@Base 13
 _ZTIN4llvm18ValueMapCallbackVHIPNS_5ValueENS_12PointerUnionIJPNS_4TypeEPN18SPIRVTypeScavenger12DeferredTypeES2_EEENS_14ValueMapConfigIS2_NS_3sys10SmartMutexILb0EEEEEEE@Base 15
 _ZTIN4llvm2cl11OptionValueIbEE@Base 13
 _ZTIN4llvm2cl11opt_storageIbLb1ELb0EEE@Base 13
 _ZTIN4llvm2cl15OptionValueBaseIbLb0EEE@Base 13
 _ZTIN4llvm2cl15OptionValueCopyIbEE@Base 13
 _ZTIN4llvm2cl3optIbLb0ENS0_6parserIbEEE8CallbackMUlRKbE_E@Base 13
 _ZTIN4llvm2cl3optIbLb1ENS0_6parserIbEEE8CallbackMUlRKbE_E@Base 13
 _ZTIN4llvm2cl3optIbLb1ENS0_6parserIbEEEE@Base 13
 _ZTIN4llvm6detail11PassConceptINS_6ModuleENS_15AnalysisManagerIS2_JEEEJEEE@Base 15
 _ZTIN4llvm6detail11PassConceptINS_8FunctionENS_15AnalysisManagerIS2_JEEEJEEE@Base 15
 _ZTIN4llvm6detail17AnalysisPassModelINS_6ModuleEN5SPIRV18OCLTypeToSPIRVPassENS_17PreservedAnalysesENS_15AnalysisManagerIS2_JEE11InvalidatorEJEEE@Base 15
 _ZTIN4llvm6detail17AnalysisPassModelINS_6ModuleENS_27PassInstrumentationAnalysisENS_17PreservedAnalysesENS_15AnalysisManagerIS2_JEE11InvalidatorEJEEE@Base 15
 _ZTIN4llvm6detail19AnalysisPassConceptINS_6ModuleENS_17PreservedAnalysesENS_15AnalysisManagerIS2_JEE11InvalidatorEJEEE@Base 15
 _ZTIN4llvm6detail19AnalysisResultModelINS_6ModuleEN5SPIRV18OCLTypeToSPIRVPassENS3_18OCLTypeToSPIRVBaseENS_17PreservedAnalysesENS_15AnalysisManagerIS2_JEE11InvalidatorELb0EEE@Base 15
 _ZTIN4llvm6detail19AnalysisResultModelINS_6ModuleENS_27PassInstrumentationAnalysisENS_19PassInstrumentationENS_17PreservedAnalysesENS_15AnalysisManagerIS2_JEE11InvalidatorELb1EEE@Base 15
 _ZTIN4llvm6detail21AnalysisResultConceptINS_6ModuleENS_17PreservedAnalysesENS_15AnalysisManagerIS2_JEE11InvalidatorEEE@Base 15
 _ZTIN4llvm6detail9PassModelINS_6ModuleEN5SPIRV14OCLToSPIRVPassENS_17PreservedAnalysesENS_15AnalysisManagerIS2_JEEEJEEE@Base 15
 _ZTIN4llvm6detail9PassModelINS_6ModuleEN5SPIRV15LLVMToSPIRVPassENS_17PreservedAnalysesENS_15AnalysisManagerIS2_JEEEJEEE@Base 15
 _ZTIN4llvm6detail9PassModelINS_6ModuleEN5SPIRV16SPIRVToOCL12PassENS_17PreservedAnalysesENS_15AnalysisManagerIS2_JEEEJEEE@Base 15
 _ZTIN4llvm6detail9PassModelINS_6ModuleEN5SPIRV16SPIRVToOCL20PassENS_17PreservedAnalysesENS_15AnalysisManagerIS2_JEEEJEEE@Base 15
 _ZTIN4llvm6detail9PassModelINS_6ModuleEN5SPIRV18SPIRVLowerBoolPassENS_17PreservedAnalysesENS_15AnalysisManagerIS2_JEEEJEEE@Base 15
 _ZTIN4llvm6detail9PassModelINS_6ModuleEN5SPIRV21SPIRVLowerMemmovePassENS_17PreservedAnalysesENS_15AnalysisManagerIS2_JEEEJEEE@Base 15
 _ZTIN4llvm6detail9PassModelINS_6ModuleEN5SPIRV22PreprocessMetadataPassENS_17PreservedAnalysesENS_15AnalysisManagerIS2_JEEEJEEE@Base 15
 _ZTIN4llvm6detail9PassModelINS_6ModuleEN5SPIRV23SPIRVLowerConstExprPassENS_17PreservedAnalysesENS_15AnalysisManagerIS2_JEEEJEEE@Base 15
 _ZTIN4llvm6detail9PassModelINS_6ModuleEN5SPIRV23SPIRVLowerOCLBlocksPassENS_17PreservedAnalysesENS_15AnalysisManagerIS2_JEEEJEEE@Base 15
 _ZTIN4llvm6detail9PassModelINS_6ModuleEN5SPIRV23SPIRVRegularizeLLVMPassENS_17PreservedAnalysesENS_15AnalysisManagerIS2_JEEEJEEE@Base 15
 _ZTIN4llvm6detail9PassModelINS_6ModuleEN5SPIRV28SPIRVLowerSaddIntrinsicsPassENS_17PreservedAnalysesENS_15AnalysisManagerIS2_JEEEJEEE@Base 15
 _ZTIN4llvm6detail9PassModelINS_6ModuleENS_27ModuleToFunctionPassAdaptorENS_17PreservedAnalysesENS_15AnalysisManagerIS2_JEEEJEEE@Base 15
 _ZTIN4llvm6detail9PassModelINS_8FunctionEN5SPIRV38SPIRVLowerBitCastToNonStandardTypePassENS_17PreservedAnalysesENS_15AnalysisManagerIS2_JEEEJEEE@Base 15
 _ZTIN4llvm6detail9PassModelINS_8FunctionENS_11PromotePassENS_17PreservedAnalysesENS_15AnalysisManagerIS2_JEEEJEEE@Base 15
 _ZTIN4llvm6detail9PassModelINS_8FunctionENS_16LoopSimplifyPassENS_17PreservedAnalysesENS_15AnalysisManagerIS2_JEEEJEEE@Base 15
 _ZTIN5SPIRV10SPIRVBitOpE@Base 13
 _ZTIN5SPIRV10SPIRVEntryE@Base 13
 _ZTIN5SPIRV10SPIRVStoreE@Base 13
 _ZTIN5SPIRV10SPIRVUnaryE@Base 13
 _ZTIN5SPIRV10SPIRVUndefE@Base 13
 _ZTIN5SPIRV10SPIRVValueE@Base 13
 _ZTIN5SPIRV11SPIRVBinaryE@Base 13
 _ZTIN5SPIRV11SPIRVBranchE@Base 13
 _ZTIN5SPIRV11SPIRVModuleE@Base 13
 _ZTIN5SPIRV11SPIRVSourceE@Base 13
 _ZTIN5SPIRV11SPIRVStringE@Base 13
 _ZTIN5SPIRV11SPIRVSwitchE@Base 13
 _ZTIN5SPIRV12SPIRVCmpInstILN3spv2OpE161EEE@Base 13
 _ZTIN5SPIRV12SPIRVCmpInstILN3spv2OpE162EEE@Base 13
 _ZTIN5SPIRV12SPIRVCmpInstILN3spv2OpE163EEE@Base 13
 _ZTIN5SPIRV12SPIRVCmpInstILN3spv2OpE170EEE@Base 13
 _ZTIN5SPIRV12SPIRVCmpInstILN3spv2OpE171EEE@Base 13
 _ZTIN5SPIRV12SPIRVCmpInstILN3spv2OpE172EEE@Base 13
 _ZTIN5SPIRV12SPIRVCmpInstILN3spv2OpE173EEE@Base 13
 _ZTIN5SPIRV12SPIRVCmpInstILN3spv2OpE174EEE@Base 13
 _ZTIN5SPIRV12SPIRVCmpInstILN3spv2OpE175EEE@Base 13
 _ZTIN5SPIRV12SPIRVCmpInstILN3spv2OpE176EEE@Base 13
 _ZTIN5SPIRV12SPIRVCmpInstILN3spv2OpE177EEE@Base 13
 _ZTIN5SPIRV12SPIRVCmpInstILN3spv2OpE178EEE@Base 13
 _ZTIN5SPIRV12SPIRVCmpInstILN3spv2OpE179EEE@Base 13
 _ZTIN5SPIRV12SPIRVCmpInstILN3spv2OpE180EEE@Base 13
 _ZTIN5SPIRV12SPIRVCmpInstILN3spv2OpE181EEE@Base 13
 _ZTIN5SPIRV12SPIRVCmpInstILN3spv2OpE182EEE@Base 13
 _ZTIN5SPIRV12SPIRVCmpInstILN3spv2OpE183EEE@Base 13
 _ZTIN5SPIRV12SPIRVCmpInstILN3spv2OpE184EEE@Base 13
 _ZTIN5SPIRV12SPIRVCmpInstILN3spv2OpE185EEE@Base 13
 _ZTIN5SPIRV12SPIRVCmpInstILN3spv2OpE186EEE@Base 13
 _ZTIN5SPIRV12SPIRVCmpInstILN3spv2OpE187EEE@Base 13
 _ZTIN5SPIRV12SPIRVCmpInstILN3spv2OpE188EEE@Base 13
 _ZTIN5SPIRV12SPIRVCmpInstILN3spv2OpE189EEE@Base 13
 _ZTIN5SPIRV12SPIRVCmpInstILN3spv2OpE190EEE@Base 13
 _ZTIN5SPIRV12SPIRVCmpInstILN3spv2OpE191EEE@Base 13
 _ZTIN5SPIRV12SPIRVCompareE@Base 13
 _ZTIN5SPIRV12SPIRVExtInstE@Base 13
 _ZTIN5SPIRV12SPIRVForwardE@Base 13
 _ZTIN5SPIRV12SPIRVTypeIntE@Base 13
 _ZTIN5SPIRV13SPIRVAsmINTELE@Base 13
 _ZTIN5SPIRV13SPIRVDecorateE@Base 13
 _ZTIN5SPIRV13SPIRVFunctionE@Base 13
 _ZTIN5SPIRV13SPIRVLifetimeILN3spv2OpE256EEE@Base 13
 _ZTIN5SPIRV13SPIRVLifetimeILN3spv2OpE257EEE@Base 13
 _ZTIN5SPIRV13SPIRVTypeBoolE@Base 13
 _ZTIN5SPIRV13SPIRVTypePipeE@Base 13
 _ZTIN5SPIRV13SPIRVTypeVoidE@Base 13
 _ZTIN5SPIRV13SPIRVVariableE@Base 13
 _ZTIN5SPIRV14OCLToSPIRVBaseE@Base 13
 _ZTIN5SPIRV14OCLToSPIRVPassE@Base 15
 _ZTIN5SPIRV14SPIRVEntryNoIdILN3spv2OpE100EEE@Base 13
 _ZTIN5SPIRV14SPIRVEntryNoIdILN3spv2OpE10EEE@Base 13
 _ZTIN5SPIRV14SPIRVEntryNoIdILN3spv2OpE116EEE@Base 13
 _ZTIN5SPIRV14SPIRVEntryNoIdILN3spv2OpE147EEE@Base 13
 _ZTIN5SPIRV14SPIRVEntryNoIdILN3spv2OpE149EEE@Base 13
 _ZTIN5SPIRV14SPIRVEntryNoIdILN3spv2OpE14EEE@Base 13
 _ZTIN5SPIRV14SPIRVEntryNoIdILN3spv2OpE150EEE@Base 13
 _ZTIN5SPIRV14SPIRVEntryNoIdILN3spv2OpE151EEE@Base 13
 _ZTIN5SPIRV14SPIRVEntryNoIdILN3spv2OpE152EEE@Base 13
 _ZTIN5SPIRV14SPIRVEntryNoIdILN3spv2OpE17EEE@Base 13
 _ZTIN5SPIRV14SPIRVEntryNoIdILN3spv2OpE207EEE@Base 13
 _ZTIN5SPIRV14SPIRVEntryNoIdILN3spv2OpE208EEE@Base 13
 _ZTIN5SPIRV14SPIRVEntryNoIdILN3spv2OpE209EEE@Base 13
 _ZTIN5SPIRV14SPIRVEntryNoIdILN3spv2OpE210EEE@Base 13
 _ZTIN5SPIRV14SPIRVEntryNoIdILN3spv2OpE211EEE@Base 13
 _ZTIN5SPIRV14SPIRVEntryNoIdILN3spv2OpE212EEE@Base 13
 _ZTIN5SPIRV14SPIRVEntryNoIdILN3spv2OpE213EEE@Base 13
 _ZTIN5SPIRV14SPIRVEntryNoIdILN3spv2OpE214EEE@Base 13
 _ZTIN5SPIRV14SPIRVEntryNoIdILN3spv2OpE215EEE@Base 13
 _ZTIN5SPIRV14SPIRVEntryNoIdILN3spv2OpE218EEE@Base 13
 _ZTIN5SPIRV14SPIRVEntryNoIdILN3spv2OpE219EEE@Base 13
 _ZTIN5SPIRV14SPIRVEntryNoIdILN3spv2OpE220EEE@Base 13
 _ZTIN5SPIRV14SPIRVEntryNoIdILN3spv2OpE221EEE@Base 13
 _ZTIN5SPIRV14SPIRVEntryNoIdILN3spv2OpE252EEE@Base 13
 _ZTIN5SPIRV14SPIRVEntryNoIdILN3spv2OpE29EEE@Base 13
 _ZTIN5SPIRV14SPIRVEntryNoIdILN3spv2OpE2EEE@Base 13
 _ZTIN5SPIRV14SPIRVEntryNoIdILN3spv2OpE305EEE@Base 13
 _ZTIN5SPIRV14SPIRVEntryNoIdILN3spv2OpE306EEE@Base 13
 _ZTIN5SPIRV14SPIRVEntryNoIdILN3spv2OpE307EEE@Base 13
 _ZTIN5SPIRV14SPIRVEntryNoIdILN3spv2OpE308EEE@Base 13
 _ZTIN5SPIRV14SPIRVEntryNoIdILN3spv2OpE309EEE@Base 13
 _ZTIN5SPIRV14SPIRVEntryNoIdILN3spv2OpE310EEE@Base 13
 _ZTIN5SPIRV14SPIRVEntryNoIdILN3spv2OpE311EEE@Base 13
 _ZTIN5SPIRV14SPIRVEntryNoIdILN3spv2OpE312EEE@Base 13
 _ZTIN5SPIRV14SPIRVEntryNoIdILN3spv2OpE313EEE@Base 13
 _ZTIN5SPIRV14SPIRVEntryNoIdILN3spv2OpE314EEE@Base 13
 _ZTIN5SPIRV14SPIRVEntryNoIdILN3spv2OpE315EEE@Base 13
 _ZTIN5SPIRV14SPIRVEntryNoIdILN3spv2OpE316EEE@Base 13
 _ZTIN5SPIRV14SPIRVEntryNoIdILN3spv2OpE317EEE@Base 13
 _ZTIN5SPIRV14SPIRVEntryNoIdILN3spv2OpE330EEE@Base 13
 _ZTIN5SPIRV14SPIRVEntryNoIdILN3spv2OpE39EEE@Base 13
 _ZTIN5SPIRV14SPIRVEntryNoIdILN3spv2OpE3EEE@Base 13
 _ZTIN5SPIRV14SPIRVEntryNoIdILN3spv2OpE4EEE@Base 13
 _ZTIN5SPIRV14SPIRVEntryNoIdILN3spv2OpE56EEE@Base 13
 _ZTIN5SPIRV14SPIRVEntryNoIdILN3spv2OpE6090EEE@Base 13
 _ZTIN5SPIRV14SPIRVEntryNoIdILN3spv2OpE6091EEE@Base 13
 _ZTIN5SPIRV14SPIRVEntryNoIdILN3spv2OpE6092EEE@Base 13
 _ZTIN5SPIRV14SPIRVEntryNoIdILN3spv2OpE60EEE@Base 13
 _ZTIN5SPIRV14SPIRVEntryNoIdILN3spv2OpE68EEE@Base 13
 _ZTIN5SPIRV14SPIRVEntryNoIdILN3spv2OpE89EEE@Base 13
 _ZTIN5SPIRV14SPIRVEntryNoIdILN3spv2OpE90EEE@Base 13
 _ZTIN5SPIRV14SPIRVEntryNoIdILN3spv2OpE91EEE@Base 13
 _ZTIN5SPIRV14SPIRVEntryNoIdILN3spv2OpE92EEE@Base 13
 _ZTIN5SPIRV14SPIRVEntryNoIdILN3spv2OpE93EEE@Base 13
 _ZTIN5SPIRV14SPIRVEntryNoIdILN3spv2OpE94EEE@Base 13
 _ZTIN5SPIRV14SPIRVEntryNoIdILN3spv2OpE95EEE@Base 13
 _ZTIN5SPIRV14SPIRVEntryNoIdILN3spv2OpE96EEE@Base 13
 _ZTIN5SPIRV14SPIRVEntryNoIdILN3spv2OpE97EEE@Base 13
 _ZTIN5SPIRV14SPIRVExtensionE@Base 13
 _ZTIN5SPIRV14SPIRVLoopMergeE@Base 13
 _ZTIN5SPIRV14SPIRVToOCLBaseE@Base 13
 _ZTIN5SPIRV14SPIRVTransposeE@Base 13
 _ZTIN5SPIRV14SPIRVTypeArrayE@Base 13
 _ZTIN5SPIRV14SPIRVTypeFloatE@Base 13
 _ZTIN5SPIRV14SPIRVTypeImageE@Base 13
 _ZTIN5SPIRV14SPIRVTypeQueueE@Base 13
 _ZTIN5SPIRV14SPIRVUnaryInstILN3spv2OpE109EEE@Base 13
 _ZTIN5SPIRV14SPIRVUnaryInstILN3spv2OpE110EEE@Base 13
 _ZTIN5SPIRV14SPIRVUnaryInstILN3spv2OpE111EEE@Base 13
 _ZTIN5SPIRV14SPIRVUnaryInstILN3spv2OpE112EEE@Base 13
 _ZTIN5SPIRV14SPIRVUnaryInstILN3spv2OpE113EEE@Base 13
 _ZTIN5SPIRV14SPIRVUnaryInstILN3spv2OpE114EEE@Base 13
 _ZTIN5SPIRV14SPIRVUnaryInstILN3spv2OpE115EEE@Base 13
 _ZTIN5SPIRV14SPIRVUnaryInstILN3spv2OpE117EEE@Base 13
 _ZTIN5SPIRV14SPIRVUnaryInstILN3spv2OpE118EEE@Base 13
 _ZTIN5SPIRV14SPIRVUnaryInstILN3spv2OpE119EEE@Base 13
 _ZTIN5SPIRV14SPIRVUnaryInstILN3spv2OpE120EEE@Base 13
 _ZTIN5SPIRV14SPIRVUnaryInstILN3spv2OpE121EEE@Base 13
 _ZTIN5SPIRV14SPIRVUnaryInstILN3spv2OpE122EEE@Base 13
 _ZTIN5SPIRV14SPIRVUnaryInstILN3spv2OpE124EEE@Base 13
 _ZTIN5SPIRV14SPIRVUnaryInstILN3spv2OpE126EEE@Base 13
 _ZTIN5SPIRV14SPIRVUnaryInstILN3spv2OpE127EEE@Base 13
 _ZTIN5SPIRV14SPIRVUnaryInstILN3spv2OpE154EEE@Base 13
 _ZTIN5SPIRV14SPIRVUnaryInstILN3spv2OpE155EEE@Base 13
 _ZTIN5SPIRV14SPIRVUnaryInstILN3spv2OpE156EEE@Base 13
 _ZTIN5SPIRV14SPIRVUnaryInstILN3spv2OpE157EEE@Base 13
 _ZTIN5SPIRV14SPIRVUnaryInstILN3spv2OpE158EEE@Base 13
 _ZTIN5SPIRV14SPIRVUnaryInstILN3spv2OpE159EEE@Base 13
 _ZTIN5SPIRV14SPIRVUnaryInstILN3spv2OpE160EEE@Base 13
 _ZTIN5SPIRV14SPIRVUnaryInstILN3spv2OpE168EEE@Base 13
 _ZTIN5SPIRV14SPIRVUnaryInstILN3spv2OpE200EEE@Base 13
 _ZTIN5SPIRV14SPIRVUnaryInstILN3spv2OpE205EEE@Base 13
 _ZTIN5SPIRV14SPIRVUnaryInstILN3spv2OpE5934EEE@Base 13
 _ZTIN5SPIRV14SPIRVUnaryInstILN3spv2OpE5938EEE@Base 13
 _ZTIN5SPIRV14SPIRVUnaryInstILN3spv2OpE6116EEE@Base 13
 _ZTIN5SPIRV14SPIRVUnaryInstILN3spv2OpE6117EEE@Base 13
 _ZTIN5SPIRV14SPIRVUnaryInstILN3spv2OpE6145EEE@Base 13
 _ZTIN5SPIRV15LLVMToSPIRVBaseE@Base 13
 _ZTIN5SPIRV15SPIRVAnnotationILN3spv2OpE15EEE@Base 13
 _ZTIN5SPIRV15SPIRVAnnotationILN3spv2OpE16EEE@Base 13
 _ZTIN5SPIRV15SPIRVAnnotationILN3spv2OpE5EEE@Base 13
 _ZTIN5SPIRV15SPIRVBasicBlockE@Base 13
 _ZTIN5SPIRV15SPIRVBinaryInstILN3spv2OpE128EEE@Base 13
 _ZTIN5SPIRV15SPIRVBinaryInstILN3spv2OpE129EEE@Base 13
 _ZTIN5SPIRV15SPIRVBinaryInstILN3spv2OpE130EEE@Base 13
 _ZTIN5SPIRV15SPIRVBinaryInstILN3spv2OpE131EEE@Base 13
 _ZTIN5SPIRV15SPIRVBinaryInstILN3spv2OpE132EEE@Base 13
 _ZTIN5SPIRV15SPIRVBinaryInstILN3spv2OpE133EEE@Base 13
 _ZTIN5SPIRV15SPIRVBinaryInstILN3spv2OpE134EEE@Base 13
 _ZTIN5SPIRV15SPIRVBinaryInstILN3spv2OpE135EEE@Base 13
 _ZTIN5SPIRV15SPIRVBinaryInstILN3spv2OpE136EEE@Base 13
 _ZTIN5SPIRV15SPIRVBinaryInstILN3spv2OpE137EEE@Base 13
 _ZTIN5SPIRV15SPIRVBinaryInstILN3spv2OpE138EEE@Base 13
 _ZTIN5SPIRV15SPIRVBinaryInstILN3spv2OpE139EEE@Base 13
 _ZTIN5SPIRV15SPIRVBinaryInstILN3spv2OpE140EEE@Base 13
 _ZTIN5SPIRV15SPIRVBinaryInstILN3spv2OpE141EEE@Base 13
 _ZTIN5SPIRV15SPIRVBinaryInstILN3spv2OpE148EEE@Base 13
 _ZTIN5SPIRV15SPIRVBinaryInstILN3spv2OpE164EEE@Base 13
 _ZTIN5SPIRV15SPIRVBinaryInstILN3spv2OpE165EEE@Base 13
 _ZTIN5SPIRV15SPIRVBinaryInstILN3spv2OpE166EEE@Base 13
 _ZTIN5SPIRV15SPIRVBinaryInstILN3spv2OpE167EEE@Base 13
 _ZTIN5SPIRV15SPIRVBinaryInstILN3spv2OpE194EEE@Base 13
 _ZTIN5SPIRV15SPIRVBinaryInstILN3spv2OpE195EEE@Base 13
 _ZTIN5SPIRV15SPIRVBinaryInstILN3spv2OpE196EEE@Base 13
 _ZTIN5SPIRV15SPIRVBinaryInstILN3spv2OpE197EEE@Base 13
 _ZTIN5SPIRV15SPIRVBinaryInstILN3spv2OpE198EEE@Base 13
 _ZTIN5SPIRV15SPIRVBinaryInstILN3spv2OpE199EEE@Base 13
 _ZTIN5SPIRV15SPIRVCapabilityE@Base 13
 _ZTIN5SPIRV15SPIRVCopyMemoryE@Base 13
 _ZTIN5SPIRV15SPIRVCopyObjectE@Base 13
 _ZTIN5SPIRV15SPIRVDecorateIdE@Base 13
 _ZTIN5SPIRV15SPIRVDotKHRBaseE@Base 13
 _ZTIN5SPIRV15SPIRVEntryPointE@Base 13
 _ZTIN5SPIRV15SPIRVMemberNameE@Base 13
 _ZTIN5SPIRV15SPIRVModuleImplE@Base 13
 _ZTIN5SPIRV15SPIRVSelectBaseE@Base 13
 _ZTIN5SPIRV15SPIRVTypeMatrixE@Base 13
 _ZTIN5SPIRV15SPIRVTypeOpaqueE@Base 13
 _ZTIN5SPIRV15SPIRVTypeStructE@Base 13
 _ZTIN5SPIRV15SPIRVTypeVectorE@Base 13
 _ZTIN5SPIRV16OCLToSPIRVLegacyE@Base 13
 _ZTIN5SPIRV16SPIRVInstructionE@Base 13
 _ZTIN5SPIRV16SPIRVMemoryModelE@Base 13
 _ZTIN5SPIRV16SPIRVReturnValueE@Base 13
 _ZTIN5SPIRV16SPIRVToOCL12BaseE@Base 13
 _ZTIN5SPIRV16SPIRVToOCL12PassE@Base 15
 _ZTIN5SPIRV16SPIRVToOCL20BaseE@Base 13
 _ZTIN5SPIRV16SPIRVToOCL20PassE@Base 15
 _ZTIN5SPIRV16SPIRVToOCLLegacyE@Base 13
 _ZTIN5SPIRV16SPIRVTypePointerE@Base 13
 _ZTIN5SPIRV16SPIRVTypeSamplerE@Base 13
 _ZTIN5SPIRV17LLVMToSPIRVLegacyE@Base 13
 _ZTIN5SPIRV17SPIRVAsmCallINTELE@Base 13
 _ZTIN5SPIRV17SPIRVComplexFloatE@Base 15
 _ZTIN5SPIRV17SPIRVConstantBaseILN3spv2OpE43EEE@Base 13
 _ZTIN5SPIRV17SPIRVConstantBaseILN3spv2OpE50EEE@Base 13
 _ZTIN5SPIRV17SPIRVConstantBoolILN3spv2OpE41EEE@Base 13
 _ZTIN5SPIRV17SPIRVConstantBoolILN3spv2OpE42EEE@Base 13
 _ZTIN5SPIRV17SPIRVConstantBoolILN3spv2OpE48EEE@Base 13
 _ZTIN5SPIRV17SPIRVConstantBoolILN3spv2OpE49EEE@Base 13
 _ZTIN5SPIRV17SPIRVConstantNullE@Base 13
 _ZTIN5SPIRV17SPIRVFunctionCallE@Base 13
 _ZTIN5SPIRV17SPIRVInstTemplateINS_10SPIRVBitOpELN3spv2OpE201ELb1ELj7ELb0ELj4294967295ELj4294967295ELj4294967295EEE@Base 13
 _ZTIN5SPIRV17SPIRVInstTemplateINS_10SPIRVBitOpELN3spv2OpE202ELb1ELj6ELb0ELj4294967295ELj4294967295ELj4294967295EEE@Base 13
 _ZTIN5SPIRV17SPIRVInstTemplateINS_10SPIRVBitOpELN3spv2OpE203ELb1ELj6ELb0ELj4294967295ELj4294967295ELj4294967295EEE@Base 13
 _ZTIN5SPIRV17SPIRVInstTemplateINS_10SPIRVBitOpELN3spv2OpE204ELb1ELj4ELb0ELj4294967295ELj4294967295ELj4294967295EEE@Base 13
 _ZTIN5SPIRV17SPIRVInstTemplateINS_10SPIRVUnaryELN3spv2OpE109ELb1ELj4ELb0ELj4294967295ELj4294967295ELj4294967295EEE@Base 13
 _ZTIN5SPIRV17SPIRVInstTemplateINS_10SPIRVUnaryELN3spv2OpE110ELb1ELj4ELb0ELj4294967295ELj4294967295ELj4294967295EEE@Base 13
 _ZTIN5SPIRV17SPIRVInstTemplateINS_10SPIRVUnaryELN3spv2OpE111ELb1ELj4ELb0ELj4294967295ELj4294967295ELj4294967295EEE@Base 13
 _ZTIN5SPIRV17SPIRVInstTemplateINS_10SPIRVUnaryELN3spv2OpE112ELb1ELj4ELb0ELj4294967295ELj4294967295ELj4294967295EEE@Base 13
 _ZTIN5SPIRV17SPIRVInstTemplateINS_10SPIRVUnaryELN3spv2OpE113ELb1ELj4ELb0ELj4294967295ELj4294967295ELj4294967295EEE@Base 13
 _ZTIN5SPIRV17SPIRVInstTemplateINS_10SPIRVUnaryELN3spv2OpE114ELb1ELj4ELb0ELj4294967295ELj4294967295ELj4294967295EEE@Base 13
 _ZTIN5SPIRV17SPIRVInstTemplateINS_10SPIRVUnaryELN3spv2OpE115ELb1ELj4ELb0ELj4294967295ELj4294967295ELj4294967295EEE@Base 13
 _ZTIN5SPIRV17SPIRVInstTemplateINS_10SPIRVUnaryELN3spv2OpE117ELb1ELj4ELb0ELj4294967295ELj4294967295ELj4294967295EEE@Base 13
 _ZTIN5SPIRV17SPIRVInstTemplateINS_10SPIRVUnaryELN3spv2OpE118ELb1ELj4ELb0ELj4294967295ELj4294967295ELj4294967295EEE@Base 13
 _ZTIN5SPIRV17SPIRVInstTemplateINS_10SPIRVUnaryELN3spv2OpE119ELb1ELj4ELb0ELj4294967295ELj4294967295ELj4294967295EEE@Base 13
 _ZTIN5SPIRV17SPIRVInstTemplateINS_10SPIRVUnaryELN3spv2OpE120ELb1ELj4ELb0ELj4294967295ELj4294967295ELj4294967295EEE@Base 13
 _ZTIN5SPIRV17SPIRVInstTemplateINS_10SPIRVUnaryELN3spv2OpE121ELb1ELj4ELb0ELj4294967295ELj4294967295ELj4294967295EEE@Base 13
 _ZTIN5SPIRV17SPIRVInstTemplateINS_10SPIRVUnaryELN3spv2OpE122ELb1ELj4ELb0ELj4294967295ELj4294967295ELj4294967295EEE@Base 13
 _ZTIN5SPIRV17SPIRVInstTemplateINS_10SPIRVUnaryELN3spv2OpE124ELb1ELj4ELb0ELj4294967295ELj4294967295ELj4294967295EEE@Base 13
 _ZTIN5SPIRV17SPIRVInstTemplateINS_10SPIRVUnaryELN3spv2OpE126ELb1ELj4ELb0ELj4294967295ELj4294967295ELj4294967295EEE@Base 13
 _ZTIN5SPIRV17SPIRVInstTemplateINS_10SPIRVUnaryELN3spv2OpE127ELb1ELj4ELb0ELj4294967295ELj4294967295ELj4294967295EEE@Base 13
 _ZTIN5SPIRV17SPIRVInstTemplateINS_10SPIRVUnaryELN3spv2OpE154ELb1ELj4ELb0ELj4294967295ELj4294967295ELj4294967295EEE@Base 13
 _ZTIN5SPIRV17SPIRVInstTemplateINS_10SPIRVUnaryELN3spv2OpE155ELb1ELj4ELb0ELj4294967295ELj4294967295ELj4294967295EEE@Base 13
 _ZTIN5SPIRV17SPIRVInstTemplateINS_10SPIRVUnaryELN3spv2OpE156ELb1ELj4ELb0ELj4294967295ELj4294967295ELj4294967295EEE@Base 13
 _ZTIN5SPIRV17SPIRVInstTemplateINS_10SPIRVUnaryELN3spv2OpE157ELb1ELj4ELb0ELj4294967295ELj4294967295ELj4294967295EEE@Base 13
 _ZTIN5SPIRV17SPIRVInstTemplateINS_10SPIRVUnaryELN3spv2OpE158ELb1ELj4ELb0ELj4294967295ELj4294967295ELj4294967295EEE@Base 13
 _ZTIN5SPIRV17SPIRVInstTemplateINS_10SPIRVUnaryELN3spv2OpE159ELb1ELj4ELb0ELj4294967295ELj4294967295ELj4294967295EEE@Base 13
 _ZTIN5SPIRV17SPIRVInstTemplateINS_10SPIRVUnaryELN3spv2OpE160ELb1ELj4ELb0ELj4294967295ELj4294967295ELj4294967295EEE@Base 13
 _ZTIN5SPIRV17SPIRVInstTemplateINS_10SPIRVUnaryELN3spv2OpE168ELb1ELj4ELb0ELj4294967295ELj4294967295ELj4294967295EEE@Base 13
 _ZTIN5SPIRV17SPIRVInstTemplateINS_10SPIRVUnaryELN3spv2OpE200ELb1ELj4ELb0ELj4294967295ELj4294967295ELj4294967295EEE@Base 13
 _ZTIN5SPIRV17SPIRVInstTemplateINS_10SPIRVUnaryELN3spv2OpE205ELb1ELj4ELb0ELj4294967295ELj4294967295ELj4294967295EEE@Base 13
 _ZTIN5SPIRV17SPIRVInstTemplateINS_10SPIRVUnaryELN3spv2OpE5934ELb1ELj4ELb0ELj4294967295ELj4294967295ELj4294967295EEE@Base 13
 _ZTIN5SPIRV17SPIRVInstTemplateINS_10SPIRVUnaryELN3spv2OpE5938ELb1ELj4ELb0ELj4294967295ELj4294967295ELj4294967295EEE@Base 13
 _ZTIN5SPIRV17SPIRVInstTemplateINS_10SPIRVUnaryELN3spv2OpE6116ELb1ELj4ELb0ELj4294967295ELj4294967295ELj4294967295EEE@Base 13
 _ZTIN5SPIRV17SPIRVInstTemplateINS_10SPIRVUnaryELN3spv2OpE6117ELb1ELj4ELb0ELj4294967295ELj4294967295ELj4294967295EEE@Base 13
 _ZTIN5SPIRV17SPIRVInstTemplateINS_10SPIRVUnaryELN3spv2OpE6145ELb1ELj4ELb0ELj4294967295ELj4294967295ELj4294967295EEE@Base 13
 _ZTIN5SPIRV17SPIRVInstTemplateINS_11SPIRVBinaryELN3spv2OpE128ELb1ELj5ELb0ELj4294967295ELj4294967295ELj4294967295EEE@Base 13
 _ZTIN5SPIRV17SPIRVInstTemplateINS_11SPIRVBinaryELN3spv2OpE129ELb1ELj5ELb0ELj4294967295ELj4294967295ELj4294967295EEE@Base 13
 _ZTIN5SPIRV17SPIRVInstTemplateINS_11SPIRVBinaryELN3spv2OpE130ELb1ELj5ELb0ELj4294967295ELj4294967295ELj4294967295EEE@Base 13
 _ZTIN5SPIRV17SPIRVInstTemplateINS_11SPIRVBinaryELN3spv2OpE131ELb1ELj5ELb0ELj4294967295ELj4294967295ELj4294967295EEE@Base 13
 _ZTIN5SPIRV17SPIRVInstTemplateINS_11SPIRVBinaryELN3spv2OpE132ELb1ELj5ELb0ELj4294967295ELj4294967295ELj4294967295EEE@Base 13
 _ZTIN5SPIRV17SPIRVInstTemplateINS_11SPIRVBinaryELN3spv2OpE133ELb1ELj5ELb0ELj4294967295ELj4294967295ELj4294967295EEE@Base 13
 _ZTIN5SPIRV17SPIRVInstTemplateINS_11SPIRVBinaryELN3spv2OpE134ELb1ELj5ELb0ELj4294967295ELj4294967295ELj4294967295EEE@Base 13
 _ZTIN5SPIRV17SPIRVInstTemplateINS_11SPIRVBinaryELN3spv2OpE135ELb1ELj5ELb0ELj4294967295ELj4294967295ELj4294967295EEE@Base 13
 _ZTIN5SPIRV17SPIRVInstTemplateINS_11SPIRVBinaryELN3spv2OpE136ELb1ELj5ELb0ELj4294967295ELj4294967295ELj4294967295EEE@Base 13
 _ZTIN5SPIRV17SPIRVInstTemplateINS_11SPIRVBinaryELN3spv2OpE137ELb1ELj5ELb0ELj4294967295ELj4294967295ELj4294967295EEE@Base 13
 _ZTIN5SPIRV17SPIRVInstTemplateINS_11SPIRVBinaryELN3spv2OpE138ELb1ELj5ELb0ELj4294967295ELj4294967295ELj4294967295EEE@Base 13
 _ZTIN5SPIRV17SPIRVInstTemplateINS_11SPIRVBinaryELN3spv2OpE139ELb1ELj5ELb0ELj4294967295ELj4294967295ELj4294967295EEE@Base 13
 _ZTIN5SPIRV17SPIRVInstTemplateINS_11SPIRVBinaryELN3spv2OpE140ELb1ELj5ELb0ELj4294967295ELj4294967295ELj4294967295EEE@Base 13
 _ZTIN5SPIRV17SPIRVInstTemplateINS_11SPIRVBinaryELN3spv2OpE141ELb1ELj5ELb0ELj4294967295ELj4294967295ELj4294967295EEE@Base 13
 _ZTIN5SPIRV17SPIRVInstTemplateINS_11SPIRVBinaryELN3spv2OpE148ELb1ELj5ELb0ELj4294967295ELj4294967295ELj4294967295EEE@Base 13
 _ZTIN5SPIRV17SPIRVInstTemplateINS_11SPIRVBinaryELN3spv2OpE164ELb1ELj5ELb0ELj4294967295ELj4294967295ELj4294967295EEE@Base 13
 _ZTIN5SPIRV17SPIRVInstTemplateINS_11SPIRVBinaryELN3spv2OpE165ELb1ELj5ELb0ELj4294967295ELj4294967295ELj4294967295EEE@Base 13
 _ZTIN5SPIRV17SPIRVInstTemplateINS_11SPIRVBinaryELN3spv2OpE166ELb1ELj5ELb0ELj4294967295ELj4294967295ELj4294967295EEE@Base 13
 _ZTIN5SPIRV17SPIRVInstTemplateINS_11SPIRVBinaryELN3spv2OpE167ELb1ELj5ELb0ELj4294967295ELj4294967295ELj4294967295EEE@Base 13
 _ZTIN5SPIRV17SPIRVInstTemplateINS_11SPIRVBinaryELN3spv2OpE194ELb1ELj5ELb0ELj4294967295ELj4294967295ELj4294967295EEE@Base 13
 _ZTIN5SPIRV17SPIRVInstTemplateINS_11SPIRVBinaryELN3spv2OpE195ELb1ELj5ELb0ELj4294967295ELj4294967295ELj4294967295EEE@Base 13
 _ZTIN5SPIRV17SPIRVInstTemplateINS_11SPIRVBinaryELN3spv2OpE196ELb1ELj5ELb0ELj4294967295ELj4294967295ELj4294967295EEE@Base 13
 _ZTIN5SPIRV17SPIRVInstTemplateINS_11SPIRVBinaryELN3spv2OpE197ELb1ELj5ELb0ELj4294967295ELj4294967295ELj4294967295EEE@Base 13
 _ZTIN5SPIRV17SPIRVInstTemplateINS_11SPIRVBinaryELN3spv2OpE198ELb1ELj5ELb0ELj4294967295ELj4294967295ELj4294967295EEE@Base 13
 _ZTIN5SPIRV17SPIRVInstTemplateINS_11SPIRVBinaryELN3spv2OpE199ELb1ELj5ELb0ELj4294967295ELj4294967295ELj4294967295EEE@Base 13
 _ZTIN5SPIRV17SPIRVInstTemplateINS_12SPIRVCompareELN3spv2OpE161ELb1ELj5ELb0ELj4294967295ELj4294967295ELj4294967295EEE@Base 13
 _ZTIN5SPIRV17SPIRVInstTemplateINS_12SPIRVCompareELN3spv2OpE162ELb1ELj5ELb0ELj4294967295ELj4294967295ELj4294967295EEE@Base 13
 _ZTIN5SPIRV17SPIRVInstTemplateINS_12SPIRVCompareELN3spv2OpE163ELb1ELj5ELb0ELj4294967295ELj4294967295ELj4294967295EEE@Base 13
 _ZTIN5SPIRV17SPIRVInstTemplateINS_12SPIRVCompareELN3spv2OpE170ELb1ELj5ELb0ELj4294967295ELj4294967295ELj4294967295EEE@Base 13
 _ZTIN5SPIRV17SPIRVInstTemplateINS_12SPIRVCompareELN3spv2OpE171ELb1ELj5ELb0ELj4294967295ELj4294967295ELj4294967295EEE@Base 13
 _ZTIN5SPIRV17SPIRVInstTemplateINS_12SPIRVCompareELN3spv2OpE172ELb1ELj5ELb0ELj4294967295ELj4294967295ELj4294967295EEE@Base 13
 _ZTIN5SPIRV17SPIRVInstTemplateINS_12SPIRVCompareELN3spv2OpE173ELb1ELj5ELb0ELj4294967295ELj4294967295ELj4294967295EEE@Base 13
 _ZTIN5SPIRV17SPIRVInstTemplateINS_12SPIRVCompareELN3spv2OpE174ELb1ELj5ELb0ELj4294967295ELj4294967295ELj4294967295EEE@Base 13
 _ZTIN5SPIRV17SPIRVInstTemplateINS_12SPIRVCompareELN3spv2OpE175ELb1ELj5ELb0ELj4294967295ELj4294967295ELj4294967295EEE@Base 13
 _ZTIN5SPIRV17SPIRVInstTemplateINS_12SPIRVCompareELN3spv2OpE176ELb1ELj5ELb0ELj4294967295ELj4294967295ELj4294967295EEE@Base 13
 _ZTIN5SPIRV17SPIRVInstTemplateINS_12SPIRVCompareELN3spv2OpE177ELb1ELj5ELb0ELj4294967295ELj4294967295ELj4294967295EEE@Base 13
 _ZTIN5SPIRV17SPIRVInstTemplateINS_12SPIRVCompareELN3spv2OpE178ELb1ELj5ELb0ELj4294967295ELj4294967295ELj4294967295EEE@Base 13
 _ZTIN5SPIRV17SPIRVInstTemplateINS_12SPIRVCompareELN3spv2OpE179ELb1ELj5ELb0ELj4294967295ELj4294967295ELj4294967295EEE@Base 13
 _ZTIN5SPIRV17SPIRVInstTemplateINS_12SPIRVCompareELN3spv2OpE180ELb1ELj5ELb0ELj4294967295ELj4294967295ELj4294967295EEE@Base 13
 _ZTIN5SPIRV17SPIRVInstTemplateINS_12SPIRVCompareELN3spv2OpE181ELb1ELj5ELb0ELj4294967295ELj4294967295ELj4294967295EEE@Base 13
 _ZTIN5SPIRV17SPIRVInstTemplateINS_12SPIRVCompareELN3spv2OpE182ELb1ELj5ELb0ELj4294967295ELj4294967295ELj4294967295EEE@Base 13
 _ZTIN5SPIRV17SPIRVInstTemplateINS_12SPIRVCompareELN3spv2OpE183ELb1ELj5ELb0ELj4294967295ELj4294967295ELj4294967295EEE@Base 13
 _ZTIN5SPIRV17SPIRVInstTemplateINS_12SPIRVCompareELN3spv2OpE184ELb1ELj5ELb0ELj4294967295ELj4294967295ELj4294967295EEE@Base 13
 _ZTIN5SPIRV17SPIRVInstTemplateINS_12SPIRVCompareELN3spv2OpE185ELb1ELj5ELb0ELj4294967295ELj4294967295ELj4294967295EEE@Base 13
 _ZTIN5SPIRV17SPIRVInstTemplateINS_12SPIRVCompareELN3spv2OpE186ELb1ELj5ELb0ELj4294967295ELj4294967295ELj4294967295EEE@Base 13
 _ZTIN5SPIRV17SPIRVInstTemplateINS_12SPIRVCompareELN3spv2OpE187ELb1ELj5ELb0ELj4294967295ELj4294967295ELj4294967295EEE@Base 13
 _ZTIN5SPIRV17SPIRVInstTemplateINS_12SPIRVCompareELN3spv2OpE188ELb1ELj5ELb0ELj4294967295ELj4294967295ELj4294967295EEE@Base 13
 _ZTIN5SPIRV17SPIRVInstTemplateINS_12SPIRVCompareELN3spv2OpE189ELb1ELj5ELb0ELj4294967295ELj4294967295ELj4294967295EEE@Base 13
 _ZTIN5SPIRV17SPIRVInstTemplateINS_12SPIRVCompareELN3spv2OpE190ELb1ELj5ELb0ELj4294967295ELj4294967295ELj4294967295EEE@Base 13
 _ZTIN5SPIRV17SPIRVInstTemplateINS_12SPIRVCompareELN3spv2OpE191ELb1ELj5ELb0ELj4294967295ELj4294967295ELj4294967295EEE@Base 13
 _ZTIN5SPIRV17SPIRVInstTemplateINS_15SPIRVDotKHRBaseELN3spv2OpE4450ELb1ELj5ELb1ELj2ELj4294967295ELj4294967295EEE@Base 13
 _ZTIN5SPIRV17SPIRVInstTemplateINS_15SPIRVDotKHRBaseELN3spv2OpE4451ELb1ELj5ELb1ELj2ELj4294967295ELj4294967295EEE@Base 13
 _ZTIN5SPIRV17SPIRVInstTemplateINS_15SPIRVDotKHRBaseELN3spv2OpE4452ELb1ELj5ELb1ELj2ELj4294967295ELj4294967295EEE@Base 13
 _ZTIN5SPIRV17SPIRVInstTemplateINS_15SPIRVDotKHRBaseELN3spv2OpE4453ELb1ELj6ELb1ELj3ELj4294967295ELj4294967295EEE@Base 13
 _ZTIN5SPIRV17SPIRVInstTemplateINS_15SPIRVDotKHRBaseELN3spv2OpE4454ELb1ELj6ELb1ELj3ELj4294967295ELj4294967295EEE@Base 13
 _ZTIN5SPIRV17SPIRVInstTemplateINS_15SPIRVDotKHRBaseELN3spv2OpE4455ELb1ELj6ELb1ELj3ELj4294967295ELj4294967295EEE@Base 13
 _ZTIN5SPIRV17SPIRVInstTemplateINS_15SPIRVSelectBaseELN3spv2OpE169ELb1ELj6ELb0ELj4294967295ELj4294967295ELj4294967295EEE@Base 13
 _ZTIN5SPIRV17SPIRVInstTemplateINS_17SPIRVComplexFloatELN3spv2OpE6415ELb1ELj5ELb0ELj4294967295ELj4294967295ELj4294967295EEE@Base 15
 _ZTIN5SPIRV17SPIRVInstTemplateINS_17SPIRVComplexFloatELN3spv2OpE6416ELb1ELj5ELb0ELj4294967295ELj4294967295ELj4294967295EEE@Base 15
 _ZTIN5SPIRV17SPIRVInstTemplateINS_17SPIRVPipeInstBaseELN3spv2OpE274ELb1ELj7ELb0ELj4294967295ELj4294967295ELj4294967295EEE@Base 13
 _ZTIN5SPIRV17SPIRVInstTemplateINS_17SPIRVPipeInstBaseELN3spv2OpE275ELb1ELj7ELb0ELj4294967295ELj4294967295ELj4294967295EEE@Base 13
 _ZTIN5SPIRV17SPIRVInstTemplateINS_17SPIRVPipeInstBaseELN3spv2OpE276ELb1ELj9ELb0ELj4294967295ELj4294967295ELj4294967295EEE@Base 13
 _ZTIN5SPIRV17SPIRVInstTemplateINS_17SPIRVPipeInstBaseELN3spv2OpE277ELb1ELj9ELb0ELj4294967295ELj4294967295ELj4294967295EEE@Base 13
 _ZTIN5SPIRV17SPIRVInstTemplateINS_17SPIRVPipeInstBaseELN3spv2OpE278ELb1ELj7ELb0ELj4294967295ELj4294967295ELj4294967295EEE@Base 13
 _ZTIN5SPIRV17SPIRVInstTemplateINS_17SPIRVPipeInstBaseELN3spv2OpE279ELb1ELj7ELb0ELj4294967295ELj4294967295ELj4294967295EEE@Base 13
 _ZTIN5SPIRV17SPIRVInstTemplateINS_17SPIRVPipeInstBaseELN3spv2OpE280ELb0ELj5ELb0ELj4294967295ELj4294967295ELj4294967295EEE@Base 13
 _ZTIN5SPIRV17SPIRVInstTemplateINS_17SPIRVPipeInstBaseELN3spv2OpE281ELb0ELj5ELb0ELj4294967295ELj4294967295ELj4294967295EEE@Base 13
 _ZTIN5SPIRV17SPIRVInstTemplateINS_17SPIRVPipeInstBaseELN3spv2OpE282ELb1ELj4ELb0ELj4294967295ELj4294967295ELj4294967295EEE@Base 13
 _ZTIN5SPIRV17SPIRVInstTemplateINS_17SPIRVPipeInstBaseELN3spv2OpE283ELb1ELj6ELb0ELj4294967295ELj4294967295ELj4294967295EEE@Base 13
 _ZTIN5SPIRV17SPIRVInstTemplateINS_17SPIRVPipeInstBaseELN3spv2OpE284ELb1ELj6ELb0ELj4294967295ELj4294967295ELj4294967295EEE@Base 13
 _ZTIN5SPIRV17SPIRVInstTemplateINS_18SPIRVGroupInstBaseELN3spv2OpE261ELb1ELj5ELb0ELj4294967295ELj4294967295ELj4294967295EEE@Base 13
 _ZTIN5SPIRV17SPIRVInstTemplateINS_18SPIRVGroupInstBaseELN3spv2OpE262ELb1ELj5ELb0ELj4294967295ELj4294967295ELj4294967295EEE@Base 13
 _ZTIN5SPIRV17SPIRVInstTemplateINS_18SPIRVGroupInstBaseELN3spv2OpE263ELb1ELj6ELb0ELj4294967295ELj4294967295ELj4294967295EEE@Base 13
 _ZTIN5SPIRV17SPIRVInstTemplateINS_18SPIRVGroupInstBaseELN3spv2OpE264ELb1ELj6ELb0ELj1ELj4294967295ELj4294967295EEE@Base 13
 _ZTIN5SPIRV17SPIRVInstTemplateINS_18SPIRVGroupInstBaseELN3spv2OpE265ELb1ELj6ELb0ELj1ELj4294967295ELj4294967295EEE@Base 13
 _ZTIN5SPIRV17SPIRVInstTemplateINS_18SPIRVGroupInstBaseELN3spv2OpE266ELb1ELj6ELb0ELj1ELj4294967295ELj4294967295EEE@Base 13
 _ZTIN5SPIRV17SPIRVInstTemplateINS_18SPIRVGroupInstBaseELN3spv2OpE267ELb1ELj6ELb0ELj1ELj4294967295ELj4294967295EEE@Base 13
 _ZTIN5SPIRV17SPIRVInstTemplateINS_18SPIRVGroupInstBaseELN3spv2OpE268ELb1ELj6ELb0ELj1ELj4294967295ELj4294967295EEE@Base 13
 _ZTIN5SPIRV17SPIRVInstTemplateINS_18SPIRVGroupInstBaseELN3spv2OpE269ELb1ELj6ELb0ELj1ELj4294967295ELj4294967295EEE@Base 13
 _ZTIN5SPIRV17SPIRVInstTemplateINS_18SPIRVGroupInstBaseELN3spv2OpE270ELb1ELj6ELb0ELj1ELj4294967295ELj4294967295EEE@Base 13
 _ZTIN5SPIRV17SPIRVInstTemplateINS_18SPIRVGroupInstBaseELN3spv2OpE271ELb1ELj6ELb0ELj1ELj4294967295ELj4294967295EEE@Base 13
 _ZTIN5SPIRV17SPIRVInstTemplateINS_18SPIRVGroupInstBaseELN3spv2OpE285ELb1ELj8ELb0ELj4294967295ELj4294967295ELj4294967295EEE@Base 13
 _ZTIN5SPIRV17SPIRVInstTemplateINS_18SPIRVGroupInstBaseELN3spv2OpE286ELb1ELj8ELb0ELj4294967295ELj4294967295ELj4294967295EEE@Base 13
 _ZTIN5SPIRV17SPIRVInstTemplateINS_18SPIRVGroupInstBaseELN3spv2OpE287ELb0ELj6ELb0ELj4294967295ELj4294967295ELj4294967295EEE@Base 13
 _ZTIN5SPIRV17SPIRVInstTemplateINS_18SPIRVGroupInstBaseELN3spv2OpE288ELb0ELj6ELb0ELj4294967295ELj4294967295ELj4294967295EEE@Base 13
 _ZTIN5SPIRV17SPIRVInstTemplateINS_18SPIRVImageInstBaseELN3spv2OpE101ELb1ELj4ELb0ELj4294967295ELj4294967295ELj4294967295EEE@Base 13
 _ZTIN5SPIRV17SPIRVInstTemplateINS_18SPIRVImageInstBaseELN3spv2OpE102ELb1ELj4ELb0ELj4294967295ELj4294967295ELj4294967295EEE@Base 13
 _ZTIN5SPIRV17SPIRVInstTemplateINS_18SPIRVImageInstBaseELN3spv2OpE103ELb1ELj5ELb0ELj4294967295ELj4294967295ELj4294967295EEE@Base 13
 _ZTIN5SPIRV17SPIRVInstTemplateINS_18SPIRVImageInstBaseELN3spv2OpE104ELb1ELj4ELb0ELj4294967295ELj4294967295ELj4294967295EEE@Base 13
 _ZTIN5SPIRV17SPIRVInstTemplateINS_18SPIRVImageInstBaseELN3spv2OpE105ELb1ELj5ELb0ELj4294967295ELj4294967295ELj4294967295EEE@Base 13
 _ZTIN5SPIRV17SPIRVInstTemplateINS_18SPIRVImageInstBaseELN3spv2OpE106ELb1ELj4ELb0ELj4294967295ELj4294967295ELj4294967295EEE@Base 13
 _ZTIN5SPIRV17SPIRVInstTemplateINS_18SPIRVImageInstBaseELN3spv2OpE107ELb1ELj4ELb0ELj4294967295ELj4294967295ELj4294967295EEE@Base 13
 _ZTIN5SPIRV17SPIRVInstTemplateINS_18SPIRVImageInstBaseELN3spv2OpE86ELb1ELj5ELb0ELj4294967295ELj4294967295ELj4294967295EEE@Base 13
 _ZTIN5SPIRV17SPIRVInstTemplateINS_18SPIRVImageInstBaseELN3spv2OpE87ELb1ELj5ELb1ELj4294967295ELj4294967295ELj4294967295EEE@Base 13
 _ZTIN5SPIRV17SPIRVInstTemplateINS_18SPIRVImageInstBaseELN3spv2OpE88ELb1ELj7ELb1ELj2ELj4294967295ELj4294967295EEE@Base 13
 _ZTIN5SPIRV17SPIRVInstTemplateINS_18SPIRVImageInstBaseELN3spv2OpE98ELb1ELj5ELb1ELj2ELj4294967295ELj4294967295EEE@Base 13
 _ZTIN5SPIRV17SPIRVInstTemplateINS_18SPIRVImageInstBaseELN3spv2OpE99ELb0ELj4ELb1ELj3ELj4294967295ELj4294967295EEE@Base 13
 _ZTIN5SPIRV17SPIRVInstTemplateINS_19SPIRVAtomicInstBaseELN3spv2OpE225ELb0ELj3ELb0ELj4294967295ELj4294967295ELj4294967295EEE@Base 13
 _ZTIN5SPIRV17SPIRVInstTemplateINS_19SPIRVAtomicInstBaseELN3spv2OpE227ELb1ELj6ELb0ELj4294967295ELj4294967295ELj4294967295EEE@Base 13
 _ZTIN5SPIRV17SPIRVInstTemplateINS_19SPIRVAtomicInstBaseELN3spv2OpE229ELb1ELj7ELb0ELj4294967295ELj4294967295ELj4294967295EEE@Base 13
 _ZTIN5SPIRV17SPIRVInstTemplateINS_19SPIRVAtomicInstBaseELN3spv2OpE230ELb1ELj9ELb0ELj4294967295ELj4294967295ELj4294967295EEE@Base 13
 _ZTIN5SPIRV17SPIRVInstTemplateINS_19SPIRVAtomicInstBaseELN3spv2OpE231ELb1ELj9ELb0ELj4294967295ELj4294967295ELj4294967295EEE@Base 13
 _ZTIN5SPIRV17SPIRVInstTemplateINS_19SPIRVAtomicInstBaseELN3spv2OpE232ELb1ELj6ELb0ELj4294967295ELj4294967295ELj4294967295EEE@Base 13
 _ZTIN5SPIRV17SPIRVInstTemplateINS_19SPIRVAtomicInstBaseELN3spv2OpE233ELb1ELj6ELb0ELj4294967295ELj4294967295ELj4294967295EEE@Base 13
 _ZTIN5SPIRV17SPIRVInstTemplateINS_19SPIRVAtomicInstBaseELN3spv2OpE234ELb1ELj7ELb0ELj4294967295ELj4294967295ELj4294967295EEE@Base 13
 _ZTIN5SPIRV17SPIRVInstTemplateINS_19SPIRVAtomicInstBaseELN3spv2OpE235ELb1ELj7ELb0ELj4294967295ELj4294967295ELj4294967295EEE@Base 13
 _ZTIN5SPIRV17SPIRVInstTemplateINS_19SPIRVAtomicInstBaseELN3spv2OpE236ELb1ELj7ELb0ELj4294967295ELj4294967295ELj4294967295EEE@Base 13
 _ZTIN5SPIRV17SPIRVInstTemplateINS_19SPIRVAtomicInstBaseELN3spv2OpE237ELb1ELj7ELb0ELj4294967295ELj4294967295ELj4294967295EEE@Base 13
 _ZTIN5SPIRV17SPIRVInstTemplateINS_19SPIRVAtomicInstBaseELN3spv2OpE238ELb1ELj7ELb0ELj4294967295ELj4294967295ELj4294967295EEE@Base 13
 _ZTIN5SPIRV17SPIRVInstTemplateINS_19SPIRVAtomicInstBaseELN3spv2OpE239ELb1ELj7ELb0ELj4294967295ELj4294967295ELj4294967295EEE@Base 13
 _ZTIN5SPIRV17SPIRVInstTemplateINS_19SPIRVAtomicInstBaseELN3spv2OpE240ELb1ELj7ELb0ELj4294967295ELj4294967295ELj4294967295EEE@Base 13
 _ZTIN5SPIRV17SPIRVInstTemplateINS_19SPIRVAtomicInstBaseELN3spv2OpE241ELb1ELj7ELb0ELj4294967295ELj4294967295ELj4294967295EEE@Base 13
 _ZTIN5SPIRV17SPIRVInstTemplateINS_19SPIRVAtomicInstBaseELN3spv2OpE242ELb1ELj7ELb0ELj4294967295ELj4294967295ELj4294967295EEE@Base 13
 _ZTIN5SPIRV17SPIRVInstTemplateINS_19SPIRVAtomicInstBaseELN3spv2OpE318ELb1ELj6ELb0ELj4294967295ELj4294967295ELj4294967295EEE@Base 13
 _ZTIN5SPIRV17SPIRVInstTemplateINS_19SPIRVAtomicInstBaseELN3spv2OpE319ELb0ELj4ELb0ELj4294967295ELj4294967295ELj4294967295EEE@Base 13
 _ZTIN5SPIRV17SPIRVInstTemplateINS_19SPIRVDevEnqInstBaseELN3spv2OpE291ELb1ELj7ELb0ELj4294967295ELj4294967295ELj4294967295EEE@Base 13
 _ZTIN5SPIRV17SPIRVInstTemplateINS_19SPIRVDevEnqInstBaseELN3spv2OpE292ELb1ELj13ELb1ELj4294967295ELj4294967295ELj4294967295EEE@Base 13
 _ZTIN5SPIRV17SPIRVInstTemplateINS_19SPIRVDevEnqInstBaseELN3spv2OpE293ELb1ELj8ELb0ELj4294967295ELj4294967295ELj4294967295EEE@Base 13
 _ZTIN5SPIRV17SPIRVInstTemplateINS_19SPIRVDevEnqInstBaseELN3spv2OpE294ELb1ELj8ELb0ELj4294967295ELj4294967295ELj4294967295EEE@Base 13
 _ZTIN5SPIRV17SPIRVInstTemplateINS_19SPIRVDevEnqInstBaseELN3spv2OpE295ELb1ELj7ELb0ELj4294967295ELj4294967295ELj4294967295EEE@Base 13
 _ZTIN5SPIRV17SPIRVInstTemplateINS_19SPIRVDevEnqInstBaseELN3spv2OpE296ELb1ELj7ELb0ELj4294967295ELj4294967295ELj4294967295EEE@Base 13
 _ZTIN5SPIRV17SPIRVInstTemplateINS_19SPIRVDevEnqInstBaseELN3spv2OpE297ELb0ELj2ELb0ELj4294967295ELj4294967295ELj4294967295EEE@Base 13
 _ZTIN5SPIRV17SPIRVInstTemplateINS_19SPIRVDevEnqInstBaseELN3spv2OpE298ELb0ELj2ELb0ELj4294967295ELj4294967295ELj4294967295EEE@Base 13
 _ZTIN5SPIRV17SPIRVInstTemplateINS_19SPIRVDevEnqInstBaseELN3spv2OpE299ELb1ELj3ELb0ELj4294967295ELj4294967295ELj4294967295EEE@Base 13
 _ZTIN5SPIRV17SPIRVInstTemplateINS_19SPIRVDevEnqInstBaseELN3spv2OpE300ELb1ELj4ELb0ELj4294967295ELj4294967295ELj4294967295EEE@Base 13
 _ZTIN5SPIRV17SPIRVInstTemplateINS_19SPIRVDevEnqInstBaseELN3spv2OpE301ELb0ELj3ELb0ELj4294967295ELj4294967295ELj4294967295EEE@Base 13
 _ZTIN5SPIRV17SPIRVInstTemplateINS_19SPIRVDevEnqInstBaseELN3spv2OpE302ELb0ELj4ELb0ELj4294967295ELj4294967295ELj4294967295EEE@Base 13
 _ZTIN5SPIRV17SPIRVInstTemplateINS_19SPIRVDevEnqInstBaseELN3spv2OpE303ELb1ELj3ELb0ELj4294967295ELj4294967295ELj4294967295EEE@Base 13
 _ZTIN5SPIRV17SPIRVInstTemplateINS_19SPIRVDevEnqInstBaseELN3spv2OpE304ELb1ELj6ELb0ELj4294967295ELj4294967295ELj4294967295EEE@Base 13
 _ZTIN5SPIRV17SPIRVInstTemplateINS_20SPIRVAccessChainBaseELN3spv2OpE65ELb1ELj4ELb1ELj4294967295ELj4294967295ELj4294967295EEE@Base 13
 _ZTIN5SPIRV17SPIRVInstTemplateINS_20SPIRVAccessChainBaseELN3spv2OpE66ELb1ELj4ELb1ELj4294967295ELj4294967295ELj4294967295EEE@Base 13
 _ZTIN5SPIRV17SPIRVInstTemplateINS_20SPIRVAccessChainBaseELN3spv2OpE67ELb1ELj5ELb1ELj4294967295ELj4294967295ELj4294967295EEE@Base 13
 _ZTIN5SPIRV17SPIRVInstTemplateINS_20SPIRVAccessChainBaseELN3spv2OpE70ELb1ELj5ELb1ELj4294967295ELj4294967295ELj4294967295EEE@Base 13
 _ZTIN5SPIRV17SPIRVInstTemplateINS_20SPIRVAtomicStoreInstELN3spv2OpE228ELb0ELj5ELb0ELj4294967295ELj4294967295ELj4294967295EEE@Base 13
 _ZTIN5SPIRV17SPIRVInstTemplateINS_21SPIRVInstTemplateBaseELN3spv2OpE123ELb1ELj5ELb0ELj1ELj4294967295ELj4294967295EEE@Base 13
 _ZTIN5SPIRV17SPIRVInstTemplateINS_21SPIRVInstTemplateBaseELN3spv2OpE260ELb0ELj4ELb0ELj4294967295ELj4294967295ELj4294967295EEE@Base 13
 _ZTIN5SPIRV17SPIRVInstTemplateINS_21SPIRVInstTemplateBaseELN3spv2OpE69ELb1ELj4ELb0ELj4294967295ELj4294967295ELj4294967295EEE@Base 13
 _ZTIN5SPIRV17SPIRVInstTemplateINS_22SPIRVArbFloatIntelInstELN3spv2OpE5840ELb1ELj9ELb0ELj4294967295ELj4294967295ELj4294967295EEE@Base 13
 _ZTIN5SPIRV17SPIRVInstTemplateINS_22SPIRVArbFloatIntelInstELN3spv2OpE5841ELb1ELj9ELb0ELj4294967295ELj4294967295ELj4294967295EEE@Base 13
 _ZTIN5SPIRV17SPIRVInstTemplateINS_22SPIRVArbFloatIntelInstELN3spv2OpE5842ELb1ELj9ELb0ELj4294967295ELj4294967295ELj4294967295EEE@Base 13
 _ZTIN5SPIRV17SPIRVInstTemplateINS_22SPIRVArbFloatIntelInstELN3spv2OpE5843ELb1ELj9ELb0ELj4294967295ELj4294967295ELj4294967295EEE@Base 13
 _ZTIN5SPIRV17SPIRVInstTemplateINS_22SPIRVArbFloatIntelInstELN3spv2OpE5846ELb1ELj11ELb0ELj4294967295ELj4294967295ELj4294967295EEE@Base 13
 _ZTIN5SPIRV17SPIRVInstTemplateINS_22SPIRVArbFloatIntelInstELN3spv2OpE5847ELb1ELj11ELb0ELj4294967295ELj4294967295ELj4294967295EEE@Base 13
 _ZTIN5SPIRV17SPIRVInstTemplateINS_22SPIRVArbFloatIntelInstELN3spv2OpE5848ELb1ELj11ELb0ELj4294967295ELj4294967295ELj4294967295EEE@Base 13
 _ZTIN5SPIRV17SPIRVInstTemplateINS_22SPIRVArbFloatIntelInstELN3spv2OpE5849ELb1ELj11ELb0ELj4294967295ELj4294967295ELj4294967295EEE@Base 13
 _ZTIN5SPIRV17SPIRVInstTemplateINS_22SPIRVArbFloatIntelInstELN3spv2OpE5850ELb1ELj7ELb0ELj4294967295ELj4294967295ELj4294967295EEE@Base 13
 _ZTIN5SPIRV17SPIRVInstTemplateINS_22SPIRVArbFloatIntelInstELN3spv2OpE5851ELb1ELj7ELb0ELj4294967295ELj4294967295ELj4294967295EEE@Base 13
 _ZTIN5SPIRV17SPIRVInstTemplateINS_22SPIRVArbFloatIntelInstELN3spv2OpE5852ELb1ELj7ELb0ELj4294967295ELj4294967295ELj4294967295EEE@Base 13
 _ZTIN5SPIRV17SPIRVInstTemplateINS_22SPIRVArbFloatIntelInstELN3spv2OpE5853ELb1ELj7ELb0ELj4294967295ELj4294967295ELj4294967295EEE@Base 13
 _ZTIN5SPIRV17SPIRVInstTemplateINS_22SPIRVArbFloatIntelInstELN3spv2OpE5854ELb1ELj7ELb0ELj4294967295ELj4294967295ELj4294967295EEE@Base 13
 _ZTIN5SPIRV17SPIRVInstTemplateINS_22SPIRVArbFloatIntelInstELN3spv2OpE5855ELb1ELj9ELb0ELj4294967295ELj4294967295ELj4294967295EEE@Base 13
 _ZTIN5SPIRV17SPIRVInstTemplateINS_22SPIRVArbFloatIntelInstELN3spv2OpE5856ELb1ELj9ELb0ELj4294967295ELj4294967295ELj4294967295EEE@Base 13
 _ZTIN5SPIRV17SPIRVInstTemplateINS_22SPIRVArbFloatIntelInstELN3spv2OpE5857ELb1ELj9ELb0ELj4294967295ELj4294967295ELj4294967295EEE@Base 13
 _ZTIN5SPIRV17SPIRVInstTemplateINS_22SPIRVArbFloatIntelInstELN3spv2OpE5858ELb1ELj11ELb0ELj4294967295ELj4294967295ELj4294967295EEE@Base 13
 _ZTIN5SPIRV17SPIRVInstTemplateINS_22SPIRVArbFloatIntelInstELN3spv2OpE5859ELb1ELj9ELb0ELj4294967295ELj4294967295ELj4294967295EEE@Base 13
 _ZTIN5SPIRV17SPIRVInstTemplateINS_22SPIRVArbFloatIntelInstELN3spv2OpE5860ELb1ELj9ELb0ELj4294967295ELj4294967295ELj4294967295EEE@Base 13
 _ZTIN5SPIRV17SPIRVInstTemplateINS_22SPIRVArbFloatIntelInstELN3spv2OpE5861ELb1ELj9ELb0ELj4294967295ELj4294967295ELj4294967295EEE@Base 13
 _ZTIN5SPIRV17SPIRVInstTemplateINS_22SPIRVArbFloatIntelInstELN3spv2OpE5862ELb1ELj9ELb0ELj4294967295ELj4294967295ELj4294967295EEE@Base 13
 _ZTIN5SPIRV17SPIRVInstTemplateINS_22SPIRVArbFloatIntelInstELN3spv2OpE5863ELb1ELj9ELb0ELj4294967295ELj4294967295ELj4294967295EEE@Base 13
 _ZTIN5SPIRV17SPIRVInstTemplateINS_22SPIRVArbFloatIntelInstELN3spv2OpE5864ELb1ELj9ELb0ELj4294967295ELj4294967295ELj4294967295EEE@Base 13
 _ZTIN5SPIRV17SPIRVInstTemplateINS_22SPIRVArbFloatIntelInstELN3spv2OpE5865ELb1ELj9ELb0ELj4294967295ELj4294967295ELj4294967295EEE@Base 13
 _ZTIN5SPIRV17SPIRVInstTemplateINS_22SPIRVArbFloatIntelInstELN3spv2OpE5866ELb1ELj9ELb0ELj4294967295ELj4294967295ELj4294967295EEE@Base 13
 _ZTIN5SPIRV17SPIRVInstTemplateINS_22SPIRVArbFloatIntelInstELN3spv2OpE5867ELb1ELj9ELb0ELj4294967295ELj4294967295ELj4294967295EEE@Base 13
 _ZTIN5SPIRV17SPIRVInstTemplateINS_22SPIRVArbFloatIntelInstELN3spv2OpE5868ELb1ELj9ELb0ELj4294967295ELj4294967295ELj4294967295EEE@Base 13
 _ZTIN5SPIRV17SPIRVInstTemplateINS_22SPIRVArbFloatIntelInstELN3spv2OpE5869ELb1ELj9ELb0ELj4294967295ELj4294967295ELj4294967295EEE@Base 13
 _ZTIN5SPIRV17SPIRVInstTemplateINS_22SPIRVArbFloatIntelInstELN3spv2OpE5870ELb1ELj9ELb0ELj4294967295ELj4294967295ELj4294967295EEE@Base 13
 _ZTIN5SPIRV17SPIRVInstTemplateINS_22SPIRVArbFloatIntelInstELN3spv2OpE5871ELb1ELj9ELb0ELj4294967295ELj4294967295ELj4294967295EEE@Base 13
 _ZTIN5SPIRV17SPIRVInstTemplateINS_22SPIRVArbFloatIntelInstELN3spv2OpE5872ELb1ELj9ELb0ELj4294967295ELj4294967295ELj4294967295EEE@Base 13
 _ZTIN5SPIRV17SPIRVInstTemplateINS_22SPIRVArbFloatIntelInstELN3spv2OpE5873ELb1ELj9ELb0ELj4294967295ELj4294967295ELj4294967295EEE@Base 13
 _ZTIN5SPIRV17SPIRVInstTemplateINS_22SPIRVArbFloatIntelInstELN3spv2OpE5874ELb1ELj9ELb0ELj4294967295ELj4294967295ELj4294967295EEE@Base 13
 _ZTIN5SPIRV17SPIRVInstTemplateINS_22SPIRVArbFloatIntelInstELN3spv2OpE5875ELb1ELj9ELb0ELj4294967295ELj4294967295ELj4294967295EEE@Base 13
 _ZTIN5SPIRV17SPIRVInstTemplateINS_22SPIRVArbFloatIntelInstELN3spv2OpE5876ELb1ELj9ELb0ELj4294967295ELj4294967295ELj4294967295EEE@Base 13
 _ZTIN5SPIRV17SPIRVInstTemplateINS_22SPIRVArbFloatIntelInstELN3spv2OpE5877ELb1ELj9ELb0ELj4294967295ELj4294967295ELj4294967295EEE@Base 13
 _ZTIN5SPIRV17SPIRVInstTemplateINS_22SPIRVArbFloatIntelInstELN3spv2OpE5878ELb1ELj9ELb0ELj4294967295ELj4294967295ELj4294967295EEE@Base 13
 _ZTIN5SPIRV17SPIRVInstTemplateINS_22SPIRVArbFloatIntelInstELN3spv2OpE5879ELb1ELj11ELb0ELj4294967295ELj4294967295ELj4294967295EEE@Base 13
 _ZTIN5SPIRV17SPIRVInstTemplateINS_22SPIRVArbFloatIntelInstELN3spv2OpE5880ELb1ELj11ELb0ELj4294967295ELj4294967295ELj4294967295EEE@Base 13
 _ZTIN5SPIRV17SPIRVInstTemplateINS_22SPIRVArbFloatIntelInstELN3spv2OpE5881ELb1ELj11ELb0ELj4294967295ELj4294967295ELj4294967295EEE@Base 13
 _ZTIN5SPIRV17SPIRVInstTemplateINS_22SPIRVArbFloatIntelInstELN3spv2OpE5882ELb1ELj11ELb0ELj4294967295ELj4294967295ELj4294967295EEE@Base 14
 _ZTIN5SPIRV17SPIRVInstTemplateINS_22SPIRVAtomicFAddEXTInstELN3spv2OpE6035ELb1ELj7ELb0ELj4294967295ELj4294967295ELj4294967295EEE@Base 13
 _ZTIN5SPIRV17SPIRVInstTemplateINS_22SPIRVExpectKHRInstBaseELN3spv2OpE5631ELb1ELj5ELb0ELj4294967295ELj4294967295ELj4294967295EEE@Base 13
 _ZTIN5SPIRV17SPIRVInstTemplateINS_22SPIRVVectorShuffleBaseELN3spv2OpE79ELb1ELj5ELb1ELj4294967295ELj4294967295ELj4294967295EEE@Base 13
 _ZTIN5SPIRV17SPIRVInstTemplateINS_23SPIRVSpecConstantOpBaseELN3spv2OpE52ELb1ELj4ELb1ELj0ELj4294967295ELj4294967295EEE@Base 14
 _ZTIN5SPIRV17SPIRVInstTemplateINS_24SPIRVCompositeInsertBaseELN3spv2OpE82ELb1ELj5ELb1ELj4294967295ELj4294967295ELj4294967295EEE@Base 13
 _ZTIN5SPIRV17SPIRVInstTemplateINS_24SPIRVFixedPointIntelInstELN3spv2OpE5923ELb1ELj9ELb0ELj4294967295ELj4294967295ELj4294967295EEE@Base 13
 _ZTIN5SPIRV17SPIRVInstTemplateINS_24SPIRVFixedPointIntelInstELN3spv2OpE5924ELb1ELj9ELb0ELj4294967295ELj4294967295ELj4294967295EEE@Base 13
 _ZTIN5SPIRV17SPIRVInstTemplateINS_24SPIRVFixedPointIntelInstELN3spv2OpE5925ELb1ELj9ELb0ELj4294967295ELj4294967295ELj4294967295EEE@Base 13
 _ZTIN5SPIRV17SPIRVInstTemplateINS_24SPIRVFixedPointIntelInstELN3spv2OpE5926ELb1ELj9ELb0ELj4294967295ELj4294967295ELj4294967295EEE@Base 13
 _ZTIN5SPIRV17SPIRVInstTemplateINS_24SPIRVFixedPointIntelInstELN3spv2OpE5927ELb1ELj9ELb0ELj4294967295ELj4294967295ELj4294967295EEE@Base 13
 _ZTIN5SPIRV17SPIRVInstTemplateINS_24SPIRVFixedPointIntelInstELN3spv2OpE5928ELb1ELj9ELb0ELj4294967295ELj4294967295ELj4294967295EEE@Base 13
 _ZTIN5SPIRV17SPIRVInstTemplateINS_24SPIRVFixedPointIntelInstELN3spv2OpE5929ELb1ELj9ELb0ELj4294967295ELj4294967295ELj4294967295EEE@Base 13
 _ZTIN5SPIRV17SPIRVInstTemplateINS_24SPIRVFixedPointIntelInstELN3spv2OpE5930ELb1ELj9ELb0ELj4294967295ELj4294967295ELj4294967295EEE@Base 13
 _ZTIN5SPIRV17SPIRVInstTemplateINS_24SPIRVFixedPointIntelInstELN3spv2OpE5931ELb1ELj9ELb0ELj4294967295ELj4294967295ELj4294967295EEE@Base 13
 _ZTIN5SPIRV17SPIRVInstTemplateINS_24SPIRVFixedPointIntelInstELN3spv2OpE5932ELb1ELj9ELb0ELj4294967295ELj4294967295ELj4294967295EEE@Base 13
 _ZTIN5SPIRV17SPIRVInstTemplateINS_24SPIRVFixedPointIntelInstELN3spv2OpE5933ELb1ELj9ELb0ELj4294967295ELj4294967295ELj4294967295EEE@Base 13
 _ZTIN5SPIRV17SPIRVInstTemplateINS_24SPIRVPipeStorageInstBaseELN3spv2OpE324ELb1ELj4ELb0ELj4294967295ELj4294967295ELj4294967295EEE@Base 13
 _ZTIN5SPIRV17SPIRVInstTemplateINS_25SPIRVAtomicFMinMaxEXTBaseELN3spv2OpE5614ELb1ELj7ELb0ELj4294967295ELj4294967295ELj4294967295EEE@Base 13
 _ZTIN5SPIRV17SPIRVInstTemplateINS_25SPIRVAtomicFMinMaxEXTBaseELN3spv2OpE5615ELb1ELj7ELb0ELj4294967295ELj4294967295ELj4294967295EEE@Base 13
 _ZTIN5SPIRV17SPIRVInstTemplateINS_25SPIRVCompositeExtractBaseELN3spv2OpE81ELb1ELj4ELb1ELj4294967295ELj4294967295ELj4294967295EEE@Base 13
 _ZTIN5SPIRV17SPIRVInstTemplateINS_25SPIRVFPGARegINTELInstBaseELN3spv2OpE5949ELb1ELj4ELb0ELj4294967295ELj4294967295ELj4294967295EEE@Base 13
 _ZTIN5SPIRV17SPIRVInstTemplateINS_25SPIRVJointMatrixINTELInstELN3spv2OpE6120ELb1ELj6ELb1ELj4294967295ELj4294967295ELj4294967295EEE@Base 14
 _ZTIN5SPIRV17SPIRVInstTemplateINS_25SPIRVJointMatrixINTELInstELN3spv2OpE6121ELb0ELj5ELb1ELj4294967295ELj4294967295ELj4294967295EEE@Base 14
 _ZTIN5SPIRV17SPIRVInstTemplateINS_25SPIRVJointMatrixINTELInstELN3spv2OpE6122ELb1ELj7ELb0ELj4294967295ELj4294967295ELj4294967295EEE@Base 14
 _ZTIN5SPIRV17SPIRVInstTemplateINS_25SPIRVJointMatrixINTELInstELN3spv2OpE6410ELb1ELj4ELb0ELj4294967295ELj4294967295ELj4294967295EEE@Base 14
 _ZTIN5SPIRV17SPIRVInstTemplateINS_27SPIRVBlockingPipesIntelInstELN3spv2OpE5946ELb0ELj5ELb0ELj4294967295ELj4294967295ELj4294967295EEE@Base 13
 _ZTIN5SPIRV17SPIRVInstTemplateINS_27SPIRVBlockingPipesIntelInstELN3spv2OpE5947ELb0ELj5ELb0ELj4294967295ELj4294967295ELj4294967295EEE@Base 13
 _ZTIN5SPIRV17SPIRVInstTemplateINS_28SPIRVGroupNonUniformVoteInstELN3spv2OpE334ELb1ELj5ELb0ELj4294967295ELj4294967295ELj4294967295EEE@Base 13
 _ZTIN5SPIRV17SPIRVInstTemplateINS_28SPIRVGroupNonUniformVoteInstELN3spv2OpE335ELb1ELj5ELb0ELj4294967295ELj4294967295ELj4294967295EEE@Base 13
 _ZTIN5SPIRV17SPIRVInstTemplateINS_28SPIRVGroupNonUniformVoteInstELN3spv2OpE336ELb1ELj5ELb0ELj4294967295ELj4294967295ELj4294967295EEE@Base 13
 _ZTIN5SPIRV17SPIRVInstTemplateINS_29SPIRVGroupNonUniformElectInstELN3spv2OpE333ELb1ELj4ELb0ELj4294967295ELj4294967295ELj4294967295EEE@Base 13
 _ZTIN5SPIRV17SPIRVInstTemplateINS_29SPIRVSubgroupAVCIntelInstBaseELN3spv2OpE5699ELb1ELj5ELb0ELj4294967295ELj4294967295ELj4294967295EEE@Base 13
 _ZTIN5SPIRV17SPIRVInstTemplateINS_29SPIRVSubgroupAVCIntelInstBaseELN3spv2OpE5713ELb1ELj5ELb0ELj4294967295ELj4294967295ELj4294967295EEE@Base 13
 _ZTIN5SPIRV17SPIRVInstTemplateINS_29SPIRVSubgroupAVCIntelInstBaseELN3spv2OpE5714ELb1ELj5ELb0ELj4294967295ELj4294967295ELj4294967295EEE@Base 13
 _ZTIN5SPIRV17SPIRVInstTemplateINS_29SPIRVSubgroupAVCIntelInstBaseELN3spv2OpE5715ELb1ELj5ELb0ELj4294967295ELj4294967295ELj4294967295EEE@Base 13
 _ZTIN5SPIRV17SPIRVInstTemplateINS_29SPIRVSubgroupAVCIntelInstBaseELN3spv2OpE5716ELb1ELj5ELb0ELj4294967295ELj4294967295ELj4294967295EEE@Base 13
 _ZTIN5SPIRV17SPIRVInstTemplateINS_29SPIRVSubgroupAVCIntelInstBaseELN3spv2OpE5717ELb1ELj5ELb0ELj4294967295ELj4294967295ELj4294967295EEE@Base 13
 _ZTIN5SPIRV17SPIRVInstTemplateINS_29SPIRVSubgroupAVCIntelInstBaseELN3spv2OpE5718ELb1ELj5ELb0ELj4294967295ELj4294967295ELj4294967295EEE@Base 13
 _ZTIN5SPIRV17SPIRVInstTemplateINS_29SPIRVSubgroupAVCIntelInstBaseELN3spv2OpE5720ELb1ELj5ELb0ELj4294967295ELj4294967295ELj4294967295EEE@Base 13
 _ZTIN5SPIRV17SPIRVInstTemplateINS_29SPIRVSubgroupAVCIntelInstBaseELN3spv2OpE5721ELb1ELj3ELb0ELj4294967295ELj4294967295ELj4294967295EEE@Base 13
 _ZTIN5SPIRV17SPIRVInstTemplateINS_29SPIRVSubgroupAVCIntelInstBaseELN3spv2OpE5722ELb1ELj3ELb0ELj4294967295ELj4294967295ELj4294967295EEE@Base 13
 _ZTIN5SPIRV17SPIRVInstTemplateINS_29SPIRVSubgroupAVCIntelInstBaseELN3spv2OpE5723ELb1ELj3ELb0ELj4294967295ELj4294967295ELj4294967295EEE@Base 13
 _ZTIN5SPIRV17SPIRVInstTemplateINS_29SPIRVSubgroupAVCIntelInstBaseELN3spv2OpE5724ELb1ELj7ELb0ELj4294967295ELj4294967295ELj4294967295EEE@Base 13
 _ZTIN5SPIRV17SPIRVInstTemplateINS_29SPIRVSubgroupAVCIntelInstBaseELN3spv2OpE5728ELb1ELj4ELb0ELj4294967295ELj4294967295ELj4294967295EEE@Base 13
 _ZTIN5SPIRV17SPIRVInstTemplateINS_29SPIRVSubgroupAVCIntelInstBaseELN3spv2OpE5729ELb1ELj5ELb0ELj4294967295ELj4294967295ELj4294967295EEE@Base 13
 _ZTIN5SPIRV17SPIRVInstTemplateINS_29SPIRVSubgroupAVCIntelInstBaseELN3spv2OpE5730ELb1ELj5ELb0ELj4294967295ELj4294967295ELj4294967295EEE@Base 13
 _ZTIN5SPIRV17SPIRVInstTemplateINS_29SPIRVSubgroupAVCIntelInstBaseELN3spv2OpE5731ELb1ELj6ELb0ELj4294967295ELj4294967295ELj4294967295EEE@Base 13
 _ZTIN5SPIRV17SPIRVInstTemplateINS_29SPIRVSubgroupAVCIntelInstBaseELN3spv2OpE5732ELb1ELj4ELb0ELj4294967295ELj4294967295ELj4294967295EEE@Base 13
 _ZTIN5SPIRV17SPIRVInstTemplateINS_29SPIRVSubgroupAVCIntelInstBaseELN3spv2OpE5733ELb1ELj4ELb0ELj4294967295ELj4294967295ELj4294967295EEE@Base 13
 _ZTIN5SPIRV17SPIRVInstTemplateINS_29SPIRVSubgroupAVCIntelInstBaseELN3spv2OpE5734ELb1ELj4ELb0ELj4294967295ELj4294967295ELj4294967295EEE@Base 13
 _ZTIN5SPIRV17SPIRVInstTemplateINS_29SPIRVSubgroupAVCIntelInstBaseELN3spv2OpE5735ELb1ELj4ELb0ELj4294967295ELj4294967295ELj4294967295EEE@Base 13
 _ZTIN5SPIRV17SPIRVInstTemplateINS_29SPIRVSubgroupAVCIntelInstBaseELN3spv2OpE5736ELb1ELj4ELb0ELj4294967295ELj4294967295ELj4294967295EEE@Base 13
 _ZTIN5SPIRV17SPIRVInstTemplateINS_29SPIRVSubgroupAVCIntelInstBaseELN3spv2OpE5737ELb1ELj4ELb0ELj4294967295ELj4294967295ELj4294967295EEE@Base 13
 _ZTIN5SPIRV17SPIRVInstTemplateINS_29SPIRVSubgroupAVCIntelInstBaseELN3spv2OpE5738ELb1ELj4ELb0ELj4294967295ELj4294967295ELj4294967295EEE@Base 13
 _ZTIN5SPIRV17SPIRVInstTemplateINS_29SPIRVSubgroupAVCIntelInstBaseELN3spv2OpE5739ELb1ELj4ELb0ELj4294967295ELj4294967295ELj4294967295EEE@Base 13
 _ZTIN5SPIRV17SPIRVInstTemplateINS_29SPIRVSubgroupAVCIntelInstBaseELN3spv2OpE5740ELb1ELj4ELb0ELj4294967295ELj4294967295ELj4294967295EEE@Base 13
 _ZTIN5SPIRV17SPIRVInstTemplateINS_29SPIRVSubgroupAVCIntelInstBaseELN3spv2OpE5741ELb1ELj4ELb0ELj4294967295ELj4294967295ELj4294967295EEE@Base 13
 _ZTIN5SPIRV17SPIRVInstTemplateINS_29SPIRVSubgroupAVCIntelInstBaseELN3spv2OpE5742ELb1ELj4ELb0ELj4294967295ELj4294967295ELj4294967295EEE@Base 13
 _ZTIN5SPIRV17SPIRVInstTemplateINS_29SPIRVSubgroupAVCIntelInstBaseELN3spv2OpE5743ELb1ELj4ELb0ELj4294967295ELj4294967295ELj4294967295EEE@Base 13
 _ZTIN5SPIRV17SPIRVInstTemplateINS_29SPIRVSubgroupAVCIntelInstBaseELN3spv2OpE5744ELb1ELj4ELb0ELj4294967295ELj4294967295ELj4294967295EEE@Base 13
 _ZTIN5SPIRV17SPIRVInstTemplateINS_29SPIRVSubgroupAVCIntelInstBaseELN3spv2OpE5745ELb1ELj4ELb0ELj4294967295ELj4294967295ELj4294967295EEE@Base 13
 _ZTIN5SPIRV17SPIRVInstTemplateINS_29SPIRVSubgroupAVCIntelInstBaseELN3spv2OpE5746ELb1ELj6ELb0ELj4294967295ELj4294967295ELj4294967295EEE@Base 13
 _ZTIN5SPIRV17SPIRVInstTemplateINS_29SPIRVSubgroupAVCIntelInstBaseELN3spv2OpE5747ELb1ELj6ELb0ELj4294967295ELj4294967295ELj4294967295EEE@Base 13
 _ZTIN5SPIRV17SPIRVInstTemplateINS_29SPIRVSubgroupAVCIntelInstBaseELN3spv2OpE5748ELb1ELj6ELb0ELj4294967295ELj4294967295ELj4294967295EEE@Base 13
 _ZTIN5SPIRV17SPIRVInstTemplateINS_29SPIRVSubgroupAVCIntelInstBaseELN3spv2OpE5749ELb1ELj7ELb0ELj4294967295ELj4294967295ELj4294967295EEE@Base 13
 _ZTIN5SPIRV17SPIRVInstTemplateINS_29SPIRVSubgroupAVCIntelInstBaseELN3spv2OpE5750ELb1ELj5ELb0ELj4294967295ELj4294967295ELj4294967295EEE@Base 13
 _ZTIN5SPIRV17SPIRVInstTemplateINS_29SPIRVSubgroupAVCIntelInstBaseELN3spv2OpE5751ELb1ELj7ELb0ELj4294967295ELj4294967295ELj4294967295EEE@Base 13
 _ZTIN5SPIRV17SPIRVInstTemplateINS_29SPIRVSubgroupAVCIntelInstBaseELN3spv2OpE5752ELb1ELj4ELb0ELj4294967295ELj4294967295ELj4294967295EEE@Base 13
 _ZTIN5SPIRV17SPIRVInstTemplateINS_29SPIRVSubgroupAVCIntelInstBaseELN3spv2OpE5753ELb1ELj5ELb0ELj4294967295ELj4294967295ELj4294967295EEE@Base 13
 _ZTIN5SPIRV17SPIRVInstTemplateINS_29SPIRVSubgroupAVCIntelInstBaseELN3spv2OpE5754ELb1ELj4ELb0ELj4294967295ELj4294967295ELj4294967295EEE@Base 13
 _ZTIN5SPIRV17SPIRVInstTemplateINS_29SPIRVSubgroupAVCIntelInstBaseELN3spv2OpE5755ELb1ELj5ELb0ELj4294967295ELj4294967295ELj4294967295EEE@Base 13
 _ZTIN5SPIRV17SPIRVInstTemplateINS_29SPIRVSubgroupAVCIntelInstBaseELN3spv2OpE5756ELb1ELj5ELb0ELj4294967295ELj4294967295ELj4294967295EEE@Base 13
 _ZTIN5SPIRV17SPIRVInstTemplateINS_29SPIRVSubgroupAVCIntelInstBaseELN3spv2OpE5757ELb1ELj6ELb0ELj4294967295ELj4294967295ELj4294967295EEE@Base 13
 _ZTIN5SPIRV17SPIRVInstTemplateINS_29SPIRVSubgroupAVCIntelInstBaseELN3spv2OpE5758ELb1ELj7ELb0ELj4294967295ELj4294967295ELj4294967295EEE@Base 13
 _ZTIN5SPIRV17SPIRVInstTemplateINS_29SPIRVSubgroupAVCIntelInstBaseELN3spv2OpE5759ELb1ELj7ELb0ELj4294967295ELj4294967295ELj4294967295EEE@Base 13
 _ZTIN5SPIRV17SPIRVInstTemplateINS_29SPIRVSubgroupAVCIntelInstBaseELN3spv2OpE5760ELb1ELj8ELb0ELj4294967295ELj4294967295ELj4294967295EEE@Base 13
 _ZTIN5SPIRV17SPIRVInstTemplateINS_29SPIRVSubgroupAVCIntelInstBaseELN3spv2OpE5761ELb1ELj6ELb0ELj4294967295ELj4294967295ELj4294967295EEE@Base 13
 _ZTIN5SPIRV17SPIRVInstTemplateINS_29SPIRVSubgroupAVCIntelInstBaseELN3spv2OpE5762ELb1ELj7ELb0ELj4294967295ELj4294967295ELj4294967295EEE@Base 13
 _ZTIN5SPIRV17SPIRVInstTemplateINS_29SPIRVSubgroupAVCIntelInstBaseELN3spv2OpE5763ELb1ELj7ELb0ELj4294967295ELj4294967295ELj4294967295EEE@Base 13
 _ZTIN5SPIRV17SPIRVInstTemplateINS_29SPIRVSubgroupAVCIntelInstBaseELN3spv2OpE5764ELb1ELj8ELb0ELj4294967295ELj4294967295ELj4294967295EEE@Base 13
 _ZTIN5SPIRV17SPIRVInstTemplateINS_29SPIRVSubgroupAVCIntelInstBaseELN3spv2OpE5765ELb1ELj4ELb0ELj4294967295ELj4294967295ELj4294967295EEE@Base 13
 _ZTIN5SPIRV17SPIRVInstTemplateINS_29SPIRVSubgroupAVCIntelInstBaseELN3spv2OpE5766ELb1ELj4ELb0ELj4294967295ELj4294967295ELj4294967295EEE@Base 13
 _ZTIN5SPIRV17SPIRVInstTemplateINS_29SPIRVSubgroupAVCIntelInstBaseELN3spv2OpE5767ELb1ELj4ELb0ELj4294967295ELj4294967295ELj4294967295EEE@Base 13
 _ZTIN5SPIRV17SPIRVInstTemplateINS_29SPIRVSubgroupAVCIntelInstBaseELN3spv2OpE5768ELb1ELj4ELb0ELj4294967295ELj4294967295ELj4294967295EEE@Base 13
 _ZTIN5SPIRV17SPIRVInstTemplateINS_29SPIRVSubgroupAVCIntelInstBaseELN3spv2OpE5769ELb1ELj4ELb0ELj4294967295ELj4294967295ELj4294967295EEE@Base 13
 _ZTIN5SPIRV17SPIRVInstTemplateINS_29SPIRVSubgroupAVCIntelInstBaseELN3spv2OpE5770ELb1ELj5ELb0ELj4294967295ELj4294967295ELj4294967295EEE@Base 13
 _ZTIN5SPIRV17SPIRVInstTemplateINS_29SPIRVSubgroupAVCIntelInstBaseELN3spv2OpE5771ELb1ELj5ELb0ELj4294967295ELj4294967295ELj4294967295EEE@Base 13
 _ZTIN5SPIRV17SPIRVInstTemplateINS_29SPIRVSubgroupAVCIntelInstBaseELN3spv2OpE5772ELb1ELj5ELb0ELj4294967295ELj4294967295ELj4294967295EEE@Base 13
 _ZTIN5SPIRV17SPIRVInstTemplateINS_29SPIRVSubgroupAVCIntelInstBaseELN3spv2OpE5773ELb1ELj6ELb0ELj4294967295ELj4294967295ELj4294967295EEE@Base 13
 _ZTIN5SPIRV17SPIRVInstTemplateINS_29SPIRVSubgroupAVCIntelInstBaseELN3spv2OpE5774ELb1ELj6ELb0ELj4294967295ELj4294967295ELj4294967295EEE@Base 13
 _ZTIN5SPIRV17SPIRVInstTemplateINS_29SPIRVSubgroupAVCIntelInstBaseELN3spv2OpE5775ELb1ELj6ELb0ELj4294967295ELj4294967295ELj4294967295EEE@Base 13
 _ZTIN5SPIRV17SPIRVInstTemplateINS_29SPIRVSubgroupAVCIntelInstBaseELN3spv2OpE5776ELb1ELj5ELb0ELj4294967295ELj4294967295ELj4294967295EEE@Base 13
 _ZTIN5SPIRV17SPIRVInstTemplateINS_29SPIRVSubgroupAVCIntelInstBaseELN3spv2OpE5777ELb1ELj4ELb0ELj4294967295ELj4294967295ELj4294967295EEE@Base 13
 _ZTIN5SPIRV17SPIRVInstTemplateINS_29SPIRVSubgroupAVCIntelInstBaseELN3spv2OpE5778ELb1ELj4ELb0ELj4294967295ELj4294967295ELj4294967295EEE@Base 13
 _ZTIN5SPIRV17SPIRVInstTemplateINS_29SPIRVSubgroupAVCIntelInstBaseELN3spv2OpE5779ELb1ELj4ELb0ELj4294967295ELj4294967295ELj4294967295EEE@Base 13
 _ZTIN5SPIRV17SPIRVInstTemplateINS_29SPIRVSubgroupAVCIntelInstBaseELN3spv2OpE5780ELb1ELj4ELb0ELj4294967295ELj4294967295ELj4294967295EEE@Base 13
 _ZTIN5SPIRV17SPIRVInstTemplateINS_29SPIRVSubgroupAVCIntelInstBaseELN3spv2OpE5781ELb1ELj10ELb0ELj4294967295ELj4294967295ELj4294967295EEE@Base 13
 _ZTIN5SPIRV17SPIRVInstTemplateINS_29SPIRVSubgroupAVCIntelInstBaseELN3spv2OpE5782ELb1ELj11ELb0ELj4294967295ELj4294967295ELj4294967295EEE@Base 13
 _ZTIN5SPIRV17SPIRVInstTemplateINS_29SPIRVSubgroupAVCIntelInstBaseELN3spv2OpE5783ELb1ELj4ELb0ELj4294967295ELj4294967295ELj4294967295EEE@Base 13
 _ZTIN5SPIRV17SPIRVInstTemplateINS_29SPIRVSubgroupAVCIntelInstBaseELN3spv2OpE5784ELb1ELj4ELb0ELj4294967295ELj4294967295ELj4294967295EEE@Base 13
 _ZTIN5SPIRV17SPIRVInstTemplateINS_29SPIRVSubgroupAVCIntelInstBaseELN3spv2OpE5785ELb1ELj4ELb0ELj4294967295ELj4294967295ELj4294967295EEE@Base 13
 _ZTIN5SPIRV17SPIRVInstTemplateINS_29SPIRVSubgroupAVCIntelInstBaseELN3spv2OpE5786ELb1ELj6ELb0ELj4294967295ELj4294967295ELj4294967295EEE@Base 13
 _ZTIN5SPIRV17SPIRVInstTemplateINS_29SPIRVSubgroupAVCIntelInstBaseELN3spv2OpE5787ELb1ELj7ELb0ELj4294967295ELj4294967295ELj4294967295EEE@Base 13
 _ZTIN5SPIRV17SPIRVInstTemplateINS_29SPIRVSubgroupAVCIntelInstBaseELN3spv2OpE5788ELb1ELj6ELb0ELj4294967295ELj4294967295ELj4294967295EEE@Base 13
 _ZTIN5SPIRV17SPIRVInstTemplateINS_29SPIRVSubgroupAVCIntelInstBaseELN3spv2OpE5789ELb1ELj7ELb0ELj4294967295ELj4294967295ELj4294967295EEE@Base 13
 _ZTIN5SPIRV17SPIRVInstTemplateINS_29SPIRVSubgroupAVCIntelInstBaseELN3spv2OpE5790ELb1ELj4ELb0ELj4294967295ELj4294967295ELj4294967295EEE@Base 13
 _ZTIN5SPIRV17SPIRVInstTemplateINS_29SPIRVSubgroupAVCIntelInstBaseELN3spv2OpE5791ELb1ELj4ELb0ELj4294967295ELj4294967295ELj4294967295EEE@Base 13
 _ZTIN5SPIRV17SPIRVInstTemplateINS_29SPIRVSubgroupAVCIntelInstBaseELN3spv2OpE5792ELb1ELj9ELb0ELj4294967295ELj4294967295ELj4294967295EEE@Base 13
 _ZTIN5SPIRV17SPIRVInstTemplateINS_29SPIRVSubgroupAVCIntelInstBaseELN3spv2OpE5795ELb1ELj5ELb0ELj4294967295ELj4294967295ELj4294967295EEE@Base 13
 _ZTIN5SPIRV17SPIRVInstTemplateINS_29SPIRVSubgroupAVCIntelInstBaseELN3spv2OpE5796ELb1ELj4ELb0ELj4294967295ELj4294967295ELj4294967295EEE@Base 13
 _ZTIN5SPIRV17SPIRVInstTemplateINS_29SPIRVSubgroupAVCIntelInstBaseELN3spv2OpE5797ELb1ELj5ELb0ELj4294967295ELj4294967295ELj4294967295EEE@Base 13
 _ZTIN5SPIRV17SPIRVInstTemplateINS_29SPIRVSubgroupAVCIntelInstBaseELN3spv2OpE5800ELb1ELj4ELb0ELj4294967295ELj4294967295ELj4294967295EEE@Base 13
 _ZTIN5SPIRV17SPIRVInstTemplateINS_29SPIRVSubgroupAVCIntelInstBaseELN3spv2OpE5801ELb1ELj5ELb0ELj4294967295ELj4294967295ELj4294967295EEE@Base 13
 _ZTIN5SPIRV17SPIRVInstTemplateINS_29SPIRVSubgroupAVCIntelInstBaseELN3spv2OpE5802ELb1ELj5ELb0ELj4294967295ELj4294967295ELj4294967295EEE@Base 13
 _ZTIN5SPIRV17SPIRVInstTemplateINS_29SPIRVSubgroupAVCIntelInstBaseELN3spv2OpE5804ELb1ELj6ELb0ELj4294967295ELj4294967295ELj4294967295EEE@Base 13
 _ZTIN5SPIRV17SPIRVInstTemplateINS_29SPIRVSubgroupAVCIntelInstBaseELN3spv2OpE5805ELb1ELj7ELb0ELj4294967295ELj4294967295ELj4294967295EEE@Base 13
 _ZTIN5SPIRV17SPIRVInstTemplateINS_29SPIRVSubgroupAVCIntelInstBaseELN3spv2OpE5806ELb1ELj6ELb0ELj4294967295ELj4294967295ELj4294967295EEE@Base 13
 _ZTIN5SPIRV17SPIRVInstTemplateINS_29SPIRVSubgroupAVCIntelInstBaseELN3spv2OpE5807ELb1ELj7ELb0ELj4294967295ELj4294967295ELj4294967295EEE@Base 13
 _ZTIN5SPIRV17SPIRVInstTemplateINS_29SPIRVSubgroupAVCIntelInstBaseELN3spv2OpE5808ELb1ELj4ELb0ELj4294967295ELj4294967295ELj4294967295EEE@Base 13
 _ZTIN5SPIRV17SPIRVInstTemplateINS_29SPIRVSubgroupAVCIntelInstBaseELN3spv2OpE5816ELb1ELj4ELb0ELj4294967295ELj4294967295ELj4294967295EEE@Base 13
 _ZTIN5SPIRV17SPIRVInstTemplateINS_30SPIRVGroupNonUniformBallotInstELN3spv2OpE337ELb1ELj6ELb0ELj4294967295ELj4294967295ELj4294967295EEE@Base 13
 _ZTIN5SPIRV17SPIRVInstTemplateINS_30SPIRVGroupNonUniformBallotInstELN3spv2OpE338ELb1ELj5ELb0ELj4294967295ELj4294967295ELj4294967295EEE@Base 13
 _ZTIN5SPIRV17SPIRVInstTemplateINS_30SPIRVGroupNonUniformBallotInstELN3spv2OpE339ELb1ELj5ELb0ELj4294967295ELj4294967295ELj4294967295EEE@Base 13
 _ZTIN5SPIRV17SPIRVInstTemplateINS_30SPIRVGroupNonUniformBallotInstELN3spv2OpE340ELb1ELj5ELb0ELj4294967295ELj4294967295ELj4294967295EEE@Base 13
 _ZTIN5SPIRV17SPIRVInstTemplateINS_30SPIRVGroupNonUniformBallotInstELN3spv2OpE341ELb1ELj6ELb0ELj4294967295ELj4294967295ELj4294967295EEE@Base 13
 _ZTIN5SPIRV17SPIRVInstTemplateINS_30SPIRVGroupNonUniformBallotInstELN3spv2OpE342ELb1ELj6ELb0ELj1ELj4294967295ELj4294967295EEE@Base 13
 _ZTIN5SPIRV17SPIRVInstTemplateINS_30SPIRVGroupNonUniformBallotInstELN3spv2OpE343ELb1ELj5ELb0ELj4294967295ELj4294967295ELj4294967295EEE@Base 13
 _ZTIN5SPIRV17SPIRVInstTemplateINS_30SPIRVGroupNonUniformBallotInstELN3spv2OpE344ELb1ELj5ELb0ELj4294967295ELj4294967295ELj4294967295EEE@Base 13
 _ZTIN5SPIRV17SPIRVInstTemplateINS_31SPIRVGroupNonUniformShuffleInstELN3spv2OpE345ELb1ELj6ELb0ELj4294967295ELj4294967295ELj4294967295EEE@Base 13
 _ZTIN5SPIRV17SPIRVInstTemplateINS_31SPIRVGroupNonUniformShuffleInstELN3spv2OpE346ELb1ELj6ELb0ELj4294967295ELj4294967295ELj4294967295EEE@Base 13
 _ZTIN5SPIRV17SPIRVInstTemplateINS_33SPIRVGroupNonUniformRotateKHRInstELN3spv2OpE4431ELb1ELj6ELb1ELj4294967295ELj4294967295ELj4294967295EEE@Base 15
 _ZTIN5SPIRV17SPIRVInstTemplateINS_33SPIRVSubgroupShuffleINTELInstBaseELN3spv2OpE5571ELb1ELj5ELb0ELj4294967295ELj4294967295ELj4294967295EEE@Base 13
 _ZTIN5SPIRV17SPIRVInstTemplateINS_33SPIRVSubgroupShuffleINTELInstBaseELN3spv2OpE5572ELb1ELj6ELb0ELj4294967295ELj4294967295ELj4294967295EEE@Base 13
 _ZTIN5SPIRV17SPIRVInstTemplateINS_33SPIRVSubgroupShuffleINTELInstBaseELN3spv2OpE5573ELb1ELj6ELb0ELj4294967295ELj4294967295ELj4294967295EEE@Base 13
 _ZTIN5SPIRV17SPIRVInstTemplateINS_33SPIRVSubgroupShuffleINTELInstBaseELN3spv2OpE5574ELb1ELj5ELb0ELj4294967295ELj4294967295ELj4294967295EEE@Base 13
 _ZTIN5SPIRV17SPIRVInstTemplateINS_34SPIRVGroupNonUniformArithmeticInstELN3spv2OpE349ELb1ELj6ELb1ELj1ELj4294967295ELj4294967295EEE@Base 13
 _ZTIN5SPIRV17SPIRVInstTemplateINS_34SPIRVGroupNonUniformArithmeticInstELN3spv2OpE350ELb1ELj6ELb1ELj1ELj4294967295ELj4294967295EEE@Base 13
 _ZTIN5SPIRV17SPIRVInstTemplateINS_34SPIRVGroupNonUniformArithmeticInstELN3spv2OpE351ELb1ELj6ELb1ELj1ELj4294967295ELj4294967295EEE@Base 13
 _ZTIN5SPIRV17SPIRVInstTemplateINS_34SPIRVGroupNonUniformArithmeticInstELN3spv2OpE352ELb1ELj6ELb1ELj1ELj4294967295ELj4294967295EEE@Base 13
 _ZTIN5SPIRV17SPIRVInstTemplateINS_34SPIRVGroupNonUniformArithmeticInstELN3spv2OpE353ELb1ELj6ELb1ELj1ELj4294967295ELj4294967295EEE@Base 13
 _ZTIN5SPIRV17SPIRVInstTemplateINS_34SPIRVGroupNonUniformArithmeticInstELN3spv2OpE354ELb1ELj6ELb1ELj1ELj4294967295ELj4294967295EEE@Base 13
 _ZTIN5SPIRV17SPIRVInstTemplateINS_34SPIRVGroupNonUniformArithmeticInstELN3spv2OpE355ELb1ELj6ELb1ELj1ELj4294967295ELj4294967295EEE@Base 13
 _ZTIN5SPIRV17SPIRVInstTemplateINS_34SPIRVGroupNonUniformArithmeticInstELN3spv2OpE356ELb1ELj6ELb1ELj1ELj4294967295ELj4294967295EEE@Base 13
 _ZTIN5SPIRV17SPIRVInstTemplateINS_34SPIRVGroupNonUniformArithmeticInstELN3spv2OpE357ELb1ELj6ELb1ELj1ELj4294967295ELj4294967295EEE@Base 13
 _ZTIN5SPIRV17SPIRVInstTemplateINS_34SPIRVGroupNonUniformArithmeticInstELN3spv2OpE358ELb1ELj6ELb1ELj1ELj4294967295ELj4294967295EEE@Base 13
 _ZTIN5SPIRV17SPIRVInstTemplateINS_34SPIRVGroupNonUniformArithmeticInstELN3spv2OpE359ELb1ELj6ELb1ELj1ELj4294967295ELj4294967295EEE@Base 13
 _ZTIN5SPIRV17SPIRVInstTemplateINS_34SPIRVGroupNonUniformArithmeticInstELN3spv2OpE360ELb1ELj6ELb1ELj1ELj4294967295ELj4294967295EEE@Base 13
 _ZTIN5SPIRV17SPIRVInstTemplateINS_34SPIRVGroupNonUniformArithmeticInstELN3spv2OpE361ELb1ELj6ELb1ELj1ELj4294967295ELj4294967295EEE@Base 13
 _ZTIN5SPIRV17SPIRVInstTemplateINS_34SPIRVGroupNonUniformArithmeticInstELN3spv2OpE362ELb1ELj6ELb1ELj1ELj4294967295ELj4294967295EEE@Base 13
 _ZTIN5SPIRV17SPIRVInstTemplateINS_34SPIRVGroupNonUniformArithmeticInstELN3spv2OpE363ELb1ELj6ELb1ELj1ELj4294967295ELj4294967295EEE@Base 13
 _ZTIN5SPIRV17SPIRVInstTemplateINS_34SPIRVGroupNonUniformArithmeticInstELN3spv2OpE364ELb1ELj6ELb1ELj1ELj4294967295ELj4294967295EEE@Base 13
 _ZTIN5SPIRV17SPIRVInstTemplateINS_34SPIRVSubgroupAVCIntelInstBaseIntraELN3spv2OpE5719ELb1ELj5ELb0ELj4294967295ELj4294967295ELj4294967295EEE@Base 13
 _ZTIN5SPIRV17SPIRVInstTemplateINS_34SPIRVSubgroupAVCIntelInstBaseIntraELN3spv2OpE5725ELb1ELj5ELb0ELj4294967295ELj4294967295ELj4294967295EEE@Base 13
 _ZTIN5SPIRV17SPIRVInstTemplateINS_34SPIRVSubgroupAVCIntelInstBaseIntraELN3spv2OpE5726ELb1ELj3ELb0ELj4294967295ELj4294967295ELj4294967295EEE@Base 13
 _ZTIN5SPIRV17SPIRVInstTemplateINS_34SPIRVSubgroupAVCIntelInstBaseIntraELN3spv2OpE5793ELb1ELj11ELb0ELj4294967295ELj4294967295ELj4294967295EEE@Base 13
 _ZTIN5SPIRV17SPIRVInstTemplateINS_34SPIRVSubgroupAVCIntelInstBaseIntraELN3spv2OpE5798ELb1ELj7ELb0ELj4294967295ELj4294967295ELj4294967295EEE@Base 13
 _ZTIN5SPIRV17SPIRVInstTemplateINS_34SPIRVSubgroupAVCIntelInstBaseIntraELN3spv2OpE5803ELb1ELj5ELb0ELj4294967295ELj4294967295ELj4294967295EEE@Base 13
 _ZTIN5SPIRV17SPIRVInstTemplateINS_34SPIRVSubgroupAVCIntelInstBaseIntraELN3spv2OpE5809ELb1ELj4ELb0ELj4294967295ELj4294967295ELj4294967295EEE@Base 13
 _ZTIN5SPIRV17SPIRVInstTemplateINS_34SPIRVSubgroupAVCIntelInstBaseIntraELN3spv2OpE5810ELb1ELj4ELb0ELj4294967295ELj4294967295ELj4294967295EEE@Base 13
 _ZTIN5SPIRV17SPIRVInstTemplateINS_34SPIRVSubgroupAVCIntelInstBaseIntraELN3spv2OpE5812ELb1ELj4ELb0ELj4294967295ELj4294967295ELj4294967295EEE@Base 13
 _ZTIN5SPIRV17SPIRVInstTemplateINS_34SPIRVSubgroupAVCIntelInstBaseIntraELN3spv2OpE5814ELb1ELj4ELb0ELj4294967295ELj4294967295ELj4294967295EEE@Base 13
 _ZTIN5SPIRV17SPIRVInstTemplateINS_34SPIRVSubgroupAVCIntelInstBaseIntraELN3spv2OpE5815ELb1ELj4ELb0ELj4294967295ELj4294967295ELj4294967295EEE@Base 13
 _ZTIN5SPIRV17SPIRVInstTemplateINS_35SPIRVSubgroupAVCIntelInstBaseChromaELN3spv2OpE5727ELb1ELj3ELb0ELj4294967295ELj4294967295ELj4294967295EEE@Base 13
 _ZTIN5SPIRV17SPIRVInstTemplateINS_35SPIRVSubgroupAVCIntelInstBaseChromaELN3spv2OpE5794ELb1ELj14ELb0ELj4294967295ELj4294967295ELj4294967295EEE@Base 13
 _ZTIN5SPIRV17SPIRVInstTemplateINS_35SPIRVSubgroupAVCIntelInstBaseChromaELN3spv2OpE5799ELb1ELj5ELb0ELj4294967295ELj4294967295ELj4294967295EEE@Base 13
 _ZTIN5SPIRV17SPIRVInstTemplateINS_35SPIRVSubgroupAVCIntelInstBaseChromaELN3spv2OpE5811ELb1ELj4ELb0ELj4294967295ELj4294967295ELj4294967295EEE@Base 13
 _ZTIN5SPIRV17SPIRVInstTemplateINS_35SPIRVSubgroupAVCIntelInstBaseChromaELN3spv2OpE5813ELb1ELj4ELb0ELj4294967295ELj4294967295ELj4294967295EEE@Base 13
 _ZTIN5SPIRV17SPIRVInstTemplateINS_37SPIRVVariableLengthArrayINTELInstBaseELN3spv2OpE5818ELb1ELj4ELb0ELj4294967295ELj4294967295ELj4294967295EEE@Base 13
 _ZTIN5SPIRV17SPIRVInstTemplateINS_37SPIRVVariableLengthArrayINTELInstBaseELN3spv2OpE5819ELb1ELj3ELb0ELj4294967295ELj4294967295ELj4294967295EEE@Base 13
 _ZTIN5SPIRV17SPIRVInstTemplateINS_37SPIRVVariableLengthArrayINTELInstBaseELN3spv2OpE5820ELb0ELj2ELb0ELj4294967295ELj4294967295ELj4294967295EEE@Base 13
 _ZTIN5SPIRV17SPIRVInstTemplateINS_38SPIRVGroupUniformArithmeticKHRInstBaseELN3spv2OpE6401ELb1ELj6ELb0ELj1ELj4294967295ELj4294967295EEE@Base 15
 _ZTIN5SPIRV17SPIRVInstTemplateINS_38SPIRVGroupUniformArithmeticKHRInstBaseELN3spv2OpE6402ELb1ELj6ELb0ELj1ELj4294967295ELj4294967295EEE@Base 15
 _ZTIN5SPIRV17SPIRVInstTemplateINS_38SPIRVGroupUniformArithmeticKHRInstBaseELN3spv2OpE6403ELb1ELj6ELb0ELj1ELj4294967295ELj4294967295EEE@Base 15
 _ZTIN5SPIRV17SPIRVInstTemplateINS_38SPIRVGroupUniformArithmeticKHRInstBaseELN3spv2OpE6404ELb1ELj6ELb0ELj1ELj4294967295ELj4294967295EEE@Base 15
 _ZTIN5SPIRV17SPIRVInstTemplateINS_38SPIRVGroupUniformArithmeticKHRInstBaseELN3spv2OpE6405ELb1ELj6ELb0ELj1ELj4294967295ELj4294967295EEE@Base 15
 _ZTIN5SPIRV17SPIRVInstTemplateINS_38SPIRVGroupUniformArithmeticKHRInstBaseELN3spv2OpE6406ELb1ELj6ELb0ELj1ELj4294967295ELj4294967295EEE@Base 15
 _ZTIN5SPIRV17SPIRVInstTemplateINS_38SPIRVGroupUniformArithmeticKHRInstBaseELN3spv2OpE6407ELb1ELj6ELb0ELj1ELj4294967295ELj4294967295EEE@Base 15
 _ZTIN5SPIRV17SPIRVInstTemplateINS_38SPIRVGroupUniformArithmeticKHRInstBaseELN3spv2OpE6408ELb1ELj6ELb0ELj1ELj4294967295ELj4294967295EEE@Base 15
 _ZTIN5SPIRV17SPIRVInstTemplateINS_38SPIRVSubgroupImageBlockIOINTELInstBaseELN3spv2OpE5577ELb1ELj5ELb0ELj4294967295ELj4294967295ELj4294967295EEE@Base 13
 _ZTIN5SPIRV17SPIRVInstTemplateINS_38SPIRVSubgroupImageBlockIOINTELInstBaseELN3spv2OpE5578ELb0ELj4ELb0ELj4294967295ELj4294967295ELj4294967295EEE@Base 13
 _ZTIN5SPIRV17SPIRVInstTemplateINS_39SPIRVGroupNonUniformShuffleRelativeInstELN3spv2OpE347ELb1ELj6ELb0ELj4294967295ELj4294967295ELj4294967295EEE@Base 13
 _ZTIN5SPIRV17SPIRVInstTemplateINS_39SPIRVGroupNonUniformShuffleRelativeInstELN3spv2OpE348ELb1ELj6ELb0ELj4294967295ELj4294967295ELj4294967295EEE@Base 13
 _ZTIN5SPIRV17SPIRVInstTemplateINS_39SPIRVSubgroupBufferBlockIOINTELInstBaseELN3spv2OpE5575ELb1ELj4ELb0ELj4294967295ELj4294967295ELj4294967295EEE@Base 13
 _ZTIN5SPIRV17SPIRVInstTemplateINS_39SPIRVSubgroupBufferBlockIOINTELInstBaseELN3spv2OpE5576ELb0ELj3ELb0ELj4294967295ELj4294967295ELj4294967295EEE@Base 13
 _ZTIN5SPIRV17SPIRVInstTemplateINS_43SPIRVSubgroupImageMediaBlockIOINTELInstBaseELN3spv2OpE5580ELb1ELj7ELb0ELj4294967295ELj4294967295ELj4294967295EEE@Base 13
 _ZTIN5SPIRV17SPIRVInstTemplateINS_43SPIRVSubgroupImageMediaBlockIOINTELInstBaseELN3spv2OpE5581ELb0ELj6ELb0ELj4294967295ELj4294967295ELj4294967295EEE@Base 13
 _ZTIN5SPIRV17SPIRVMemoryAccessE@Base 13
 _ZTIN5SPIRV17SPIRVPipeInstBaseE@Base 13
 _ZTIN5SPIRV17SPIRVTypeFunctionE@Base 13
 _ZTIN5SPIRV18OCLTypeToSPIRVBaseE@Base 13
 _ZTIN5SPIRV18SPIRVAssumeTrueKHRE@Base 13
 _ZTIN5SPIRV18SPIRVConstantEmptyILN3spv2OpE1EEE@Base 13
 _ZTIN5SPIRV18SPIRVConstantEmptyILN3spv2OpE41EEE@Base 13
 _ZTIN5SPIRV18SPIRVConstantEmptyILN3spv2OpE42EEE@Base 13
 _ZTIN5SPIRV18SPIRVConstantEmptyILN3spv2OpE46EEE@Base 13
 _ZTIN5SPIRV18SPIRVConstantEmptyILN3spv2OpE48EEE@Base 13
 _ZTIN5SPIRV18SPIRVConstantEmptyILN3spv2OpE49EEE@Base 13
 _ZTIN5SPIRV18SPIRVExecutionModeE@Base 13
 _ZTIN5SPIRV18SPIRVExtInstImportE@Base 13
 _ZTIN5SPIRV18SPIRVGroupDecorateE@Base 13
 _ZTIN5SPIRV18SPIRVGroupInstBaseE@Base 13
 _ZTIN5SPIRV18SPIRVImageInstBaseE@Base 13
 _ZTIN5SPIRV18SPIRVInstNoOperandILN3spv2OpE253EEE@Base 13
 _ZTIN5SPIRV18SPIRVInstNoOperandILN3spv2OpE255EEE@Base 13
 _ZTIN5SPIRV18SPIRVLowerBoolBaseE@Base 13
 _ZTIN5SPIRV18SPIRVLowerBoolPassE@Base 15
 _ZTIN5SPIRV18SPIRVToOCL12LegacyE@Base 13
 _ZTIN5SPIRV18SPIRVToOCL20LegacyE@Base 13
 _ZTIN5SPIRV19SPIRVAsmTargetINTELE@Base 13
 _ZTIN5SPIRV19SPIRVAtomicInstBaseE@Base 13
 _ZTIN5SPIRV19SPIRVControlBarrierE@Base 13
 _ZTIN5SPIRV19SPIRVDevEnqInstBaseE@Base 13
 _ZTIN5SPIRV19SPIRVGroupAsyncCopyE@Base 13
 _ZTIN5SPIRV19SPIRVMemberDecorateE@Base 13
 _ZTIN5SPIRV19SPIRVSelectionMergeE@Base 13
 _ZTIN5SPIRV19SPIRVTypeTokenINTELE@Base 13
 _ZTIN5SPIRV20OCLTypeToSPIRVLegacyE@Base 13
 _ZTIN5SPIRV20SPIRVAccessChainBaseE@Base 13
 _ZTIN5SPIRV20SPIRVAtomicStoreInstE@Base 13
 _ZTIN5SPIRV20SPIRVConstantSamplerE@Base 13
 _ZTIN5SPIRV20SPIRVCopyMemorySizedE@Base 13
 _ZTIN5SPIRV20SPIRVDecorateGenericE@Base 13
 _ZTIN5SPIRV20SPIRVDecorationGroupE@Base 13
 _ZTIN5SPIRV20SPIRVEntryOpCodeOnlyILN3spv2OpE56EEE@Base 13
 _ZTIN5SPIRV20SPIRVLowerBoolLegacyE@Base 13
 _ZTIN5SPIRV20SPIRVModuleProcessedE@Base 13
 _ZTIN5SPIRV20SPIRVSourceExtensionE@Base 13
 _ZTIN5SPIRV20SPIRVTypeDeviceEventE@Base 13
 _ZTIN5SPIRV20SPIRVTypePipeStorageE@Base 13
 _ZTIN5SPIRV21BuiltinFuncMangleInfoE@Base 13
 _ZTIN5SPIRV21SPIRVComplexFloatInstILN3spv2OpE6415EEE@Base 15
 _ZTIN5SPIRV21SPIRVComplexFloatInstILN3spv2OpE6416EEE@Base 15
 _ZTIN5SPIRV21SPIRVEntryNoIdGenericE@Base 13
 _ZTIN5SPIRV21SPIRVInstTemplateBaseE@Base 13
 _ZTIN5SPIRV21SPIRVLoopControlINTELE@Base 13
 _ZTIN5SPIRV21SPIRVLowerMemmoveBaseE@Base 13
 _ZTIN5SPIRV21SPIRVTypeSampledImageE@Base 13
 _ZTIN5SPIRV22PreprocessMetadataBaseE@Base 13
 _ZTIN5SPIRV22SPIRVAnnotationGenericE@Base 13
 _ZTIN5SPIRV22SPIRVArbFloatIntelInstE@Base 13
 _ZTIN5SPIRV22SPIRVAtomicFAddEXTInstE@Base 13
 _ZTIN5SPIRV22SPIRVBranchConditionalE@Base 13
 _ZTIN5SPIRV22SPIRVExpectKHRInstBaseE@Base 13
 _ZTIN5SPIRV22SPIRVFunctionParameterE@Base 13
 _ZTIN5SPIRV22SPIRVMatrixTimesMatrixE@Base 13
 _ZTIN5SPIRV22SPIRVMatrixTimesScalarE@Base 13
 _ZTIN5SPIRV22SPIRVMatrixTimesVectorE@Base 13
 _ZTIN5SPIRV22SPIRVOpaqueGenericTypeILN3spv2OpE34EEE@Base 13
 _ZTIN5SPIRV22SPIRVOpaqueGenericTypeILN3spv2OpE36EEE@Base 13
 _ZTIN5SPIRV22SPIRVTypeOpaqueGenericE@Base 13
 _ZTIN5SPIRV22SPIRVTypeVmeImageINTELE@Base 13
 _ZTIN5SPIRV22SPIRVVectorShuffleBaseE@Base 13
 _ZTIN5SPIRV22SPIRVVectorTimesMatrixE@Base 13
 _ZTIN5SPIRV22SPIRVVectorTimesScalarE@Base 13
 _ZTIN5SPIRV23SPIRVAccessChainGenericILN3spv2OpE65ELj4EEE@Base 13
 _ZTIN5SPIRV23SPIRVAccessChainGenericILN3spv2OpE66ELj4EEE@Base 13
 _ZTIN5SPIRV23SPIRVAccessChainGenericILN3spv2OpE67ELj5EEE@Base 13
 _ZTIN5SPIRV23SPIRVAccessChainGenericILN3spv2OpE70ELj5EEE@Base 13
 _ZTIN5SPIRV23SPIRVCompositeConstructE@Base 13
 _ZTIN5SPIRV23SPIRVEntryUnimplementedILN3spv2OpE100EEE@Base 13
 _ZTIN5SPIRV23SPIRVEntryUnimplementedILN3spv2OpE116EEE@Base 13
 _ZTIN5SPIRV23SPIRVEntryUnimplementedILN3spv2OpE147EEE@Base 13
 _ZTIN5SPIRV23SPIRVEntryUnimplementedILN3spv2OpE149EEE@Base 13
 _ZTIN5SPIRV23SPIRVEntryUnimplementedILN3spv2OpE150EEE@Base 13
 _ZTIN5SPIRV23SPIRVEntryUnimplementedILN3spv2OpE151EEE@Base 13
 _ZTIN5SPIRV23SPIRVEntryUnimplementedILN3spv2OpE152EEE@Base 13
 _ZTIN5SPIRV23SPIRVEntryUnimplementedILN3spv2OpE207EEE@Base 13
 _ZTIN5SPIRV23SPIRVEntryUnimplementedILN3spv2OpE208EEE@Base 13
 _ZTIN5SPIRV23SPIRVEntryUnimplementedILN3spv2OpE209EEE@Base 13
 _ZTIN5SPIRV23SPIRVEntryUnimplementedILN3spv2OpE210EEE@Base 13
 _ZTIN5SPIRV23SPIRVEntryUnimplementedILN3spv2OpE211EEE@Base 13
 _ZTIN5SPIRV23SPIRVEntryUnimplementedILN3spv2OpE212EEE@Base 13
 _ZTIN5SPIRV23SPIRVEntryUnimplementedILN3spv2OpE213EEE@Base 13
 _ZTIN5SPIRV23SPIRVEntryUnimplementedILN3spv2OpE214EEE@Base 13
 _ZTIN5SPIRV23SPIRVEntryUnimplementedILN3spv2OpE215EEE@Base 13
 _ZTIN5SPIRV23SPIRVEntryUnimplementedILN3spv2OpE218EEE@Base 13
 _ZTIN5SPIRV23SPIRVEntryUnimplementedILN3spv2OpE219EEE@Base 13
 _ZTIN5SPIRV23SPIRVEntryUnimplementedILN3spv2OpE220EEE@Base 13
 _ZTIN5SPIRV23SPIRVEntryUnimplementedILN3spv2OpE221EEE@Base 13
 _ZTIN5SPIRV23SPIRVEntryUnimplementedILN3spv2OpE252EEE@Base 13
 _ZTIN5SPIRV23SPIRVEntryUnimplementedILN3spv2OpE29EEE@Base 13
 _ZTIN5SPIRV23SPIRVEntryUnimplementedILN3spv2OpE2EEE@Base 13
 _ZTIN5SPIRV23SPIRVEntryUnimplementedILN3spv2OpE305EEE@Base 13
 _ZTIN5SPIRV23SPIRVEntryUnimplementedILN3spv2OpE306EEE@Base 13
 _ZTIN5SPIRV23SPIRVEntryUnimplementedILN3spv2OpE307EEE@Base 13
 _ZTIN5SPIRV23SPIRVEntryUnimplementedILN3spv2OpE308EEE@Base 13
 _ZTIN5SPIRV23SPIRVEntryUnimplementedILN3spv2OpE309EEE@Base 13
 _ZTIN5SPIRV23SPIRVEntryUnimplementedILN3spv2OpE310EEE@Base 13
 _ZTIN5SPIRV23SPIRVEntryUnimplementedILN3spv2OpE311EEE@Base 13
 _ZTIN5SPIRV23SPIRVEntryUnimplementedILN3spv2OpE312EEE@Base 13
 _ZTIN5SPIRV23SPIRVEntryUnimplementedILN3spv2OpE313EEE@Base 13
 _ZTIN5SPIRV23SPIRVEntryUnimplementedILN3spv2OpE314EEE@Base 13
 _ZTIN5SPIRV23SPIRVEntryUnimplementedILN3spv2OpE315EEE@Base 13
 _ZTIN5SPIRV23SPIRVEntryUnimplementedILN3spv2OpE316EEE@Base 13
 _ZTIN5SPIRV23SPIRVEntryUnimplementedILN3spv2OpE317EEE@Base 13
 _ZTIN5SPIRV23SPIRVEntryUnimplementedILN3spv2OpE60EEE@Base 13
 _ZTIN5SPIRV23SPIRVEntryUnimplementedILN3spv2OpE68EEE@Base 13
 _ZTIN5SPIRV23SPIRVEntryUnimplementedILN3spv2OpE89EEE@Base 13
 _ZTIN5SPIRV23SPIRVEntryUnimplementedILN3spv2OpE90EEE@Base 13
 _ZTIN5SPIRV23SPIRVEntryUnimplementedILN3spv2OpE91EEE@Base 13
 _ZTIN5SPIRV23SPIRVEntryUnimplementedILN3spv2OpE92EEE@Base 13
 _ZTIN5SPIRV23SPIRVEntryUnimplementedILN3spv2OpE93EEE@Base 13
 _ZTIN5SPIRV23SPIRVEntryUnimplementedILN3spv2OpE94EEE@Base 13
 _ZTIN5SPIRV23SPIRVEntryUnimplementedILN3spv2OpE95EEE@Base 13
 _ZTIN5SPIRV23SPIRVEntryUnimplementedILN3spv2OpE96EEE@Base 13
 _ZTIN5SPIRV23SPIRVEntryUnimplementedILN3spv2OpE97EEE@Base 13
 _ZTIN5SPIRV23SPIRVLowerConstExprBaseE@Base 13
 _ZTIN5SPIRV23SPIRVLowerMemmoveLegacyE@Base 13
 _ZTIN5SPIRV23SPIRVLowerOCLBlocksBaseE@Base 15
 _ZTIN5SPIRV23SPIRVRegularizeLLVMBaseE@Base 13
 _ZTIN5SPIRV23SPIRVSpecConstantOpBaseE@Base 14
 _ZTIN5SPIRV23SPIRVTypeForwardPointerE@Base 13
 _ZTIN5SPIRV24PreprocessMetadataLegacyE@Base 13
 _ZTIN5SPIRV24SPIRVCompositeInsertBaseE@Base 13
 _ZTIN5SPIRV24SPIRVConstantPipeStorageE@Base 13
 _ZTIN5SPIRV24SPIRVDecorateLinkageAttrE@Base 13
 _ZTIN5SPIRV24SPIRVDecorateStrAttrBaseILN3spv10DecorationE5635EEE@Base 13
 _ZTIN5SPIRV24SPIRVDecorateStrAttrBaseILN3spv10DecorationE5826EEE@Base 13
 _ZTIN5SPIRV24SPIRVFixedPointIntelInstE@Base 13
 _ZTIN5SPIRV24SPIRVFunctionCallGenericILN3spv2OpE12ELj5EEE@Base 13
 _ZTIN5SPIRV24SPIRVFunctionCallGenericILN3spv2OpE5601ELj4EEE@Base 13
 _ZTIN5SPIRV24SPIRVFunctionCallGenericILN3spv2OpE57ELj4EEE@Base 13
 _ZTIN5SPIRV24SPIRVGroupMemberDecorateE@Base 13
#MISSING: 15# _ZTIN5SPIRV24SPIRVLowerSPIRBlocksBaseE@Base 13
 _ZTIN5SPIRV24SPIRVPipeStorageInstBaseE@Base 13
 _ZTIN5SPIRV24SPIRVVectorInsertDynamicE@Base 13
 _ZTIN5SPIRV25SPIRVAtomicFMinMaxEXTBaseE@Base 13
 _ZTIN5SPIRV25SPIRVCompositeExtractBaseE@Base 13
 _ZTIN5SPIRV25SPIRVDecorateNoAliasINTELE@Base 14
 _ZTIN5SPIRV25SPIRVFPGARegINTELInstBaseE@Base 13
 _ZTIN5SPIRV25SPIRVGroupDecorateGenericE@Base 13
 _ZTIN5SPIRV25SPIRVJointMatrixINTELInstE@Base 14
 _ZTIN5SPIRV25SPIRVLowerConstExprLegacyE@Base 13
 _ZTIN5SPIRV25SPIRVLowerOCLBlocksLegacyE@Base 15
 _ZTIN5SPIRV25SPIRVRegularizeLLVMLegacyE@Base 13
 _ZTIN5SPIRV25SPIRVSubgroupAvcINTELTypeILN3spv2OpE5701EEE@Base 13
 _ZTIN5SPIRV25SPIRVSubgroupAvcINTELTypeILN3spv2OpE5702EEE@Base 13
 _ZTIN5SPIRV25SPIRVSubgroupAvcINTELTypeILN3spv2OpE5703EEE@Base 13
 _ZTIN5SPIRV25SPIRVSubgroupAvcINTELTypeILN3spv2OpE5704EEE@Base 13
 _ZTIN5SPIRV25SPIRVSubgroupAvcINTELTypeILN3spv2OpE5705EEE@Base 13
 _ZTIN5SPIRV25SPIRVSubgroupAvcINTELTypeILN3spv2OpE5706EEE@Base 13
 _ZTIN5SPIRV25SPIRVSubgroupAvcINTELTypeILN3spv2OpE5707EEE@Base 13
 _ZTIN5SPIRV25SPIRVSubgroupAvcINTELTypeILN3spv2OpE5708EEE@Base 13
 _ZTIN5SPIRV25SPIRVSubgroupAvcINTELTypeILN3spv2OpE5709EEE@Base 13
 _ZTIN5SPIRV25SPIRVSubgroupAvcINTELTypeILN3spv2OpE5710EEE@Base 13
 _ZTIN5SPIRV25SPIRVSubgroupAvcINTELTypeILN3spv2OpE5711EEE@Base 13
 _ZTIN5SPIRV25SPIRVSubgroupAvcINTELTypeILN3spv2OpE5712EEE@Base 13
 _ZTIN5SPIRV25SPIRVTypeJointMatrixINTELE@Base 14
 _ZTIN5SPIRV25SPIRVTypeSubgroupAvcINTELE@Base 13
 _ZTIN5SPIRV25SPIRVVectorExtractDynamicE@Base 13
 _ZTIN5SPIRV26SPIRVConstantCompositeBaseILN3spv2OpE44EEE@Base 13
 _ZTIN5SPIRV26SPIRVConstantCompositeBaseILN3spv2OpE51EEE@Base 13
 _ZTIN5SPIRV26SPIRVDecorateInitModeINTELE@Base 14
#MISSING: 15# _ZTIN5SPIRV26SPIRVLowerSPIRBlocksLegacyE@Base 13
 _ZTIN5SPIRV27SPIRVBlockingPipesIntelInstE@Base 13
 _ZTIN5SPIRV27SPIRVContinuedInstINTELBaseILN3spv2OpE6090EEE@Base 13
 _ZTIN5SPIRV27SPIRVContinuedInstINTELBaseILN3spv2OpE6091EEE@Base 13
 _ZTIN5SPIRV27SPIRVContinuedInstINTELBaseILN3spv2OpE6092EEE@Base 13
 _ZTIN5SPIRV27SPIRVDecorateMergeINTELAttrE@Base 13
 _ZTIN5SPIRV27SPIRVTypeBufferSurfaceINTELE@Base 13
 _ZTIN5SPIRV28SPIRVComponentExecutionModesE@Base 13
 _ZTIN5SPIRV28SPIRVDecorateAliasScopeINTELE@Base 14
 _ZTIN5SPIRV28SPIRVDecorateHostAccessINTELE@Base 14
 _ZTIN5SPIRV28SPIRVDecorateMemoryINTELAttrE@Base 13
 _ZTIN5SPIRV28SPIRVGroupNonUniformVoteInstE@Base 13
 _ZTIN5SPIRV28SPIRVLowerSaddIntrinsicsBaseE@Base 15
 _ZTIN5SPIRV28SPIRVMemAliasingINTELGenericILN3spv2OpE5911ELj2EEE@Base 13
 _ZTIN5SPIRV28SPIRVMemAliasingINTELGenericILN3spv2OpE5912ELj2EEE@Base 13
 _ZTIN5SPIRV28SPIRVMemAliasingINTELGenericILN3spv2OpE5913ELj2EEE@Base 13
 _ZTIN5SPIRV29SPIRVDecorateStallEnableINTELE@Base 13
 _ZTIN5SPIRV29SPIRVDecorateUserSemanticAttrE@Base 13
 _ZTIN5SPIRV29SPIRVFunctionPointerCallINTELE@Base 13
 _ZTIN5SPIRV29SPIRVGroupNonUniformElectInstE@Base 13
 _ZTIN5SPIRV29SPIRVJointMatrixINTELInstBaseE@Base 14
 _ZTIN5SPIRV29SPIRVSubgroupAVCIntelInstBaseE@Base 13
 _ZTIN5SPIRV29SPIRVTypeStructContinuedINTELE@Base 13
 _ZTIN5SPIRV30SPIRVDecorateBankBitsINTELAttrE@Base 13
 _ZTIN5SPIRV30SPIRVGroupNonUniformBallotInstE@Base 13
 _ZTIN5SPIRV30SPIRVLowerSaddIntrinsicsLegacyE@Base 15
#MISSING: 15# _ZTIN5SPIRV30SPIRVLowerSaddWithOverflowBaseE@Base 13
 _ZTIN5SPIRV30SPIRVMemberDecorateStrAttrBaseILN3spv10DecorationE5635EEE@Base 13
 _ZTIN5SPIRV30SPIRVMemberDecorateStrAttrBaseILN3spv10DecorationE5826EEE@Base 13
 _ZTIN5SPIRV31SPIRVDecorateMathOpDSPModeINTELE@Base 13
 _ZTIN5SPIRV31SPIRVGroupNonUniformShuffleInstE@Base 13
 _ZTIN5SPIRV32SPIRVDecorateImplementInCSRINTELE@Base 14
 _ZTIN5SPIRV32SPIRVDecorateMaxConcurrencyINTELE@Base 13
 _ZTIN5SPIRV32SPIRVDecoratePipelineEnableINTELE@Base 13
#MISSING: 15# _ZTIN5SPIRV32SPIRVLowerSaddWithOverflowLegacyE@Base 13
 _ZTIN5SPIRV33SPIRVConstantFunctionPointerINTELE@Base 13
 _ZTIN5SPIRV33SPIRVGroupNonUniformRotateKHRInstE@Base 15
 _ZTIN5SPIRV33SPIRVMemberDecorateMergeINTELAttrE@Base 13
 _ZTIN5SPIRV33SPIRVSubgroupShuffleINTELInstBaseE@Base 13
 _ZTIN5SPIRV34SPIRVGroupNonUniformArithmeticInstE@Base 13
 _ZTIN5SPIRV34SPIRVMemberDecorateMemoryINTELAttrE@Base 13
 _ZTIN5SPIRV34SPIRVSubgroupAVCIntelInstBaseIntraE@Base 13
 _ZTIN5SPIRV35SPIRVMemberDecorateUserSemanticAttrE@Base 13
 _ZTIN5SPIRV35SPIRVSubgroupAVCIntelInstBaseChromaE@Base 13
 _ZTIN5SPIRV36SPIRVBfloat16ConversionINTELInstBaseILN3spv2OpE6116EEE@Base 13
 _ZTIN5SPIRV36SPIRVBfloat16ConversionINTELInstBaseILN3spv2OpE6117EEE@Base 13
 _ZTIN5SPIRV36SPIRVDecorateFunctionDenormModeINTELE@Base 13
 _ZTIN5SPIRV36SPIRVDecorateInitiationIntervalINTELE@Base 13
 _ZTIN5SPIRV36SPIRVMemberDecorateBankBitsINTELAttrE@Base 13
 _ZTIN5SPIRV37SPIRVDecorateFuseLoopsInFunctionINTELE@Base 13
 _ZTIN5SPIRV37SPIRVVariableLengthArrayINTELInstBaseE@Base 13
 _ZTIN5SPIRV38SPIRVDecorateFunctionRoundingModeINTELE@Base 13
 _ZTIN5SPIRV38SPIRVGroupUniformArithmeticKHRInstBaseE@Base 15
 _ZTIN5SPIRV38SPIRVSubgroupImageBlockIOINTELInstBaseE@Base 13
 _ZTIN5SPIRV39SPIRVGroupNonUniformShuffleRelativeInstE@Base 13
 _ZTIN5SPIRV39SPIRVSubgroupBufferBlockIOINTELInstBaseE@Base 13
 _ZTIN5SPIRV40SPIRVLowerBitCastToNonStandardTypeLegacyE@Base 13
 _ZTIN5SPIRV43SPIRVDecorateFunctionFloatingPointModeINTELE@Base 13
 _ZTIN5SPIRV43SPIRVSubgroupImageMediaBlockIOINTELInstBaseE@Base 13
 _ZTIN5SPIRV8SPIRVPhiE@Base 13
 _ZTIN5SPIRV9SPIRVLineE@Base 13
 _ZTIN5SPIRV9SPIRVLoadE@Base 13
 _ZTIN5SPIRV9SPIRVNameE@Base 13
 _ZTIN5SPIRV9SPIRVTypeE@Base 13
 _ZTIN7OCLUtil24OCLBuiltinFuncMangleInfoE@Base 13
 (arch=armel riscv64)_ZTIN9__gnu_cxx7__mutexE@Base 13
 _ZTINSt8__detail11_AnyMatcherINSt7__cxx1112regex_traitsIcEELb0ELb0ELb0EEE@Base 13
 _ZTINSt8__detail11_AnyMatcherINSt7__cxx1112regex_traitsIcEELb0ELb0ELb1EEE@Base 13
 _ZTINSt8__detail11_AnyMatcherINSt7__cxx1112regex_traitsIcEELb0ELb1ELb0EEE@Base 13
 _ZTINSt8__detail11_AnyMatcherINSt7__cxx1112regex_traitsIcEELb0ELb1ELb1EEE@Base 13
 _ZTINSt8__detail11_AnyMatcherINSt7__cxx1112regex_traitsIcEELb1ELb0ELb0EEE@Base 13
 _ZTINSt8__detail11_AnyMatcherINSt7__cxx1112regex_traitsIcEELb1ELb0ELb1EEE@Base 13
 _ZTINSt8__detail11_AnyMatcherINSt7__cxx1112regex_traitsIcEELb1ELb1ELb0EEE@Base 13
 _ZTINSt8__detail11_AnyMatcherINSt7__cxx1112regex_traitsIcEELb1ELb1ELb1EEE@Base 13
 _ZTINSt8__detail12_CharMatcherINSt7__cxx1112regex_traitsIcEELb0ELb0EEE@Base 13
 _ZTINSt8__detail12_CharMatcherINSt7__cxx1112regex_traitsIcEELb0ELb1EEE@Base 13
 _ZTINSt8__detail12_CharMatcherINSt7__cxx1112regex_traitsIcEELb1ELb0EEE@Base 13
 _ZTINSt8__detail12_CharMatcherINSt7__cxx1112regex_traitsIcEELb1ELb1EEE@Base 13
 _ZTINSt8__detail15_BracketMatcherINSt7__cxx1112regex_traitsIcEELb0ELb0EEE@Base 13
 _ZTINSt8__detail15_BracketMatcherINSt7__cxx1112regex_traitsIcEELb0ELb1EEE@Base 13
 _ZTINSt8__detail15_BracketMatcherINSt7__cxx1112regex_traitsIcEELb1ELb0EEE@Base 13
 _ZTINSt8__detail15_BracketMatcherINSt7__cxx1112regex_traitsIcEELb1ELb1EEE@Base 13
 _ZTIPFvPN4llvm8MetadataEPN5SPIRV10SPIRVEntryEE@Base 14
 (arch=armel riscv64)_ZTISt11_Mutex_baseILN9__gnu_cxx12_Lock_policyE1EE@Base 13
 (arch=!armel !riscv64)_ZTISt11_Mutex_baseILN9__gnu_cxx12_Lock_policyE2EE@Base 13
 (arch=armel riscv64)_ZTISt15_Sp_counted_ptrIPN5SPIRV9SPIRVLineELN9__gnu_cxx12_Lock_policyE1EE@Base 13
 (arch=!armel !riscv64)_ZTISt15_Sp_counted_ptrIPN5SPIRV9SPIRVLineELN9__gnu_cxx12_Lock_policyE2EE@Base 13
 (arch=armel riscv64)_ZTISt16_Sp_counted_baseILN9__gnu_cxx12_Lock_policyE1EE@Base 13
 (arch=!armel !riscv64)_ZTISt16_Sp_counted_baseILN9__gnu_cxx12_Lock_policyE2EE@Base 13
 (arch=armel armhf)_ZTISt19_Sp_make_shared_tag@Base 13
 (arch=armel riscv64)_ZTISt23_Sp_counted_ptr_inplaceINSt8__detail4_NFAINSt7__cxx1112regex_traitsIcEEEESaIvELN9__gnu_cxx12_Lock_policyE1EE@Base 13
 (arch=!armel !riscv64)_ZTISt23_Sp_counted_ptr_inplaceINSt8__detail4_NFAINSt7__cxx1112regex_traitsIcEEEESaIvELN9__gnu_cxx12_Lock_policyE2EE@Base 13
 _ZTIZN5SPIRV10mapBitMaskINS_8SPIRVMapIN7OCLUtil15OCLMemFenceKindEN3spv19MemorySemanticsMaskEvEEEEjjEUlS3_S5_E_@Base 13
 _ZTIZN5SPIRV11rmapBitMaskINS_8SPIRVMapIN7OCLUtil15OCLMemFenceKindEN3spv19MemorySemanticsMaskEvEEEEjjEUlS3_S5_E_@Base 13
 _ZTIZN5SPIRV15TopologicalSortC4ERKSt6vectorIPNS_9SPIRVTypeESaIS3_EERKS1_IPNS_10SPIRVValueESaIS9_EERKS1_IPNS_13SPIRVVariableESaISF_EERS1_IPNS_23SPIRVTypeForwardPointerESaISL_EEEUlPKSK_E_@Base 13
 _ZTIZN5SPIRV15TopologicalSortC4ERKSt6vectorIPNS_9SPIRVTypeESaIS3_EERKS1_IPNS_10SPIRVValueESaIS9_EERKS1_IPNS_13SPIRVVariableESaISF_EERS1_IPNS_23SPIRVTypeForwardPointerESaISL_EEEUlPKSK_SQ_E0_@Base 13
 _ZTIZN5SPIRV15TopologicalSortC4ERKSt6vectorIPNS_9SPIRVTypeESaIS3_EERKS1_IPNS_10SPIRVValueESaIS9_EERKS1_IPNS_13SPIRVVariableESaISF_EERS1_IPNS_23SPIRVTypeForwardPointerESaISL_EEEUlPNS_10SPIRVEntryESQ_E1_@Base 13
 _ZTIZN5SPIRV21getOrCreateSwitchFuncIN7OCLUtil12OCLScopeKindEN3spv5ScopeEvEEPN4llvm11InstructionENS5_9StringRefEPNS5_5ValueERKNS_8SPIRVMapIT_T0_T1_EEbNS5_8OptionalIiEES7_iEUliiE_@Base 13
 _ZTIZN5SPIRV21getOrCreateSwitchFuncIN7OCLUtil15OCLMemOrderKindEjN3spv19MemorySemanticsMaskEEEPN4llvm11InstructionENS5_9StringRefEPNS5_5ValueERKNS_8SPIRVMapIT_T0_T1_EEbNS5_8OptionalIiEES7_iEUliiE_@Base 13
 _ZTIZN5SPIRV21getOrCreateSwitchFuncIN7OCLUtil23OCLMemFenceExtendedKindEN3spv19MemorySemanticsMaskEvEEPN4llvm11InstructionENS5_9StringRefEPNS5_5ValueERKNS_8SPIRVMapIT_T0_T1_EEbNS5_8OptionalIiEES7_iEUliiE_@Base 13
#MISSING: 15# _ZTIZN5SPIRV24SPIRVLowerSPIRBlocksBase16lowerReturnBlockEPN4llvm10ReturnInstEPNS1_5ValueERbEUlRNS1_8FunctionEE_@Base 13
#MISSING: 15# _ZTIZN5SPIRV24SPIRVLowerSPIRBlocksBase17lowerBlockBuiltinEPN4llvm8CallInstEPNS1_8FunctionEPNS1_5ValueES7_S7_NS1_9StringRefEEUlS3_RSt6vectorIS7_SaIS7_EEE_@Base 13
 _ZTIZN7OCLUtil19OCLBuiltinTransInfoC4EvEUlRSt6vectorIPN4llvm5ValueESaIS4_EEE_@Base 13
 _ZTIZNK5SPIRV11SPIRVSwitch8validateEvEUlSt6vectorIjSaIjEEPNS_15SPIRVBasicBlockEE_@Base 13
 _ZTIZNK5SPIRV8SPIRVPhi8validateEvEUlPNS_10SPIRVValueEPNS_15SPIRVBasicBlockEE_@Base 13
 _ZTSFvPN4llvm8MetadataEPN5SPIRV10SPIRVEntryEE@Base 14
 _ZTSN4SPIR10AtomicTypeE@Base 13
 _ZTSN4SPIR10VectorTypeE@Base 13
 _ZTSN4SPIR11PointerTypeE@Base 13
 _ZTSN4SPIR11TypeVisitorE@Base 13
 _ZTSN4SPIR13MangleVisitorE@Base 13
 _ZTSN4SPIR13PrimitiveTypeE@Base 13
 _ZTSN4SPIR15UserDefinedTypeE@Base 13
 _ZTSN4SPIR9BlockTypeE@Base 13
 _ZTSN4SPIR9ParamTypeE@Base 13
 _ZTSN4llvm11InstVisitorIN5SPIRV14OCLToSPIRVBaseEvEE@Base 13
 _ZTSN4llvm11InstVisitorIN5SPIRV14SPIRVToOCLBaseEvEE@Base 13
 _ZTSN4llvm11InstVisitorIN5SPIRV18SPIRVLowerBoolBaseEvEE@Base 13
#MISSING: 15# _ZTSN4llvm11InstVisitorIN5SPIRV30SPIRVLowerSaddWithOverflowBaseEvEE@Base 13
 _ZTSN4llvm13PassInfoMixinIN5SPIRV14OCLToSPIRVPassEEE@Base 15
 _ZTSN4llvm13PassInfoMixinIN5SPIRV16SPIRVToOCL12PassEEE@Base 15
 _ZTSN4llvm13PassInfoMixinIN5SPIRV16SPIRVToOCL20PassEEE@Base 15
 _ZTSN4llvm13PassInfoMixinIN5SPIRV18SPIRVLowerBoolPassEEE@Base 15
#MISSING: 15# _ZTSN4llvm18ValueMapCallbackVHIPKNS_5ValueENS_14WeakTrackingVHENS_14ValueMapConfigIS3_NS_3sys10SmartMutexILb0EEEEEEE@Base 13
 _ZTSN4llvm18ValueMapCallbackVHIPNS_5ValueENS_12PointerUnionIJPNS_4TypeEPN18SPIRVTypeScavenger12DeferredTypeES2_EEENS_14ValueMapConfigIS2_NS_3sys10SmartMutexILb0EEEEEEE@Base 15
 _ZTSN4llvm2cl11OptionValueIbEE@Base 13
 _ZTSN4llvm2cl11opt_storageIbLb1ELb0EEE@Base 13
 _ZTSN4llvm2cl15OptionValueBaseIbLb0EEE@Base 13
 _ZTSN4llvm2cl15OptionValueCopyIbEE@Base 13
 _ZTSN4llvm2cl3optIbLb0ENS0_6parserIbEEE8CallbackMUlRKbE_E@Base 13
 _ZTSN4llvm2cl3optIbLb1ENS0_6parserIbEEE8CallbackMUlRKbE_E@Base 13
 _ZTSN4llvm2cl3optIbLb1ENS0_6parserIbEEEE@Base 13
 _ZTSN4llvm6detail11PassConceptINS_6ModuleENS_15AnalysisManagerIS2_JEEEJEEE@Base 15
 _ZTSN4llvm6detail11PassConceptINS_8FunctionENS_15AnalysisManagerIS2_JEEEJEEE@Base 15
 _ZTSN4llvm6detail17AnalysisPassModelINS_6ModuleEN5SPIRV18OCLTypeToSPIRVPassENS_17PreservedAnalysesENS_15AnalysisManagerIS2_JEE11InvalidatorEJEEE@Base 15
 _ZTSN4llvm6detail17AnalysisPassModelINS_6ModuleENS_27PassInstrumentationAnalysisENS_17PreservedAnalysesENS_15AnalysisManagerIS2_JEE11InvalidatorEJEEE@Base 15
 _ZTSN4llvm6detail19AnalysisPassConceptINS_6ModuleENS_17PreservedAnalysesENS_15AnalysisManagerIS2_JEE11InvalidatorEJEEE@Base 15
 _ZTSN4llvm6detail19AnalysisResultModelINS_6ModuleEN5SPIRV18OCLTypeToSPIRVPassENS3_18OCLTypeToSPIRVBaseENS_17PreservedAnalysesENS_15AnalysisManagerIS2_JEE11InvalidatorELb0EEE@Base 15
 _ZTSN4llvm6detail19AnalysisResultModelINS_6ModuleENS_27PassInstrumentationAnalysisENS_19PassInstrumentationENS_17PreservedAnalysesENS_15AnalysisManagerIS2_JEE11InvalidatorELb1EEE@Base 15
 _ZTSN4llvm6detail21AnalysisResultConceptINS_6ModuleENS_17PreservedAnalysesENS_15AnalysisManagerIS2_JEE11InvalidatorEEE@Base 15
 _ZTSN4llvm6detail9PassModelINS_6ModuleEN5SPIRV14OCLToSPIRVPassENS_17PreservedAnalysesENS_15AnalysisManagerIS2_JEEEJEEE@Base 15
 _ZTSN4llvm6detail9PassModelINS_6ModuleEN5SPIRV15LLVMToSPIRVPassENS_17PreservedAnalysesENS_15AnalysisManagerIS2_JEEEJEEE@Base 15
 _ZTSN4llvm6detail9PassModelINS_6ModuleEN5SPIRV16SPIRVToOCL12PassENS_17PreservedAnalysesENS_15AnalysisManagerIS2_JEEEJEEE@Base 15
 _ZTSN4llvm6detail9PassModelINS_6ModuleEN5SPIRV16SPIRVToOCL20PassENS_17PreservedAnalysesENS_15AnalysisManagerIS2_JEEEJEEE@Base 15
 _ZTSN4llvm6detail9PassModelINS_6ModuleEN5SPIRV18SPIRVLowerBoolPassENS_17PreservedAnalysesENS_15AnalysisManagerIS2_JEEEJEEE@Base 15
 _ZTSN4llvm6detail9PassModelINS_6ModuleEN5SPIRV21SPIRVLowerMemmovePassENS_17PreservedAnalysesENS_15AnalysisManagerIS2_JEEEJEEE@Base 15
 _ZTSN4llvm6detail9PassModelINS_6ModuleEN5SPIRV22PreprocessMetadataPassENS_17PreservedAnalysesENS_15AnalysisManagerIS2_JEEEJEEE@Base 15
 _ZTSN4llvm6detail9PassModelINS_6ModuleEN5SPIRV23SPIRVLowerConstExprPassENS_17PreservedAnalysesENS_15AnalysisManagerIS2_JEEEJEEE@Base 15
 _ZTSN4llvm6detail9PassModelINS_6ModuleEN5SPIRV23SPIRVLowerOCLBlocksPassENS_17PreservedAnalysesENS_15AnalysisManagerIS2_JEEEJEEE@Base 15
 _ZTSN4llvm6detail9PassModelINS_6ModuleEN5SPIRV23SPIRVRegularizeLLVMPassENS_17PreservedAnalysesENS_15AnalysisManagerIS2_JEEEJEEE@Base 15
 _ZTSN4llvm6detail9PassModelINS_6ModuleEN5SPIRV28SPIRVLowerSaddIntrinsicsPassENS_17PreservedAnalysesENS_15AnalysisManagerIS2_JEEEJEEE@Base 15
 _ZTSN4llvm6detail9PassModelINS_6ModuleENS_27ModuleToFunctionPassAdaptorENS_17PreservedAnalysesENS_15AnalysisManagerIS2_JEEEJEEE@Base 15
 _ZTSN4llvm6detail9PassModelINS_8FunctionEN5SPIRV38SPIRVLowerBitCastToNonStandardTypePassENS_17PreservedAnalysesENS_15AnalysisManagerIS2_JEEEJEEE@Base 15
 _ZTSN4llvm6detail9PassModelINS_8FunctionENS_11PromotePassENS_17PreservedAnalysesENS_15AnalysisManagerIS2_JEEEJEEE@Base 15
 _ZTSN4llvm6detail9PassModelINS_8FunctionENS_16LoopSimplifyPassENS_17PreservedAnalysesENS_15AnalysisManagerIS2_JEEEJEEE@Base 15
 _ZTSN5SPIRV10SPIRVBitOpE@Base 13
 _ZTSN5SPIRV10SPIRVEntryE@Base 13
 _ZTSN5SPIRV10SPIRVStoreE@Base 13
 _ZTSN5SPIRV10SPIRVUnaryE@Base 13
 _ZTSN5SPIRV10SPIRVUndefE@Base 13
 _ZTSN5SPIRV10SPIRVValueE@Base 13
 _ZTSN5SPIRV11SPIRVBinaryE@Base 13
 _ZTSN5SPIRV11SPIRVBranchE@Base 13
 _ZTSN5SPIRV11SPIRVModuleE@Base 13
 _ZTSN5SPIRV11SPIRVSourceE@Base 13
 _ZTSN5SPIRV11SPIRVStringE@Base 13
 _ZTSN5SPIRV11SPIRVSwitchE@Base 13
 _ZTSN5SPIRV12SPIRVCmpInstILN3spv2OpE161EEE@Base 13
 _ZTSN5SPIRV12SPIRVCmpInstILN3spv2OpE162EEE@Base 13
 _ZTSN5SPIRV12SPIRVCmpInstILN3spv2OpE163EEE@Base 13
 _ZTSN5SPIRV12SPIRVCmpInstILN3spv2OpE170EEE@Base 13
 _ZTSN5SPIRV12SPIRVCmpInstILN3spv2OpE171EEE@Base 13
 _ZTSN5SPIRV12SPIRVCmpInstILN3spv2OpE172EEE@Base 13
 _ZTSN5SPIRV12SPIRVCmpInstILN3spv2OpE173EEE@Base 13
 _ZTSN5SPIRV12SPIRVCmpInstILN3spv2OpE174EEE@Base 13
 _ZTSN5SPIRV12SPIRVCmpInstILN3spv2OpE175EEE@Base 13
 _ZTSN5SPIRV12SPIRVCmpInstILN3spv2OpE176EEE@Base 13
 _ZTSN5SPIRV12SPIRVCmpInstILN3spv2OpE177EEE@Base 13
 _ZTSN5SPIRV12SPIRVCmpInstILN3spv2OpE178EEE@Base 13
 _ZTSN5SPIRV12SPIRVCmpInstILN3spv2OpE179EEE@Base 13
 _ZTSN5SPIRV12SPIRVCmpInstILN3spv2OpE180EEE@Base 13
 _ZTSN5SPIRV12SPIRVCmpInstILN3spv2OpE181EEE@Base 13
 _ZTSN5SPIRV12SPIRVCmpInstILN3spv2OpE182EEE@Base 13
 _ZTSN5SPIRV12SPIRVCmpInstILN3spv2OpE183EEE@Base 13
 _ZTSN5SPIRV12SPIRVCmpInstILN3spv2OpE184EEE@Base 13
 _ZTSN5SPIRV12SPIRVCmpInstILN3spv2OpE185EEE@Base 13
 _ZTSN5SPIRV12SPIRVCmpInstILN3spv2OpE186EEE@Base 13
 _ZTSN5SPIRV12SPIRVCmpInstILN3spv2OpE187EEE@Base 13
 _ZTSN5SPIRV12SPIRVCmpInstILN3spv2OpE188EEE@Base 13
 _ZTSN5SPIRV12SPIRVCmpInstILN3spv2OpE189EEE@Base 13
 _ZTSN5SPIRV12SPIRVCmpInstILN3spv2OpE190EEE@Base 13
 _ZTSN5SPIRV12SPIRVCmpInstILN3spv2OpE191EEE@Base 13
 _ZTSN5SPIRV12SPIRVCompareE@Base 13
 _ZTSN5SPIRV12SPIRVExtInstE@Base 13
 _ZTSN5SPIRV12SPIRVForwardE@Base 13
 _ZTSN5SPIRV12SPIRVTypeIntE@Base 13
 _ZTSN5SPIRV13SPIRVAsmINTELE@Base 13
 _ZTSN5SPIRV13SPIRVDecorateE@Base 13
 _ZTSN5SPIRV13SPIRVFunctionE@Base 13
 _ZTSN5SPIRV13SPIRVLifetimeILN3spv2OpE256EEE@Base 13
 _ZTSN5SPIRV13SPIRVLifetimeILN3spv2OpE257EEE@Base 13
 _ZTSN5SPIRV13SPIRVTypeBoolE@Base 13
 _ZTSN5SPIRV13SPIRVTypePipeE@Base 13
 _ZTSN5SPIRV13SPIRVTypeVoidE@Base 13
 _ZTSN5SPIRV13SPIRVVariableE@Base 13
 _ZTSN5SPIRV14OCLToSPIRVBaseE@Base 13
 _ZTSN5SPIRV14OCLToSPIRVPassE@Base 15
 _ZTSN5SPIRV14SPIRVEntryNoIdILN3spv2OpE100EEE@Base 13
 _ZTSN5SPIRV14SPIRVEntryNoIdILN3spv2OpE10EEE@Base 13
 _ZTSN5SPIRV14SPIRVEntryNoIdILN3spv2OpE116EEE@Base 13
 _ZTSN5SPIRV14SPIRVEntryNoIdILN3spv2OpE147EEE@Base 13
 _ZTSN5SPIRV14SPIRVEntryNoIdILN3spv2OpE149EEE@Base 13
 _ZTSN5SPIRV14SPIRVEntryNoIdILN3spv2OpE14EEE@Base 13
 _ZTSN5SPIRV14SPIRVEntryNoIdILN3spv2OpE150EEE@Base 13
 _ZTSN5SPIRV14SPIRVEntryNoIdILN3spv2OpE151EEE@Base 13
 _ZTSN5SPIRV14SPIRVEntryNoIdILN3spv2OpE152EEE@Base 13
 _ZTSN5SPIRV14SPIRVEntryNoIdILN3spv2OpE17EEE@Base 13
 _ZTSN5SPIRV14SPIRVEntryNoIdILN3spv2OpE207EEE@Base 13
 _ZTSN5SPIRV14SPIRVEntryNoIdILN3spv2OpE208EEE@Base 13
 _ZTSN5SPIRV14SPIRVEntryNoIdILN3spv2OpE209EEE@Base 13
 _ZTSN5SPIRV14SPIRVEntryNoIdILN3spv2OpE210EEE@Base 13
 _ZTSN5SPIRV14SPIRVEntryNoIdILN3spv2OpE211EEE@Base 13
 _ZTSN5SPIRV14SPIRVEntryNoIdILN3spv2OpE212EEE@Base 13
 _ZTSN5SPIRV14SPIRVEntryNoIdILN3spv2OpE213EEE@Base 13
 _ZTSN5SPIRV14SPIRVEntryNoIdILN3spv2OpE214EEE@Base 13
 _ZTSN5SPIRV14SPIRVEntryNoIdILN3spv2OpE215EEE@Base 13
 _ZTSN5SPIRV14SPIRVEntryNoIdILN3spv2OpE218EEE@Base 13
 _ZTSN5SPIRV14SPIRVEntryNoIdILN3spv2OpE219EEE@Base 13
 _ZTSN5SPIRV14SPIRVEntryNoIdILN3spv2OpE220EEE@Base 13
 _ZTSN5SPIRV14SPIRVEntryNoIdILN3spv2OpE221EEE@Base 13
 _ZTSN5SPIRV14SPIRVEntryNoIdILN3spv2OpE252EEE@Base 13
 _ZTSN5SPIRV14SPIRVEntryNoIdILN3spv2OpE29EEE@Base 13
 _ZTSN5SPIRV14SPIRVEntryNoIdILN3spv2OpE2EEE@Base 13
 _ZTSN5SPIRV14SPIRVEntryNoIdILN3spv2OpE305EEE@Base 13
 _ZTSN5SPIRV14SPIRVEntryNoIdILN3spv2OpE306EEE@Base 13
 _ZTSN5SPIRV14SPIRVEntryNoIdILN3spv2OpE307EEE@Base 13
 _ZTSN5SPIRV14SPIRVEntryNoIdILN3spv2OpE308EEE@Base 13
 _ZTSN5SPIRV14SPIRVEntryNoIdILN3spv2OpE309EEE@Base 13
 _ZTSN5SPIRV14SPIRVEntryNoIdILN3spv2OpE310EEE@Base 13
 _ZTSN5SPIRV14SPIRVEntryNoIdILN3spv2OpE311EEE@Base 13
 _ZTSN5SPIRV14SPIRVEntryNoIdILN3spv2OpE312EEE@Base 13
 _ZTSN5SPIRV14SPIRVEntryNoIdILN3spv2OpE313EEE@Base 13
 _ZTSN5SPIRV14SPIRVEntryNoIdILN3spv2OpE314EEE@Base 13
 _ZTSN5SPIRV14SPIRVEntryNoIdILN3spv2OpE315EEE@Base 13
 _ZTSN5SPIRV14SPIRVEntryNoIdILN3spv2OpE316EEE@Base 13
 _ZTSN5SPIRV14SPIRVEntryNoIdILN3spv2OpE317EEE@Base 13
 _ZTSN5SPIRV14SPIRVEntryNoIdILN3spv2OpE330EEE@Base 13
 _ZTSN5SPIRV14SPIRVEntryNoIdILN3spv2OpE39EEE@Base 13
 _ZTSN5SPIRV14SPIRVEntryNoIdILN3spv2OpE3EEE@Base 13
 _ZTSN5SPIRV14SPIRVEntryNoIdILN3spv2OpE4EEE@Base 13
 _ZTSN5SPIRV14SPIRVEntryNoIdILN3spv2OpE56EEE@Base 13
 _ZTSN5SPIRV14SPIRVEntryNoIdILN3spv2OpE6090EEE@Base 13
 _ZTSN5SPIRV14SPIRVEntryNoIdILN3spv2OpE6091EEE@Base 13
 _ZTSN5SPIRV14SPIRVEntryNoIdILN3spv2OpE6092EEE@Base 13
 _ZTSN5SPIRV14SPIRVEntryNoIdILN3spv2OpE60EEE@Base 13
 _ZTSN5SPIRV14SPIRVEntryNoIdILN3spv2OpE68EEE@Base 13
 _ZTSN5SPIRV14SPIRVEntryNoIdILN3spv2OpE89EEE@Base 13
 _ZTSN5SPIRV14SPIRVEntryNoIdILN3spv2OpE90EEE@Base 13
 _ZTSN5SPIRV14SPIRVEntryNoIdILN3spv2OpE91EEE@Base 13
 _ZTSN5SPIRV14SPIRVEntryNoIdILN3spv2OpE92EEE@Base 13
 _ZTSN5SPIRV14SPIRVEntryNoIdILN3spv2OpE93EEE@Base 13
 _ZTSN5SPIRV14SPIRVEntryNoIdILN3spv2OpE94EEE@Base 13
 _ZTSN5SPIRV14SPIRVEntryNoIdILN3spv2OpE95EEE@Base 13
 _ZTSN5SPIRV14SPIRVEntryNoIdILN3spv2OpE96EEE@Base 13
 _ZTSN5SPIRV14SPIRVEntryNoIdILN3spv2OpE97EEE@Base 13
 _ZTSN5SPIRV14SPIRVExtensionE@Base 13
 _ZTSN5SPIRV14SPIRVLoopMergeE@Base 13
 _ZTSN5SPIRV14SPIRVToOCLBaseE@Base 13
 _ZTSN5SPIRV14SPIRVTransposeE@Base 13
 _ZTSN5SPIRV14SPIRVTypeArrayE@Base 13
 _ZTSN5SPIRV14SPIRVTypeFloatE@Base 13
 _ZTSN5SPIRV14SPIRVTypeImageE@Base 13
 _ZTSN5SPIRV14SPIRVTypeQueueE@Base 13
 _ZTSN5SPIRV14SPIRVUnaryInstILN3spv2OpE109EEE@Base 13
 _ZTSN5SPIRV14SPIRVUnaryInstILN3spv2OpE110EEE@Base 13
 _ZTSN5SPIRV14SPIRVUnaryInstILN3spv2OpE111EEE@Base 13
 _ZTSN5SPIRV14SPIRVUnaryInstILN3spv2OpE112EEE@Base 13
 _ZTSN5SPIRV14SPIRVUnaryInstILN3spv2OpE113EEE@Base 13
 _ZTSN5SPIRV14SPIRVUnaryInstILN3spv2OpE114EEE@Base 13
 _ZTSN5SPIRV14SPIRVUnaryInstILN3spv2OpE115EEE@Base 13
 _ZTSN5SPIRV14SPIRVUnaryInstILN3spv2OpE117EEE@Base 13
 _ZTSN5SPIRV14SPIRVUnaryInstILN3spv2OpE118EEE@Base 13
 _ZTSN5SPIRV14SPIRVUnaryInstILN3spv2OpE119EEE@Base 13
 _ZTSN5SPIRV14SPIRVUnaryInstILN3spv2OpE120EEE@Base 13
 _ZTSN5SPIRV14SPIRVUnaryInstILN3spv2OpE121EEE@Base 13
 _ZTSN5SPIRV14SPIRVUnaryInstILN3spv2OpE122EEE@Base 13
 _ZTSN5SPIRV14SPIRVUnaryInstILN3spv2OpE124EEE@Base 13
 _ZTSN5SPIRV14SPIRVUnaryInstILN3spv2OpE126EEE@Base 13
 _ZTSN5SPIRV14SPIRVUnaryInstILN3spv2OpE127EEE@Base 13
 _ZTSN5SPIRV14SPIRVUnaryInstILN3spv2OpE154EEE@Base 13
 _ZTSN5SPIRV14SPIRVUnaryInstILN3spv2OpE155EEE@Base 13
 _ZTSN5SPIRV14SPIRVUnaryInstILN3spv2OpE156EEE@Base 13
 _ZTSN5SPIRV14SPIRVUnaryInstILN3spv2OpE157EEE@Base 13
 _ZTSN5SPIRV14SPIRVUnaryInstILN3spv2OpE158EEE@Base 13
 _ZTSN5SPIRV14SPIRVUnaryInstILN3spv2OpE159EEE@Base 13
 _ZTSN5SPIRV14SPIRVUnaryInstILN3spv2OpE160EEE@Base 13
 _ZTSN5SPIRV14SPIRVUnaryInstILN3spv2OpE168EEE@Base 13
 _ZTSN5SPIRV14SPIRVUnaryInstILN3spv2OpE200EEE@Base 13
 _ZTSN5SPIRV14SPIRVUnaryInstILN3spv2OpE205EEE@Base 13
 _ZTSN5SPIRV14SPIRVUnaryInstILN3spv2OpE5934EEE@Base 13
 _ZTSN5SPIRV14SPIRVUnaryInstILN3spv2OpE5938EEE@Base 13
 _ZTSN5SPIRV14SPIRVUnaryInstILN3spv2OpE6116EEE@Base 13
 _ZTSN5SPIRV14SPIRVUnaryInstILN3spv2OpE6117EEE@Base 13
 _ZTSN5SPIRV14SPIRVUnaryInstILN3spv2OpE6145EEE@Base 13
 _ZTSN5SPIRV15LLVMToSPIRVBaseE@Base 13
 _ZTSN5SPIRV15SPIRVAnnotationILN3spv2OpE15EEE@Base 13
 _ZTSN5SPIRV15SPIRVAnnotationILN3spv2OpE16EEE@Base 13
 _ZTSN5SPIRV15SPIRVAnnotationILN3spv2OpE5EEE@Base 13
 _ZTSN5SPIRV15SPIRVBasicBlockE@Base 13
 _ZTSN5SPIRV15SPIRVBinaryInstILN3spv2OpE128EEE@Base 13
 _ZTSN5SPIRV15SPIRVBinaryInstILN3spv2OpE129EEE@Base 13
 _ZTSN5SPIRV15SPIRVBinaryInstILN3spv2OpE130EEE@Base 13
 _ZTSN5SPIRV15SPIRVBinaryInstILN3spv2OpE131EEE@Base 13
 _ZTSN5SPIRV15SPIRVBinaryInstILN3spv2OpE132EEE@Base 13
 _ZTSN5SPIRV15SPIRVBinaryInstILN3spv2OpE133EEE@Base 13
 _ZTSN5SPIRV15SPIRVBinaryInstILN3spv2OpE134EEE@Base 13
 _ZTSN5SPIRV15SPIRVBinaryInstILN3spv2OpE135EEE@Base 13
 _ZTSN5SPIRV15SPIRVBinaryInstILN3spv2OpE136EEE@Base 13
 _ZTSN5SPIRV15SPIRVBinaryInstILN3spv2OpE137EEE@Base 13
 _ZTSN5SPIRV15SPIRVBinaryInstILN3spv2OpE138EEE@Base 13
 _ZTSN5SPIRV15SPIRVBinaryInstILN3spv2OpE139EEE@Base 13
 _ZTSN5SPIRV15SPIRVBinaryInstILN3spv2OpE140EEE@Base 13
 _ZTSN5SPIRV15SPIRVBinaryInstILN3spv2OpE141EEE@Base 13
 _ZTSN5SPIRV15SPIRVBinaryInstILN3spv2OpE148EEE@Base 13
 _ZTSN5SPIRV15SPIRVBinaryInstILN3spv2OpE164EEE@Base 13
 _ZTSN5SPIRV15SPIRVBinaryInstILN3spv2OpE165EEE@Base 13
 _ZTSN5SPIRV15SPIRVBinaryInstILN3spv2OpE166EEE@Base 13
 _ZTSN5SPIRV15SPIRVBinaryInstILN3spv2OpE167EEE@Base 13
 _ZTSN5SPIRV15SPIRVBinaryInstILN3spv2OpE194EEE@Base 13
 _ZTSN5SPIRV15SPIRVBinaryInstILN3spv2OpE195EEE@Base 13
 _ZTSN5SPIRV15SPIRVBinaryInstILN3spv2OpE196EEE@Base 13
 _ZTSN5SPIRV15SPIRVBinaryInstILN3spv2OpE197EEE@Base 13
 _ZTSN5SPIRV15SPIRVBinaryInstILN3spv2OpE198EEE@Base 13
 _ZTSN5SPIRV15SPIRVBinaryInstILN3spv2OpE199EEE@Base 13
 _ZTSN5SPIRV15SPIRVCapabilityE@Base 13
 _ZTSN5SPIRV15SPIRVCopyMemoryE@Base 13
 _ZTSN5SPIRV15SPIRVCopyObjectE@Base 13
 _ZTSN5SPIRV15SPIRVDecorateIdE@Base 13
 _ZTSN5SPIRV15SPIRVDotKHRBaseE@Base 13
 _ZTSN5SPIRV15SPIRVEntryPointE@Base 13
 _ZTSN5SPIRV15SPIRVMemberNameE@Base 13
 _ZTSN5SPIRV15SPIRVModuleImplE@Base 13
 _ZTSN5SPIRV15SPIRVSelectBaseE@Base 13
 _ZTSN5SPIRV15SPIRVTypeMatrixE@Base 13
 _ZTSN5SPIRV15SPIRVTypeOpaqueE@Base 13
 _ZTSN5SPIRV15SPIRVTypeStructE@Base 13
 _ZTSN5SPIRV15SPIRVTypeVectorE@Base 13
 _ZTSN5SPIRV16OCLToSPIRVLegacyE@Base 13
 _ZTSN5SPIRV16SPIRVInstructionE@Base 13
 _ZTSN5SPIRV16SPIRVMemoryModelE@Base 13
 _ZTSN5SPIRV16SPIRVReturnValueE@Base 13
 _ZTSN5SPIRV16SPIRVToOCL12BaseE@Base 13
 _ZTSN5SPIRV16SPIRVToOCL12PassE@Base 15
 _ZTSN5SPIRV16SPIRVToOCL20BaseE@Base 13
 _ZTSN5SPIRV16SPIRVToOCL20PassE@Base 15
 _ZTSN5SPIRV16SPIRVToOCLLegacyE@Base 13
 _ZTSN5SPIRV16SPIRVTypePointerE@Base 13
 _ZTSN5SPIRV16SPIRVTypeSamplerE@Base 13
 _ZTSN5SPIRV17LLVMToSPIRVLegacyE@Base 13
 _ZTSN5SPIRV17SPIRVAsmCallINTELE@Base 13
 _ZTSN5SPIRV17SPIRVComplexFloatE@Base 15
 _ZTSN5SPIRV17SPIRVConstantBaseILN3spv2OpE43EEE@Base 13
 _ZTSN5SPIRV17SPIRVConstantBaseILN3spv2OpE50EEE@Base 13
 _ZTSN5SPIRV17SPIRVConstantBoolILN3spv2OpE41EEE@Base 13
 _ZTSN5SPIRV17SPIRVConstantBoolILN3spv2OpE42EEE@Base 13
 _ZTSN5SPIRV17SPIRVConstantBoolILN3spv2OpE48EEE@Base 13
 _ZTSN5SPIRV17SPIRVConstantBoolILN3spv2OpE49EEE@Base 13
 _ZTSN5SPIRV17SPIRVConstantNullE@Base 13
 _ZTSN5SPIRV17SPIRVFunctionCallE@Base 13
 _ZTSN5SPIRV17SPIRVInstTemplateINS_10SPIRVBitOpELN3spv2OpE201ELb1ELj7ELb0ELj4294967295ELj4294967295ELj4294967295EEE@Base 13
 _ZTSN5SPIRV17SPIRVInstTemplateINS_10SPIRVBitOpELN3spv2OpE202ELb1ELj6ELb0ELj4294967295ELj4294967295ELj4294967295EEE@Base 13
 _ZTSN5SPIRV17SPIRVInstTemplateINS_10SPIRVBitOpELN3spv2OpE203ELb1ELj6ELb0ELj4294967295ELj4294967295ELj4294967295EEE@Base 13
 _ZTSN5SPIRV17SPIRVInstTemplateINS_10SPIRVBitOpELN3spv2OpE204ELb1ELj4ELb0ELj4294967295ELj4294967295ELj4294967295EEE@Base 13
 _ZTSN5SPIRV17SPIRVInstTemplateINS_10SPIRVUnaryELN3spv2OpE109ELb1ELj4ELb0ELj4294967295ELj4294967295ELj4294967295EEE@Base 13
 _ZTSN5SPIRV17SPIRVInstTemplateINS_10SPIRVUnaryELN3spv2OpE110ELb1ELj4ELb0ELj4294967295ELj4294967295ELj4294967295EEE@Base 13
 _ZTSN5SPIRV17SPIRVInstTemplateINS_10SPIRVUnaryELN3spv2OpE111ELb1ELj4ELb0ELj4294967295ELj4294967295ELj4294967295EEE@Base 13
 _ZTSN5SPIRV17SPIRVInstTemplateINS_10SPIRVUnaryELN3spv2OpE112ELb1ELj4ELb0ELj4294967295ELj4294967295ELj4294967295EEE@Base 13
 _ZTSN5SPIRV17SPIRVInstTemplateINS_10SPIRVUnaryELN3spv2OpE113ELb1ELj4ELb0ELj4294967295ELj4294967295ELj4294967295EEE@Base 13
 _ZTSN5SPIRV17SPIRVInstTemplateINS_10SPIRVUnaryELN3spv2OpE114ELb1ELj4ELb0ELj4294967295ELj4294967295ELj4294967295EEE@Base 13
 _ZTSN5SPIRV17SPIRVInstTemplateINS_10SPIRVUnaryELN3spv2OpE115ELb1ELj4ELb0ELj4294967295ELj4294967295ELj4294967295EEE@Base 13
 _ZTSN5SPIRV17SPIRVInstTemplateINS_10SPIRVUnaryELN3spv2OpE117ELb1ELj4ELb0ELj4294967295ELj4294967295ELj4294967295EEE@Base 13
 _ZTSN5SPIRV17SPIRVInstTemplateINS_10SPIRVUnaryELN3spv2OpE118ELb1ELj4ELb0ELj4294967295ELj4294967295ELj4294967295EEE@Base 13
 _ZTSN5SPIRV17SPIRVInstTemplateINS_10SPIRVUnaryELN3spv2OpE119ELb1ELj4ELb0ELj4294967295ELj4294967295ELj4294967295EEE@Base 13
 _ZTSN5SPIRV17SPIRVInstTemplateINS_10SPIRVUnaryELN3spv2OpE120ELb1ELj4ELb0ELj4294967295ELj4294967295ELj4294967295EEE@Base 13
 _ZTSN5SPIRV17SPIRVInstTemplateINS_10SPIRVUnaryELN3spv2OpE121ELb1ELj4ELb0ELj4294967295ELj4294967295ELj4294967295EEE@Base 13
 _ZTSN5SPIRV17SPIRVInstTemplateINS_10SPIRVUnaryELN3spv2OpE122ELb1ELj4ELb0ELj4294967295ELj4294967295ELj4294967295EEE@Base 13
 _ZTSN5SPIRV17SPIRVInstTemplateINS_10SPIRVUnaryELN3spv2OpE124ELb1ELj4ELb0ELj4294967295ELj4294967295ELj4294967295EEE@Base 13
 _ZTSN5SPIRV17SPIRVInstTemplateINS_10SPIRVUnaryELN3spv2OpE126ELb1ELj4ELb0ELj4294967295ELj4294967295ELj4294967295EEE@Base 13
 _ZTSN5SPIRV17SPIRVInstTemplateINS_10SPIRVUnaryELN3spv2OpE127ELb1ELj4ELb0ELj4294967295ELj4294967295ELj4294967295EEE@Base 13
 _ZTSN5SPIRV17SPIRVInstTemplateINS_10SPIRVUnaryELN3spv2OpE154ELb1ELj4ELb0ELj4294967295ELj4294967295ELj4294967295EEE@Base 13
 _ZTSN5SPIRV17SPIRVInstTemplateINS_10SPIRVUnaryELN3spv2OpE155ELb1ELj4ELb0ELj4294967295ELj4294967295ELj4294967295EEE@Base 13
 _ZTSN5SPIRV17SPIRVInstTemplateINS_10SPIRVUnaryELN3spv2OpE156ELb1ELj4ELb0ELj4294967295ELj4294967295ELj4294967295EEE@Base 13
 _ZTSN5SPIRV17SPIRVInstTemplateINS_10SPIRVUnaryELN3spv2OpE157ELb1ELj4ELb0ELj4294967295ELj4294967295ELj4294967295EEE@Base 13
 _ZTSN5SPIRV17SPIRVInstTemplateINS_10SPIRVUnaryELN3spv2OpE158ELb1ELj4ELb0ELj4294967295ELj4294967295ELj4294967295EEE@Base 13
 _ZTSN5SPIRV17SPIRVInstTemplateINS_10SPIRVUnaryELN3spv2OpE159ELb1ELj4ELb0ELj4294967295ELj4294967295ELj4294967295EEE@Base 13
 _ZTSN5SPIRV17SPIRVInstTemplateINS_10SPIRVUnaryELN3spv2OpE160ELb1ELj4ELb0ELj4294967295ELj4294967295ELj4294967295EEE@Base 13
 _ZTSN5SPIRV17SPIRVInstTemplateINS_10SPIRVUnaryELN3spv2OpE168ELb1ELj4ELb0ELj4294967295ELj4294967295ELj4294967295EEE@Base 13
 _ZTSN5SPIRV17SPIRVInstTemplateINS_10SPIRVUnaryELN3spv2OpE200ELb1ELj4ELb0ELj4294967295ELj4294967295ELj4294967295EEE@Base 13
 _ZTSN5SPIRV17SPIRVInstTemplateINS_10SPIRVUnaryELN3spv2OpE205ELb1ELj4ELb0ELj4294967295ELj4294967295ELj4294967295EEE@Base 13
 _ZTSN5SPIRV17SPIRVInstTemplateINS_10SPIRVUnaryELN3spv2OpE5934ELb1ELj4ELb0ELj4294967295ELj4294967295ELj4294967295EEE@Base 13
 _ZTSN5SPIRV17SPIRVInstTemplateINS_10SPIRVUnaryELN3spv2OpE5938ELb1ELj4ELb0ELj4294967295ELj4294967295ELj4294967295EEE@Base 13
 _ZTSN5SPIRV17SPIRVInstTemplateINS_10SPIRVUnaryELN3spv2OpE6116ELb1ELj4ELb0ELj4294967295ELj4294967295ELj4294967295EEE@Base 13
 _ZTSN5SPIRV17SPIRVInstTemplateINS_10SPIRVUnaryELN3spv2OpE6117ELb1ELj4ELb0ELj4294967295ELj4294967295ELj4294967295EEE@Base 13
 _ZTSN5SPIRV17SPIRVInstTemplateINS_10SPIRVUnaryELN3spv2OpE6145ELb1ELj4ELb0ELj4294967295ELj4294967295ELj4294967295EEE@Base 13
 _ZTSN5SPIRV17SPIRVInstTemplateINS_11SPIRVBinaryELN3spv2OpE128ELb1ELj5ELb0ELj4294967295ELj4294967295ELj4294967295EEE@Base 13
 _ZTSN5SPIRV17SPIRVInstTemplateINS_11SPIRVBinaryELN3spv2OpE129ELb1ELj5ELb0ELj4294967295ELj4294967295ELj4294967295EEE@Base 13
 _ZTSN5SPIRV17SPIRVInstTemplateINS_11SPIRVBinaryELN3spv2OpE130ELb1ELj5ELb0ELj4294967295ELj4294967295ELj4294967295EEE@Base 13
 _ZTSN5SPIRV17SPIRVInstTemplateINS_11SPIRVBinaryELN3spv2OpE131ELb1ELj5ELb0ELj4294967295ELj4294967295ELj4294967295EEE@Base 13
 _ZTSN5SPIRV17SPIRVInstTemplateINS_11SPIRVBinaryELN3spv2OpE132ELb1ELj5ELb0ELj4294967295ELj4294967295ELj4294967295EEE@Base 13
 _ZTSN5SPIRV17SPIRVInstTemplateINS_11SPIRVBinaryELN3spv2OpE133ELb1ELj5ELb0ELj4294967295ELj4294967295ELj4294967295EEE@Base 13
 _ZTSN5SPIRV17SPIRVInstTemplateINS_11SPIRVBinaryELN3spv2OpE134ELb1ELj5ELb0ELj4294967295ELj4294967295ELj4294967295EEE@Base 13
 _ZTSN5SPIRV17SPIRVInstTemplateINS_11SPIRVBinaryELN3spv2OpE135ELb1ELj5ELb0ELj4294967295ELj4294967295ELj4294967295EEE@Base 13
 _ZTSN5SPIRV17SPIRVInstTemplateINS_11SPIRVBinaryELN3spv2OpE136ELb1ELj5ELb0ELj4294967295ELj4294967295ELj4294967295EEE@Base 13
 _ZTSN5SPIRV17SPIRVInstTemplateINS_11SPIRVBinaryELN3spv2OpE137ELb1ELj5ELb0ELj4294967295ELj4294967295ELj4294967295EEE@Base 13
 _ZTSN5SPIRV17SPIRVInstTemplateINS_11SPIRVBinaryELN3spv2OpE138ELb1ELj5ELb0ELj4294967295ELj4294967295ELj4294967295EEE@Base 13
 _ZTSN5SPIRV17SPIRVInstTemplateINS_11SPIRVBinaryELN3spv2OpE139ELb1ELj5ELb0ELj4294967295ELj4294967295ELj4294967295EEE@Base 13
 _ZTSN5SPIRV17SPIRVInstTemplateINS_11SPIRVBinaryELN3spv2OpE140ELb1ELj5ELb0ELj4294967295ELj4294967295ELj4294967295EEE@Base 13
 _ZTSN5SPIRV17SPIRVInstTemplateINS_11SPIRVBinaryELN3spv2OpE141ELb1ELj5ELb0ELj4294967295ELj4294967295ELj4294967295EEE@Base 13
 _ZTSN5SPIRV17SPIRVInstTemplateINS_11SPIRVBinaryELN3spv2OpE148ELb1ELj5ELb0ELj4294967295ELj4294967295ELj4294967295EEE@Base 13
 _ZTSN5SPIRV17SPIRVInstTemplateINS_11SPIRVBinaryELN3spv2OpE164ELb1ELj5ELb0ELj4294967295ELj4294967295ELj4294967295EEE@Base 13
 _ZTSN5SPIRV17SPIRVInstTemplateINS_11SPIRVBinaryELN3spv2OpE165ELb1ELj5ELb0ELj4294967295ELj4294967295ELj4294967295EEE@Base 13
 _ZTSN5SPIRV17SPIRVInstTemplateINS_11SPIRVBinaryELN3spv2OpE166ELb1ELj5ELb0ELj4294967295ELj4294967295ELj4294967295EEE@Base 13
 _ZTSN5SPIRV17SPIRVInstTemplateINS_11SPIRVBinaryELN3spv2OpE167ELb1ELj5ELb0ELj4294967295ELj4294967295ELj4294967295EEE@Base 13
 _ZTSN5SPIRV17SPIRVInstTemplateINS_11SPIRVBinaryELN3spv2OpE194ELb1ELj5ELb0ELj4294967295ELj4294967295ELj4294967295EEE@Base 13
 _ZTSN5SPIRV17SPIRVInstTemplateINS_11SPIRVBinaryELN3spv2OpE195ELb1ELj5ELb0ELj4294967295ELj4294967295ELj4294967295EEE@Base 13
 _ZTSN5SPIRV17SPIRVInstTemplateINS_11SPIRVBinaryELN3spv2OpE196ELb1ELj5ELb0ELj4294967295ELj4294967295ELj4294967295EEE@Base 13
 _ZTSN5SPIRV17SPIRVInstTemplateINS_11SPIRVBinaryELN3spv2OpE197ELb1ELj5ELb0ELj4294967295ELj4294967295ELj4294967295EEE@Base 13
 _ZTSN5SPIRV17SPIRVInstTemplateINS_11SPIRVBinaryELN3spv2OpE198ELb1ELj5ELb0ELj4294967295ELj4294967295ELj4294967295EEE@Base 13
 _ZTSN5SPIRV17SPIRVInstTemplateINS_11SPIRVBinaryELN3spv2OpE199ELb1ELj5ELb0ELj4294967295ELj4294967295ELj4294967295EEE@Base 13
 _ZTSN5SPIRV17SPIRVInstTemplateINS_12SPIRVCompareELN3spv2OpE161ELb1ELj5ELb0ELj4294967295ELj4294967295ELj4294967295EEE@Base 13
 _ZTSN5SPIRV17SPIRVInstTemplateINS_12SPIRVCompareELN3spv2OpE162ELb1ELj5ELb0ELj4294967295ELj4294967295ELj4294967295EEE@Base 13
 _ZTSN5SPIRV17SPIRVInstTemplateINS_12SPIRVCompareELN3spv2OpE163ELb1ELj5ELb0ELj4294967295ELj4294967295ELj4294967295EEE@Base 13
 _ZTSN5SPIRV17SPIRVInstTemplateINS_12SPIRVCompareELN3spv2OpE170ELb1ELj5ELb0ELj4294967295ELj4294967295ELj4294967295EEE@Base 13
 _ZTSN5SPIRV17SPIRVInstTemplateINS_12SPIRVCompareELN3spv2OpE171ELb1ELj5ELb0ELj4294967295ELj4294967295ELj4294967295EEE@Base 13
 _ZTSN5SPIRV17SPIRVInstTemplateINS_12SPIRVCompareELN3spv2OpE172ELb1ELj5ELb0ELj4294967295ELj4294967295ELj4294967295EEE@Base 13
 _ZTSN5SPIRV17SPIRVInstTemplateINS_12SPIRVCompareELN3spv2OpE173ELb1ELj5ELb0ELj4294967295ELj4294967295ELj4294967295EEE@Base 13
 _ZTSN5SPIRV17SPIRVInstTemplateINS_12SPIRVCompareELN3spv2OpE174ELb1ELj5ELb0ELj4294967295ELj4294967295ELj4294967295EEE@Base 13
 _ZTSN5SPIRV17SPIRVInstTemplateINS_12SPIRVCompareELN3spv2OpE175ELb1ELj5ELb0ELj4294967295ELj4294967295ELj4294967295EEE@Base 13
 _ZTSN5SPIRV17SPIRVInstTemplateINS_12SPIRVCompareELN3spv2OpE176ELb1ELj5ELb0ELj4294967295ELj4294967295ELj4294967295EEE@Base 13
 _ZTSN5SPIRV17SPIRVInstTemplateINS_12SPIRVCompareELN3spv2OpE177ELb1ELj5ELb0ELj4294967295ELj4294967295ELj4294967295EEE@Base 13
 _ZTSN5SPIRV17SPIRVInstTemplateINS_12SPIRVCompareELN3spv2OpE178ELb1ELj5ELb0ELj4294967295ELj4294967295ELj4294967295EEE@Base 13
 _ZTSN5SPIRV17SPIRVInstTemplateINS_12SPIRVCompareELN3spv2OpE179ELb1ELj5ELb0ELj4294967295ELj4294967295ELj4294967295EEE@Base 13
 _ZTSN5SPIRV17SPIRVInstTemplateINS_12SPIRVCompareELN3spv2OpE180ELb1ELj5ELb0ELj4294967295ELj4294967295ELj4294967295EEE@Base 13
 _ZTSN5SPIRV17SPIRVInstTemplateINS_12SPIRVCompareELN3spv2OpE181ELb1ELj5ELb0ELj4294967295ELj4294967295ELj4294967295EEE@Base 13
 _ZTSN5SPIRV17SPIRVInstTemplateINS_12SPIRVCompareELN3spv2OpE182ELb1ELj5ELb0ELj4294967295ELj4294967295ELj4294967295EEE@Base 13
 _ZTSN5SPIRV17SPIRVInstTemplateINS_12SPIRVCompareELN3spv2OpE183ELb1ELj5ELb0ELj4294967295ELj4294967295ELj4294967295EEE@Base 13
 _ZTSN5SPIRV17SPIRVInstTemplateINS_12SPIRVCompareELN3spv2OpE184ELb1ELj5ELb0ELj4294967295ELj4294967295ELj4294967295EEE@Base 13
 _ZTSN5SPIRV17SPIRVInstTemplateINS_12SPIRVCompareELN3spv2OpE185ELb1ELj5ELb0ELj4294967295ELj4294967295ELj4294967295EEE@Base 13
 _ZTSN5SPIRV17SPIRVInstTemplateINS_12SPIRVCompareELN3spv2OpE186ELb1ELj5ELb0ELj4294967295ELj4294967295ELj4294967295EEE@Base 13
 _ZTSN5SPIRV17SPIRVInstTemplateINS_12SPIRVCompareELN3spv2OpE187ELb1ELj5ELb0ELj4294967295ELj4294967295ELj4294967295EEE@Base 13
 _ZTSN5SPIRV17SPIRVInstTemplateINS_12SPIRVCompareELN3spv2OpE188ELb1ELj5ELb0ELj4294967295ELj4294967295ELj4294967295EEE@Base 13
 _ZTSN5SPIRV17SPIRVInstTemplateINS_12SPIRVCompareELN3spv2OpE189ELb1ELj5ELb0ELj4294967295ELj4294967295ELj4294967295EEE@Base 13
 _ZTSN5SPIRV17SPIRVInstTemplateINS_12SPIRVCompareELN3spv2OpE190ELb1ELj5ELb0ELj4294967295ELj4294967295ELj4294967295EEE@Base 13
 _ZTSN5SPIRV17SPIRVInstTemplateINS_12SPIRVCompareELN3spv2OpE191ELb1ELj5ELb0ELj4294967295ELj4294967295ELj4294967295EEE@Base 13
 _ZTSN5SPIRV17SPIRVInstTemplateINS_15SPIRVDotKHRBaseELN3spv2OpE4450ELb1ELj5ELb1ELj2ELj4294967295ELj4294967295EEE@Base 13
 _ZTSN5SPIRV17SPIRVInstTemplateINS_15SPIRVDotKHRBaseELN3spv2OpE4451ELb1ELj5ELb1ELj2ELj4294967295ELj4294967295EEE@Base 13
 _ZTSN5SPIRV17SPIRVInstTemplateINS_15SPIRVDotKHRBaseELN3spv2OpE4452ELb1ELj5ELb1ELj2ELj4294967295ELj4294967295EEE@Base 13
 _ZTSN5SPIRV17SPIRVInstTemplateINS_15SPIRVDotKHRBaseELN3spv2OpE4453ELb1ELj6ELb1ELj3ELj4294967295ELj4294967295EEE@Base 13
 _ZTSN5SPIRV17SPIRVInstTemplateINS_15SPIRVDotKHRBaseELN3spv2OpE4454ELb1ELj6ELb1ELj3ELj4294967295ELj4294967295EEE@Base 13
 _ZTSN5SPIRV17SPIRVInstTemplateINS_15SPIRVDotKHRBaseELN3spv2OpE4455ELb1ELj6ELb1ELj3ELj4294967295ELj4294967295EEE@Base 13
 _ZTSN5SPIRV17SPIRVInstTemplateINS_15SPIRVSelectBaseELN3spv2OpE169ELb1ELj6ELb0ELj4294967295ELj4294967295ELj4294967295EEE@Base 13
 _ZTSN5SPIRV17SPIRVInstTemplateINS_17SPIRVComplexFloatELN3spv2OpE6415ELb1ELj5ELb0ELj4294967295ELj4294967295ELj4294967295EEE@Base 15
 _ZTSN5SPIRV17SPIRVInstTemplateINS_17SPIRVComplexFloatELN3spv2OpE6416ELb1ELj5ELb0ELj4294967295ELj4294967295ELj4294967295EEE@Base 15
 _ZTSN5SPIRV17SPIRVInstTemplateINS_17SPIRVPipeInstBaseELN3spv2OpE274ELb1ELj7ELb0ELj4294967295ELj4294967295ELj4294967295EEE@Base 13
 _ZTSN5SPIRV17SPIRVInstTemplateINS_17SPIRVPipeInstBaseELN3spv2OpE275ELb1ELj7ELb0ELj4294967295ELj4294967295ELj4294967295EEE@Base 13
 _ZTSN5SPIRV17SPIRVInstTemplateINS_17SPIRVPipeInstBaseELN3spv2OpE276ELb1ELj9ELb0ELj4294967295ELj4294967295ELj4294967295EEE@Base 13
 _ZTSN5SPIRV17SPIRVInstTemplateINS_17SPIRVPipeInstBaseELN3spv2OpE277ELb1ELj9ELb0ELj4294967295ELj4294967295ELj4294967295EEE@Base 13
 _ZTSN5SPIRV17SPIRVInstTemplateINS_17SPIRVPipeInstBaseELN3spv2OpE278ELb1ELj7ELb0ELj4294967295ELj4294967295ELj4294967295EEE@Base 13
 _ZTSN5SPIRV17SPIRVInstTemplateINS_17SPIRVPipeInstBaseELN3spv2OpE279ELb1ELj7ELb0ELj4294967295ELj4294967295ELj4294967295EEE@Base 13
 _ZTSN5SPIRV17SPIRVInstTemplateINS_17SPIRVPipeInstBaseELN3spv2OpE280ELb0ELj5ELb0ELj4294967295ELj4294967295ELj4294967295EEE@Base 13
 _ZTSN5SPIRV17SPIRVInstTemplateINS_17SPIRVPipeInstBaseELN3spv2OpE281ELb0ELj5ELb0ELj4294967295ELj4294967295ELj4294967295EEE@Base 13
 _ZTSN5SPIRV17SPIRVInstTemplateINS_17SPIRVPipeInstBaseELN3spv2OpE282ELb1ELj4ELb0ELj4294967295ELj4294967295ELj4294967295EEE@Base 13
 _ZTSN5SPIRV17SPIRVInstTemplateINS_17SPIRVPipeInstBaseELN3spv2OpE283ELb1ELj6ELb0ELj4294967295ELj4294967295ELj4294967295EEE@Base 13
 _ZTSN5SPIRV17SPIRVInstTemplateINS_17SPIRVPipeInstBaseELN3spv2OpE284ELb1ELj6ELb0ELj4294967295ELj4294967295ELj4294967295EEE@Base 13
 _ZTSN5SPIRV17SPIRVInstTemplateINS_18SPIRVGroupInstBaseELN3spv2OpE261ELb1ELj5ELb0ELj4294967295ELj4294967295ELj4294967295EEE@Base 13
 _ZTSN5SPIRV17SPIRVInstTemplateINS_18SPIRVGroupInstBaseELN3spv2OpE262ELb1ELj5ELb0ELj4294967295ELj4294967295ELj4294967295EEE@Base 13
 _ZTSN5SPIRV17SPIRVInstTemplateINS_18SPIRVGroupInstBaseELN3spv2OpE263ELb1ELj6ELb0ELj4294967295ELj4294967295ELj4294967295EEE@Base 13
 _ZTSN5SPIRV17SPIRVInstTemplateINS_18SPIRVGroupInstBaseELN3spv2OpE264ELb1ELj6ELb0ELj1ELj4294967295ELj4294967295EEE@Base 13
 _ZTSN5SPIRV17SPIRVInstTemplateINS_18SPIRVGroupInstBaseELN3spv2OpE265ELb1ELj6ELb0ELj1ELj4294967295ELj4294967295EEE@Base 13
 _ZTSN5SPIRV17SPIRVInstTemplateINS_18SPIRVGroupInstBaseELN3spv2OpE266ELb1ELj6ELb0ELj1ELj4294967295ELj4294967295EEE@Base 13
 _ZTSN5SPIRV17SPIRVInstTemplateINS_18SPIRVGroupInstBaseELN3spv2OpE267ELb1ELj6ELb0ELj1ELj4294967295ELj4294967295EEE@Base 13
 _ZTSN5SPIRV17SPIRVInstTemplateINS_18SPIRVGroupInstBaseELN3spv2OpE268ELb1ELj6ELb0ELj1ELj4294967295ELj4294967295EEE@Base 13
 _ZTSN5SPIRV17SPIRVInstTemplateINS_18SPIRVGroupInstBaseELN3spv2OpE269ELb1ELj6ELb0ELj1ELj4294967295ELj4294967295EEE@Base 13
 _ZTSN5SPIRV17SPIRVInstTemplateINS_18SPIRVGroupInstBaseELN3spv2OpE270ELb1ELj6ELb0ELj1ELj4294967295ELj4294967295EEE@Base 13
 _ZTSN5SPIRV17SPIRVInstTemplateINS_18SPIRVGroupInstBaseELN3spv2OpE271ELb1ELj6ELb0ELj1ELj4294967295ELj4294967295EEE@Base 13
 _ZTSN5SPIRV17SPIRVInstTemplateINS_18SPIRVGroupInstBaseELN3spv2OpE285ELb1ELj8ELb0ELj4294967295ELj4294967295ELj4294967295EEE@Base 13
 _ZTSN5SPIRV17SPIRVInstTemplateINS_18SPIRVGroupInstBaseELN3spv2OpE286ELb1ELj8ELb0ELj4294967295ELj4294967295ELj4294967295EEE@Base 13
 _ZTSN5SPIRV17SPIRVInstTemplateINS_18SPIRVGroupInstBaseELN3spv2OpE287ELb0ELj6ELb0ELj4294967295ELj4294967295ELj4294967295EEE@Base 13
 _ZTSN5SPIRV17SPIRVInstTemplateINS_18SPIRVGroupInstBaseELN3spv2OpE288ELb0ELj6ELb0ELj4294967295ELj4294967295ELj4294967295EEE@Base 13
 _ZTSN5SPIRV17SPIRVInstTemplateINS_18SPIRVImageInstBaseELN3spv2OpE101ELb1ELj4ELb0ELj4294967295ELj4294967295ELj4294967295EEE@Base 13
 _ZTSN5SPIRV17SPIRVInstTemplateINS_18SPIRVImageInstBaseELN3spv2OpE102ELb1ELj4ELb0ELj4294967295ELj4294967295ELj4294967295EEE@Base 13
 _ZTSN5SPIRV17SPIRVInstTemplateINS_18SPIRVImageInstBaseELN3spv2OpE103ELb1ELj5ELb0ELj4294967295ELj4294967295ELj4294967295EEE@Base 13
 _ZTSN5SPIRV17SPIRVInstTemplateINS_18SPIRVImageInstBaseELN3spv2OpE104ELb1ELj4ELb0ELj4294967295ELj4294967295ELj4294967295EEE@Base 13
 _ZTSN5SPIRV17SPIRVInstTemplateINS_18SPIRVImageInstBaseELN3spv2OpE105ELb1ELj5ELb0ELj4294967295ELj4294967295ELj4294967295EEE@Base 13
 _ZTSN5SPIRV17SPIRVInstTemplateINS_18SPIRVImageInstBaseELN3spv2OpE106ELb1ELj4ELb0ELj4294967295ELj4294967295ELj4294967295EEE@Base 13
 _ZTSN5SPIRV17SPIRVInstTemplateINS_18SPIRVImageInstBaseELN3spv2OpE107ELb1ELj4ELb0ELj4294967295ELj4294967295ELj4294967295EEE@Base 13
 _ZTSN5SPIRV17SPIRVInstTemplateINS_18SPIRVImageInstBaseELN3spv2OpE86ELb1ELj5ELb0ELj4294967295ELj4294967295ELj4294967295EEE@Base 13
 _ZTSN5SPIRV17SPIRVInstTemplateINS_18SPIRVImageInstBaseELN3spv2OpE87ELb1ELj5ELb1ELj4294967295ELj4294967295ELj4294967295EEE@Base 13
 _ZTSN5SPIRV17SPIRVInstTemplateINS_18SPIRVImageInstBaseELN3spv2OpE88ELb1ELj7ELb1ELj2ELj4294967295ELj4294967295EEE@Base 13
 _ZTSN5SPIRV17SPIRVInstTemplateINS_18SPIRVImageInstBaseELN3spv2OpE98ELb1ELj5ELb1ELj2ELj4294967295ELj4294967295EEE@Base 13
 _ZTSN5SPIRV17SPIRVInstTemplateINS_18SPIRVImageInstBaseELN3spv2OpE99ELb0ELj4ELb1ELj3ELj4294967295ELj4294967295EEE@Base 13
 _ZTSN5SPIRV17SPIRVInstTemplateINS_19SPIRVAtomicInstBaseELN3spv2OpE225ELb0ELj3ELb0ELj4294967295ELj4294967295ELj4294967295EEE@Base 13
 _ZTSN5SPIRV17SPIRVInstTemplateINS_19SPIRVAtomicInstBaseELN3spv2OpE227ELb1ELj6ELb0ELj4294967295ELj4294967295ELj4294967295EEE@Base 13
 _ZTSN5SPIRV17SPIRVInstTemplateINS_19SPIRVAtomicInstBaseELN3spv2OpE229ELb1ELj7ELb0ELj4294967295ELj4294967295ELj4294967295EEE@Base 13
 _ZTSN5SPIRV17SPIRVInstTemplateINS_19SPIRVAtomicInstBaseELN3spv2OpE230ELb1ELj9ELb0ELj4294967295ELj4294967295ELj4294967295EEE@Base 13
 _ZTSN5SPIRV17SPIRVInstTemplateINS_19SPIRVAtomicInstBaseELN3spv2OpE231ELb1ELj9ELb0ELj4294967295ELj4294967295ELj4294967295EEE@Base 13
 _ZTSN5SPIRV17SPIRVInstTemplateINS_19SPIRVAtomicInstBaseELN3spv2OpE232ELb1ELj6ELb0ELj4294967295ELj4294967295ELj4294967295EEE@Base 13
 _ZTSN5SPIRV17SPIRVInstTemplateINS_19SPIRVAtomicInstBaseELN3spv2OpE233ELb1ELj6ELb0ELj4294967295ELj4294967295ELj4294967295EEE@Base 13
 _ZTSN5SPIRV17SPIRVInstTemplateINS_19SPIRVAtomicInstBaseELN3spv2OpE234ELb1ELj7ELb0ELj4294967295ELj4294967295ELj4294967295EEE@Base 13
 _ZTSN5SPIRV17SPIRVInstTemplateINS_19SPIRVAtomicInstBaseELN3spv2OpE235ELb1ELj7ELb0ELj4294967295ELj4294967295ELj4294967295EEE@Base 13
 _ZTSN5SPIRV17SPIRVInstTemplateINS_19SPIRVAtomicInstBaseELN3spv2OpE236ELb1ELj7ELb0ELj4294967295ELj4294967295ELj4294967295EEE@Base 13
 _ZTSN5SPIRV17SPIRVInstTemplateINS_19SPIRVAtomicInstBaseELN3spv2OpE237ELb1ELj7ELb0ELj4294967295ELj4294967295ELj4294967295EEE@Base 13
 _ZTSN5SPIRV17SPIRVInstTemplateINS_19SPIRVAtomicInstBaseELN3spv2OpE238ELb1ELj7ELb0ELj4294967295ELj4294967295ELj4294967295EEE@Base 13
 _ZTSN5SPIRV17SPIRVInstTemplateINS_19SPIRVAtomicInstBaseELN3spv2OpE239ELb1ELj7ELb0ELj4294967295ELj4294967295ELj4294967295EEE@Base 13
 _ZTSN5SPIRV17SPIRVInstTemplateINS_19SPIRVAtomicInstBaseELN3spv2OpE240ELb1ELj7ELb0ELj4294967295ELj4294967295ELj4294967295EEE@Base 13
 _ZTSN5SPIRV17SPIRVInstTemplateINS_19SPIRVAtomicInstBaseELN3spv2OpE241ELb1ELj7ELb0ELj4294967295ELj4294967295ELj4294967295EEE@Base 13
 _ZTSN5SPIRV17SPIRVInstTemplateINS_19SPIRVAtomicInstBaseELN3spv2OpE242ELb1ELj7ELb0ELj4294967295ELj4294967295ELj4294967295EEE@Base 13
 _ZTSN5SPIRV17SPIRVInstTemplateINS_19SPIRVAtomicInstBaseELN3spv2OpE318ELb1ELj6ELb0ELj4294967295ELj4294967295ELj4294967295EEE@Base 13
 _ZTSN5SPIRV17SPIRVInstTemplateINS_19SPIRVAtomicInstBaseELN3spv2OpE319ELb0ELj4ELb0ELj4294967295ELj4294967295ELj4294967295EEE@Base 13
 _ZTSN5SPIRV17SPIRVInstTemplateINS_19SPIRVDevEnqInstBaseELN3spv2OpE291ELb1ELj7ELb0ELj4294967295ELj4294967295ELj4294967295EEE@Base 13
 _ZTSN5SPIRV17SPIRVInstTemplateINS_19SPIRVDevEnqInstBaseELN3spv2OpE292ELb1ELj13ELb1ELj4294967295ELj4294967295ELj4294967295EEE@Base 13
 _ZTSN5SPIRV17SPIRVInstTemplateINS_19SPIRVDevEnqInstBaseELN3spv2OpE293ELb1ELj8ELb0ELj4294967295ELj4294967295ELj4294967295EEE@Base 13
 _ZTSN5SPIRV17SPIRVInstTemplateINS_19SPIRVDevEnqInstBaseELN3spv2OpE294ELb1ELj8ELb0ELj4294967295ELj4294967295ELj4294967295EEE@Base 13
 _ZTSN5SPIRV17SPIRVInstTemplateINS_19SPIRVDevEnqInstBaseELN3spv2OpE295ELb1ELj7ELb0ELj4294967295ELj4294967295ELj4294967295EEE@Base 13
 _ZTSN5SPIRV17SPIRVInstTemplateINS_19SPIRVDevEnqInstBaseELN3spv2OpE296ELb1ELj7ELb0ELj4294967295ELj4294967295ELj4294967295EEE@Base 13
 _ZTSN5SPIRV17SPIRVInstTemplateINS_19SPIRVDevEnqInstBaseELN3spv2OpE297ELb0ELj2ELb0ELj4294967295ELj4294967295ELj4294967295EEE@Base 13
 _ZTSN5SPIRV17SPIRVInstTemplateINS_19SPIRVDevEnqInstBaseELN3spv2OpE298ELb0ELj2ELb0ELj4294967295ELj4294967295ELj4294967295EEE@Base 13
 _ZTSN5SPIRV17SPIRVInstTemplateINS_19SPIRVDevEnqInstBaseELN3spv2OpE299ELb1ELj3ELb0ELj4294967295ELj4294967295ELj4294967295EEE@Base 13
 _ZTSN5SPIRV17SPIRVInstTemplateINS_19SPIRVDevEnqInstBaseELN3spv2OpE300ELb1ELj4ELb0ELj4294967295ELj4294967295ELj4294967295EEE@Base 13
 _ZTSN5SPIRV17SPIRVInstTemplateINS_19SPIRVDevEnqInstBaseELN3spv2OpE301ELb0ELj3ELb0ELj4294967295ELj4294967295ELj4294967295EEE@Base 13
 _ZTSN5SPIRV17SPIRVInstTemplateINS_19SPIRVDevEnqInstBaseELN3spv2OpE302ELb0ELj4ELb0ELj4294967295ELj4294967295ELj4294967295EEE@Base 13
 _ZTSN5SPIRV17SPIRVInstTemplateINS_19SPIRVDevEnqInstBaseELN3spv2OpE303ELb1ELj3ELb0ELj4294967295ELj4294967295ELj4294967295EEE@Base 13
 _ZTSN5SPIRV17SPIRVInstTemplateINS_19SPIRVDevEnqInstBaseELN3spv2OpE304ELb1ELj6ELb0ELj4294967295ELj4294967295ELj4294967295EEE@Base 13
 _ZTSN5SPIRV17SPIRVInstTemplateINS_20SPIRVAccessChainBaseELN3spv2OpE65ELb1ELj4ELb1ELj4294967295ELj4294967295ELj4294967295EEE@Base 13
 _ZTSN5SPIRV17SPIRVInstTemplateINS_20SPIRVAccessChainBaseELN3spv2OpE66ELb1ELj4ELb1ELj4294967295ELj4294967295ELj4294967295EEE@Base 13
 _ZTSN5SPIRV17SPIRVInstTemplateINS_20SPIRVAccessChainBaseELN3spv2OpE67ELb1ELj5ELb1ELj4294967295ELj4294967295ELj4294967295EEE@Base 13
 _ZTSN5SPIRV17SPIRVInstTemplateINS_20SPIRVAccessChainBaseELN3spv2OpE70ELb1ELj5ELb1ELj4294967295ELj4294967295ELj4294967295EEE@Base 13
 _ZTSN5SPIRV17SPIRVInstTemplateINS_20SPIRVAtomicStoreInstELN3spv2OpE228ELb0ELj5ELb0ELj4294967295ELj4294967295ELj4294967295EEE@Base 13
 _ZTSN5SPIRV17SPIRVInstTemplateINS_21SPIRVInstTemplateBaseELN3spv2OpE123ELb1ELj5ELb0ELj1ELj4294967295ELj4294967295EEE@Base 13
 _ZTSN5SPIRV17SPIRVInstTemplateINS_21SPIRVInstTemplateBaseELN3spv2OpE260ELb0ELj4ELb0ELj4294967295ELj4294967295ELj4294967295EEE@Base 13
 _ZTSN5SPIRV17SPIRVInstTemplateINS_21SPIRVInstTemplateBaseELN3spv2OpE69ELb1ELj4ELb0ELj4294967295ELj4294967295ELj4294967295EEE@Base 13
 _ZTSN5SPIRV17SPIRVInstTemplateINS_22SPIRVArbFloatIntelInstELN3spv2OpE5840ELb1ELj9ELb0ELj4294967295ELj4294967295ELj4294967295EEE@Base 13
 _ZTSN5SPIRV17SPIRVInstTemplateINS_22SPIRVArbFloatIntelInstELN3spv2OpE5841ELb1ELj9ELb0ELj4294967295ELj4294967295ELj4294967295EEE@Base 13
 _ZTSN5SPIRV17SPIRVInstTemplateINS_22SPIRVArbFloatIntelInstELN3spv2OpE5842ELb1ELj9ELb0ELj4294967295ELj4294967295ELj4294967295EEE@Base 13
 _ZTSN5SPIRV17SPIRVInstTemplateINS_22SPIRVArbFloatIntelInstELN3spv2OpE5843ELb1ELj9ELb0ELj4294967295ELj4294967295ELj4294967295EEE@Base 13
 _ZTSN5SPIRV17SPIRVInstTemplateINS_22SPIRVArbFloatIntelInstELN3spv2OpE5846ELb1ELj11ELb0ELj4294967295ELj4294967295ELj4294967295EEE@Base 13
 _ZTSN5SPIRV17SPIRVInstTemplateINS_22SPIRVArbFloatIntelInstELN3spv2OpE5847ELb1ELj11ELb0ELj4294967295ELj4294967295ELj4294967295EEE@Base 13
 _ZTSN5SPIRV17SPIRVInstTemplateINS_22SPIRVArbFloatIntelInstELN3spv2OpE5848ELb1ELj11ELb0ELj4294967295ELj4294967295ELj4294967295EEE@Base 13
 _ZTSN5SPIRV17SPIRVInstTemplateINS_22SPIRVArbFloatIntelInstELN3spv2OpE5849ELb1ELj11ELb0ELj4294967295ELj4294967295ELj4294967295EEE@Base 13
 _ZTSN5SPIRV17SPIRVInstTemplateINS_22SPIRVArbFloatIntelInstELN3spv2OpE5850ELb1ELj7ELb0ELj4294967295ELj4294967295ELj4294967295EEE@Base 13
 _ZTSN5SPIRV17SPIRVInstTemplateINS_22SPIRVArbFloatIntelInstELN3spv2OpE5851ELb1ELj7ELb0ELj4294967295ELj4294967295ELj4294967295EEE@Base 13
 _ZTSN5SPIRV17SPIRVInstTemplateINS_22SPIRVArbFloatIntelInstELN3spv2OpE5852ELb1ELj7ELb0ELj4294967295ELj4294967295ELj4294967295EEE@Base 13
 _ZTSN5SPIRV17SPIRVInstTemplateINS_22SPIRVArbFloatIntelInstELN3spv2OpE5853ELb1ELj7ELb0ELj4294967295ELj4294967295ELj4294967295EEE@Base 13
 _ZTSN5SPIRV17SPIRVInstTemplateINS_22SPIRVArbFloatIntelInstELN3spv2OpE5854ELb1ELj7ELb0ELj4294967295ELj4294967295ELj4294967295EEE@Base 13
 _ZTSN5SPIRV17SPIRVInstTemplateINS_22SPIRVArbFloatIntelInstELN3spv2OpE5855ELb1ELj9ELb0ELj4294967295ELj4294967295ELj4294967295EEE@Base 13
 _ZTSN5SPIRV17SPIRVInstTemplateINS_22SPIRVArbFloatIntelInstELN3spv2OpE5856ELb1ELj9ELb0ELj4294967295ELj4294967295ELj4294967295EEE@Base 13
 _ZTSN5SPIRV17SPIRVInstTemplateINS_22SPIRVArbFloatIntelInstELN3spv2OpE5857ELb1ELj9ELb0ELj4294967295ELj4294967295ELj4294967295EEE@Base 13
 _ZTSN5SPIRV17SPIRVInstTemplateINS_22SPIRVArbFloatIntelInstELN3spv2OpE5858ELb1ELj11ELb0ELj4294967295ELj4294967295ELj4294967295EEE@Base 13
 _ZTSN5SPIRV17SPIRVInstTemplateINS_22SPIRVArbFloatIntelInstELN3spv2OpE5859ELb1ELj9ELb0ELj4294967295ELj4294967295ELj4294967295EEE@Base 13
 _ZTSN5SPIRV17SPIRVInstTemplateINS_22SPIRVArbFloatIntelInstELN3spv2OpE5860ELb1ELj9ELb0ELj4294967295ELj4294967295ELj4294967295EEE@Base 13
 _ZTSN5SPIRV17SPIRVInstTemplateINS_22SPIRVArbFloatIntelInstELN3spv2OpE5861ELb1ELj9ELb0ELj4294967295ELj4294967295ELj4294967295EEE@Base 13
 _ZTSN5SPIRV17SPIRVInstTemplateINS_22SPIRVArbFloatIntelInstELN3spv2OpE5862ELb1ELj9ELb0ELj4294967295ELj4294967295ELj4294967295EEE@Base 13
 _ZTSN5SPIRV17SPIRVInstTemplateINS_22SPIRVArbFloatIntelInstELN3spv2OpE5863ELb1ELj9ELb0ELj4294967295ELj4294967295ELj4294967295EEE@Base 13
 _ZTSN5SPIRV17SPIRVInstTemplateINS_22SPIRVArbFloatIntelInstELN3spv2OpE5864ELb1ELj9ELb0ELj4294967295ELj4294967295ELj4294967295EEE@Base 13
 _ZTSN5SPIRV17SPIRVInstTemplateINS_22SPIRVArbFloatIntelInstELN3spv2OpE5865ELb1ELj9ELb0ELj4294967295ELj4294967295ELj4294967295EEE@Base 13
 _ZTSN5SPIRV17SPIRVInstTemplateINS_22SPIRVArbFloatIntelInstELN3spv2OpE5866ELb1ELj9ELb0ELj4294967295ELj4294967295ELj4294967295EEE@Base 13
 _ZTSN5SPIRV17SPIRVInstTemplateINS_22SPIRVArbFloatIntelInstELN3spv2OpE5867ELb1ELj9ELb0ELj4294967295ELj4294967295ELj4294967295EEE@Base 13
 _ZTSN5SPIRV17SPIRVInstTemplateINS_22SPIRVArbFloatIntelInstELN3spv2OpE5868ELb1ELj9ELb0ELj4294967295ELj4294967295ELj4294967295EEE@Base 13
 _ZTSN5SPIRV17SPIRVInstTemplateINS_22SPIRVArbFloatIntelInstELN3spv2OpE5869ELb1ELj9ELb0ELj4294967295ELj4294967295ELj4294967295EEE@Base 13
 _ZTSN5SPIRV17SPIRVInstTemplateINS_22SPIRVArbFloatIntelInstELN3spv2OpE5870ELb1ELj9ELb0ELj4294967295ELj4294967295ELj4294967295EEE@Base 13
 _ZTSN5SPIRV17SPIRVInstTemplateINS_22SPIRVArbFloatIntelInstELN3spv2OpE5871ELb1ELj9ELb0ELj4294967295ELj4294967295ELj4294967295EEE@Base 13
 _ZTSN5SPIRV17SPIRVInstTemplateINS_22SPIRVArbFloatIntelInstELN3spv2OpE5872ELb1ELj9ELb0ELj4294967295ELj4294967295ELj4294967295EEE@Base 13
 _ZTSN5SPIRV17SPIRVInstTemplateINS_22SPIRVArbFloatIntelInstELN3spv2OpE5873ELb1ELj9ELb0ELj4294967295ELj4294967295ELj4294967295EEE@Base 13
 _ZTSN5SPIRV17SPIRVInstTemplateINS_22SPIRVArbFloatIntelInstELN3spv2OpE5874ELb1ELj9ELb0ELj4294967295ELj4294967295ELj4294967295EEE@Base 13
 _ZTSN5SPIRV17SPIRVInstTemplateINS_22SPIRVArbFloatIntelInstELN3spv2OpE5875ELb1ELj9ELb0ELj4294967295ELj4294967295ELj4294967295EEE@Base 13
 _ZTSN5SPIRV17SPIRVInstTemplateINS_22SPIRVArbFloatIntelInstELN3spv2OpE5876ELb1ELj9ELb0ELj4294967295ELj4294967295ELj4294967295EEE@Base 13
 _ZTSN5SPIRV17SPIRVInstTemplateINS_22SPIRVArbFloatIntelInstELN3spv2OpE5877ELb1ELj9ELb0ELj4294967295ELj4294967295ELj4294967295EEE@Base 13
 _ZTSN5SPIRV17SPIRVInstTemplateINS_22SPIRVArbFloatIntelInstELN3spv2OpE5878ELb1ELj9ELb0ELj4294967295ELj4294967295ELj4294967295EEE@Base 13
 _ZTSN5SPIRV17SPIRVInstTemplateINS_22SPIRVArbFloatIntelInstELN3spv2OpE5879ELb1ELj11ELb0ELj4294967295ELj4294967295ELj4294967295EEE@Base 13
 _ZTSN5SPIRV17SPIRVInstTemplateINS_22SPIRVArbFloatIntelInstELN3spv2OpE5880ELb1ELj11ELb0ELj4294967295ELj4294967295ELj4294967295EEE@Base 13
 _ZTSN5SPIRV17SPIRVInstTemplateINS_22SPIRVArbFloatIntelInstELN3spv2OpE5881ELb1ELj11ELb0ELj4294967295ELj4294967295ELj4294967295EEE@Base 13
 _ZTSN5SPIRV17SPIRVInstTemplateINS_22SPIRVArbFloatIntelInstELN3spv2OpE5882ELb1ELj11ELb0ELj4294967295ELj4294967295ELj4294967295EEE@Base 14
 _ZTSN5SPIRV17SPIRVInstTemplateINS_22SPIRVAtomicFAddEXTInstELN3spv2OpE6035ELb1ELj7ELb0ELj4294967295ELj4294967295ELj4294967295EEE@Base 13
 _ZTSN5SPIRV17SPIRVInstTemplateINS_22SPIRVExpectKHRInstBaseELN3spv2OpE5631ELb1ELj5ELb0ELj4294967295ELj4294967295ELj4294967295EEE@Base 13
 _ZTSN5SPIRV17SPIRVInstTemplateINS_22SPIRVVectorShuffleBaseELN3spv2OpE79ELb1ELj5ELb1ELj4294967295ELj4294967295ELj4294967295EEE@Base 13
 _ZTSN5SPIRV17SPIRVInstTemplateINS_23SPIRVSpecConstantOpBaseELN3spv2OpE52ELb1ELj4ELb1ELj0ELj4294967295ELj4294967295EEE@Base 14
 _ZTSN5SPIRV17SPIRVInstTemplateINS_24SPIRVCompositeInsertBaseELN3spv2OpE82ELb1ELj5ELb1ELj4294967295ELj4294967295ELj4294967295EEE@Base 13
 _ZTSN5SPIRV17SPIRVInstTemplateINS_24SPIRVFixedPointIntelInstELN3spv2OpE5923ELb1ELj9ELb0ELj4294967295ELj4294967295ELj4294967295EEE@Base 13
 _ZTSN5SPIRV17SPIRVInstTemplateINS_24SPIRVFixedPointIntelInstELN3spv2OpE5924ELb1ELj9ELb0ELj4294967295ELj4294967295ELj4294967295EEE@Base 13
 _ZTSN5SPIRV17SPIRVInstTemplateINS_24SPIRVFixedPointIntelInstELN3spv2OpE5925ELb1ELj9ELb0ELj4294967295ELj4294967295ELj4294967295EEE@Base 13
 _ZTSN5SPIRV17SPIRVInstTemplateINS_24SPIRVFixedPointIntelInstELN3spv2OpE5926ELb1ELj9ELb0ELj4294967295ELj4294967295ELj4294967295EEE@Base 13
 _ZTSN5SPIRV17SPIRVInstTemplateINS_24SPIRVFixedPointIntelInstELN3spv2OpE5927ELb1ELj9ELb0ELj4294967295ELj4294967295ELj4294967295EEE@Base 13
 _ZTSN5SPIRV17SPIRVInstTemplateINS_24SPIRVFixedPointIntelInstELN3spv2OpE5928ELb1ELj9ELb0ELj4294967295ELj4294967295ELj4294967295EEE@Base 13
 _ZTSN5SPIRV17SPIRVInstTemplateINS_24SPIRVFixedPointIntelInstELN3spv2OpE5929ELb1ELj9ELb0ELj4294967295ELj4294967295ELj4294967295EEE@Base 13
 _ZTSN5SPIRV17SPIRVInstTemplateINS_24SPIRVFixedPointIntelInstELN3spv2OpE5930ELb1ELj9ELb0ELj4294967295ELj4294967295ELj4294967295EEE@Base 13
 _ZTSN5SPIRV17SPIRVInstTemplateINS_24SPIRVFixedPointIntelInstELN3spv2OpE5931ELb1ELj9ELb0ELj4294967295ELj4294967295ELj4294967295EEE@Base 13
 _ZTSN5SPIRV17SPIRVInstTemplateINS_24SPIRVFixedPointIntelInstELN3spv2OpE5932ELb1ELj9ELb0ELj4294967295ELj4294967295ELj4294967295EEE@Base 13
 _ZTSN5SPIRV17SPIRVInstTemplateINS_24SPIRVFixedPointIntelInstELN3spv2OpE5933ELb1ELj9ELb0ELj4294967295ELj4294967295ELj4294967295EEE@Base 13
 _ZTSN5SPIRV17SPIRVInstTemplateINS_24SPIRVPipeStorageInstBaseELN3spv2OpE324ELb1ELj4ELb0ELj4294967295ELj4294967295ELj4294967295EEE@Base 13
 _ZTSN5SPIRV17SPIRVInstTemplateINS_25SPIRVAtomicFMinMaxEXTBaseELN3spv2OpE5614ELb1ELj7ELb0ELj4294967295ELj4294967295ELj4294967295EEE@Base 13
 _ZTSN5SPIRV17SPIRVInstTemplateINS_25SPIRVAtomicFMinMaxEXTBaseELN3spv2OpE5615ELb1ELj7ELb0ELj4294967295ELj4294967295ELj4294967295EEE@Base 13
 _ZTSN5SPIRV17SPIRVInstTemplateINS_25SPIRVCompositeExtractBaseELN3spv2OpE81ELb1ELj4ELb1ELj4294967295ELj4294967295ELj4294967295EEE@Base 13
 _ZTSN5SPIRV17SPIRVInstTemplateINS_25SPIRVFPGARegINTELInstBaseELN3spv2OpE5949ELb1ELj4ELb0ELj4294967295ELj4294967295ELj4294967295EEE@Base 13
 _ZTSN5SPIRV17SPIRVInstTemplateINS_25SPIRVJointMatrixINTELInstELN3spv2OpE6120ELb1ELj6ELb1ELj4294967295ELj4294967295ELj4294967295EEE@Base 14
 _ZTSN5SPIRV17SPIRVInstTemplateINS_25SPIRVJointMatrixINTELInstELN3spv2OpE6121ELb0ELj5ELb1ELj4294967295ELj4294967295ELj4294967295EEE@Base 14
 _ZTSN5SPIRV17SPIRVInstTemplateINS_25SPIRVJointMatrixINTELInstELN3spv2OpE6122ELb1ELj7ELb0ELj4294967295ELj4294967295ELj4294967295EEE@Base 14
 _ZTSN5SPIRV17SPIRVInstTemplateINS_25SPIRVJointMatrixINTELInstELN3spv2OpE6410ELb1ELj4ELb0ELj4294967295ELj4294967295ELj4294967295EEE@Base 14
 _ZTSN5SPIRV17SPIRVInstTemplateINS_27SPIRVBlockingPipesIntelInstELN3spv2OpE5946ELb0ELj5ELb0ELj4294967295ELj4294967295ELj4294967295EEE@Base 13
 _ZTSN5SPIRV17SPIRVInstTemplateINS_27SPIRVBlockingPipesIntelInstELN3spv2OpE5947ELb0ELj5ELb0ELj4294967295ELj4294967295ELj4294967295EEE@Base 13
 _ZTSN5SPIRV17SPIRVInstTemplateINS_28SPIRVGroupNonUniformVoteInstELN3spv2OpE334ELb1ELj5ELb0ELj4294967295ELj4294967295ELj4294967295EEE@Base 13
 _ZTSN5SPIRV17SPIRVInstTemplateINS_28SPIRVGroupNonUniformVoteInstELN3spv2OpE335ELb1ELj5ELb0ELj4294967295ELj4294967295ELj4294967295EEE@Base 13
 _ZTSN5SPIRV17SPIRVInstTemplateINS_28SPIRVGroupNonUniformVoteInstELN3spv2OpE336ELb1ELj5ELb0ELj4294967295ELj4294967295ELj4294967295EEE@Base 13
 _ZTSN5SPIRV17SPIRVInstTemplateINS_29SPIRVGroupNonUniformElectInstELN3spv2OpE333ELb1ELj4ELb0ELj4294967295ELj4294967295ELj4294967295EEE@Base 13
 _ZTSN5SPIRV17SPIRVInstTemplateINS_29SPIRVSubgroupAVCIntelInstBaseELN3spv2OpE5699ELb1ELj5ELb0ELj4294967295ELj4294967295ELj4294967295EEE@Base 13
 _ZTSN5SPIRV17SPIRVInstTemplateINS_29SPIRVSubgroupAVCIntelInstBaseELN3spv2OpE5713ELb1ELj5ELb0ELj4294967295ELj4294967295ELj4294967295EEE@Base 13
 _ZTSN5SPIRV17SPIRVInstTemplateINS_29SPIRVSubgroupAVCIntelInstBaseELN3spv2OpE5714ELb1ELj5ELb0ELj4294967295ELj4294967295ELj4294967295EEE@Base 13
 _ZTSN5SPIRV17SPIRVInstTemplateINS_29SPIRVSubgroupAVCIntelInstBaseELN3spv2OpE5715ELb1ELj5ELb0ELj4294967295ELj4294967295ELj4294967295EEE@Base 13
 _ZTSN5SPIRV17SPIRVInstTemplateINS_29SPIRVSubgroupAVCIntelInstBaseELN3spv2OpE5716ELb1ELj5ELb0ELj4294967295ELj4294967295ELj4294967295EEE@Base 13
 _ZTSN5SPIRV17SPIRVInstTemplateINS_29SPIRVSubgroupAVCIntelInstBaseELN3spv2OpE5717ELb1ELj5ELb0ELj4294967295ELj4294967295ELj4294967295EEE@Base 13
 _ZTSN5SPIRV17SPIRVInstTemplateINS_29SPIRVSubgroupAVCIntelInstBaseELN3spv2OpE5718ELb1ELj5ELb0ELj4294967295ELj4294967295ELj4294967295EEE@Base 13
 _ZTSN5SPIRV17SPIRVInstTemplateINS_29SPIRVSubgroupAVCIntelInstBaseELN3spv2OpE5720ELb1ELj5ELb0ELj4294967295ELj4294967295ELj4294967295EEE@Base 13
 _ZTSN5SPIRV17SPIRVInstTemplateINS_29SPIRVSubgroupAVCIntelInstBaseELN3spv2OpE5721ELb1ELj3ELb0ELj4294967295ELj4294967295ELj4294967295EEE@Base 13
 _ZTSN5SPIRV17SPIRVInstTemplateINS_29SPIRVSubgroupAVCIntelInstBaseELN3spv2OpE5722ELb1ELj3ELb0ELj4294967295ELj4294967295ELj4294967295EEE@Base 13
 _ZTSN5SPIRV17SPIRVInstTemplateINS_29SPIRVSubgroupAVCIntelInstBaseELN3spv2OpE5723ELb1ELj3ELb0ELj4294967295ELj4294967295ELj4294967295EEE@Base 13
 _ZTSN5SPIRV17SPIRVInstTemplateINS_29SPIRVSubgroupAVCIntelInstBaseELN3spv2OpE5724ELb1ELj7ELb0ELj4294967295ELj4294967295ELj4294967295EEE@Base 13
 _ZTSN5SPIRV17SPIRVInstTemplateINS_29SPIRVSubgroupAVCIntelInstBaseELN3spv2OpE5728ELb1ELj4ELb0ELj4294967295ELj4294967295ELj4294967295EEE@Base 13
 _ZTSN5SPIRV17SPIRVInstTemplateINS_29SPIRVSubgroupAVCIntelInstBaseELN3spv2OpE5729ELb1ELj5ELb0ELj4294967295ELj4294967295ELj4294967295EEE@Base 13
 _ZTSN5SPIRV17SPIRVInstTemplateINS_29SPIRVSubgroupAVCIntelInstBaseELN3spv2OpE5730ELb1ELj5ELb0ELj4294967295ELj4294967295ELj4294967295EEE@Base 13
 _ZTSN5SPIRV17SPIRVInstTemplateINS_29SPIRVSubgroupAVCIntelInstBaseELN3spv2OpE5731ELb1ELj6ELb0ELj4294967295ELj4294967295ELj4294967295EEE@Base 13
 _ZTSN5SPIRV17SPIRVInstTemplateINS_29SPIRVSubgroupAVCIntelInstBaseELN3spv2OpE5732ELb1ELj4ELb0ELj4294967295ELj4294967295ELj4294967295EEE@Base 13
 _ZTSN5SPIRV17SPIRVInstTemplateINS_29SPIRVSubgroupAVCIntelInstBaseELN3spv2OpE5733ELb1ELj4ELb0ELj4294967295ELj4294967295ELj4294967295EEE@Base 13
 _ZTSN5SPIRV17SPIRVInstTemplateINS_29SPIRVSubgroupAVCIntelInstBaseELN3spv2OpE5734ELb1ELj4ELb0ELj4294967295ELj4294967295ELj4294967295EEE@Base 13
 _ZTSN5SPIRV17SPIRVInstTemplateINS_29SPIRVSubgroupAVCIntelInstBaseELN3spv2OpE5735ELb1ELj4ELb0ELj4294967295ELj4294967295ELj4294967295EEE@Base 13
 _ZTSN5SPIRV17SPIRVInstTemplateINS_29SPIRVSubgroupAVCIntelInstBaseELN3spv2OpE5736ELb1ELj4ELb0ELj4294967295ELj4294967295ELj4294967295EEE@Base 13
 _ZTSN5SPIRV17SPIRVInstTemplateINS_29SPIRVSubgroupAVCIntelInstBaseELN3spv2OpE5737ELb1ELj4ELb0ELj4294967295ELj4294967295ELj4294967295EEE@Base 13
 _ZTSN5SPIRV17SPIRVInstTemplateINS_29SPIRVSubgroupAVCIntelInstBaseELN3spv2OpE5738ELb1ELj4ELb0ELj4294967295ELj4294967295ELj4294967295EEE@Base 13
 _ZTSN5SPIRV17SPIRVInstTemplateINS_29SPIRVSubgroupAVCIntelInstBaseELN3spv2OpE5739ELb1ELj4ELb0ELj4294967295ELj4294967295ELj4294967295EEE@Base 13
 _ZTSN5SPIRV17SPIRVInstTemplateINS_29SPIRVSubgroupAVCIntelInstBaseELN3spv2OpE5740ELb1ELj4ELb0ELj4294967295ELj4294967295ELj4294967295EEE@Base 13
 _ZTSN5SPIRV17SPIRVInstTemplateINS_29SPIRVSubgroupAVCIntelInstBaseELN3spv2OpE5741ELb1ELj4ELb0ELj4294967295ELj4294967295ELj4294967295EEE@Base 13
 _ZTSN5SPIRV17SPIRVInstTemplateINS_29SPIRVSubgroupAVCIntelInstBaseELN3spv2OpE5742ELb1ELj4ELb0ELj4294967295ELj4294967295ELj4294967295EEE@Base 13
 _ZTSN5SPIRV17SPIRVInstTemplateINS_29SPIRVSubgroupAVCIntelInstBaseELN3spv2OpE5743ELb1ELj4ELb0ELj4294967295ELj4294967295ELj4294967295EEE@Base 13
 _ZTSN5SPIRV17SPIRVInstTemplateINS_29SPIRVSubgroupAVCIntelInstBaseELN3spv2OpE5744ELb1ELj4ELb0ELj4294967295ELj4294967295ELj4294967295EEE@Base 13
 _ZTSN5SPIRV17SPIRVInstTemplateINS_29SPIRVSubgroupAVCIntelInstBaseELN3spv2OpE5745ELb1ELj4ELb0ELj4294967295ELj4294967295ELj4294967295EEE@Base 13
 _ZTSN5SPIRV17SPIRVInstTemplateINS_29SPIRVSubgroupAVCIntelInstBaseELN3spv2OpE5746ELb1ELj6ELb0ELj4294967295ELj4294967295ELj4294967295EEE@Base 13
 _ZTSN5SPIRV17SPIRVInstTemplateINS_29SPIRVSubgroupAVCIntelInstBaseELN3spv2OpE5747ELb1ELj6ELb0ELj4294967295ELj4294967295ELj4294967295EEE@Base 13
 _ZTSN5SPIRV17SPIRVInstTemplateINS_29SPIRVSubgroupAVCIntelInstBaseELN3spv2OpE5748ELb1ELj6ELb0ELj4294967295ELj4294967295ELj4294967295EEE@Base 13
 _ZTSN5SPIRV17SPIRVInstTemplateINS_29SPIRVSubgroupAVCIntelInstBaseELN3spv2OpE5749ELb1ELj7ELb0ELj4294967295ELj4294967295ELj4294967295EEE@Base 13
 _ZTSN5SPIRV17SPIRVInstTemplateINS_29SPIRVSubgroupAVCIntelInstBaseELN3spv2OpE5750ELb1ELj5ELb0ELj4294967295ELj4294967295ELj4294967295EEE@Base 13
 _ZTSN5SPIRV17SPIRVInstTemplateINS_29SPIRVSubgroupAVCIntelInstBaseELN3spv2OpE5751ELb1ELj7ELb0ELj4294967295ELj4294967295ELj4294967295EEE@Base 13
 _ZTSN5SPIRV17SPIRVInstTemplateINS_29SPIRVSubgroupAVCIntelInstBaseELN3spv2OpE5752ELb1ELj4ELb0ELj4294967295ELj4294967295ELj4294967295EEE@Base 13
 _ZTSN5SPIRV17SPIRVInstTemplateINS_29SPIRVSubgroupAVCIntelInstBaseELN3spv2OpE5753ELb1ELj5ELb0ELj4294967295ELj4294967295ELj4294967295EEE@Base 13
 _ZTSN5SPIRV17SPIRVInstTemplateINS_29SPIRVSubgroupAVCIntelInstBaseELN3spv2OpE5754ELb1ELj4ELb0ELj4294967295ELj4294967295ELj4294967295EEE@Base 13
 _ZTSN5SPIRV17SPIRVInstTemplateINS_29SPIRVSubgroupAVCIntelInstBaseELN3spv2OpE5755ELb1ELj5ELb0ELj4294967295ELj4294967295ELj4294967295EEE@Base 13
 _ZTSN5SPIRV17SPIRVInstTemplateINS_29SPIRVSubgroupAVCIntelInstBaseELN3spv2OpE5756ELb1ELj5ELb0ELj4294967295ELj4294967295ELj4294967295EEE@Base 13
 _ZTSN5SPIRV17SPIRVInstTemplateINS_29SPIRVSubgroupAVCIntelInstBaseELN3spv2OpE5757ELb1ELj6ELb0ELj4294967295ELj4294967295ELj4294967295EEE@Base 13
 _ZTSN5SPIRV17SPIRVInstTemplateINS_29SPIRVSubgroupAVCIntelInstBaseELN3spv2OpE5758ELb1ELj7ELb0ELj4294967295ELj4294967295ELj4294967295EEE@Base 13
 _ZTSN5SPIRV17SPIRVInstTemplateINS_29SPIRVSubgroupAVCIntelInstBaseELN3spv2OpE5759ELb1ELj7ELb0ELj4294967295ELj4294967295ELj4294967295EEE@Base 13
 _ZTSN5SPIRV17SPIRVInstTemplateINS_29SPIRVSubgroupAVCIntelInstBaseELN3spv2OpE5760ELb1ELj8ELb0ELj4294967295ELj4294967295ELj4294967295EEE@Base 13
 _ZTSN5SPIRV17SPIRVInstTemplateINS_29SPIRVSubgroupAVCIntelInstBaseELN3spv2OpE5761ELb1ELj6ELb0ELj4294967295ELj4294967295ELj4294967295EEE@Base 13
 _ZTSN5SPIRV17SPIRVInstTemplateINS_29SPIRVSubgroupAVCIntelInstBaseELN3spv2OpE5762ELb1ELj7ELb0ELj4294967295ELj4294967295ELj4294967295EEE@Base 13
 _ZTSN5SPIRV17SPIRVInstTemplateINS_29SPIRVSubgroupAVCIntelInstBaseELN3spv2OpE5763ELb1ELj7ELb0ELj4294967295ELj4294967295ELj4294967295EEE@Base 13
 _ZTSN5SPIRV17SPIRVInstTemplateINS_29SPIRVSubgroupAVCIntelInstBaseELN3spv2OpE5764ELb1ELj8ELb0ELj4294967295ELj4294967295ELj4294967295EEE@Base 13
 _ZTSN5SPIRV17SPIRVInstTemplateINS_29SPIRVSubgroupAVCIntelInstBaseELN3spv2OpE5765ELb1ELj4ELb0ELj4294967295ELj4294967295ELj4294967295EEE@Base 13
 _ZTSN5SPIRV17SPIRVInstTemplateINS_29SPIRVSubgroupAVCIntelInstBaseELN3spv2OpE5766ELb1ELj4ELb0ELj4294967295ELj4294967295ELj4294967295EEE@Base 13
 _ZTSN5SPIRV17SPIRVInstTemplateINS_29SPIRVSubgroupAVCIntelInstBaseELN3spv2OpE5767ELb1ELj4ELb0ELj4294967295ELj4294967295ELj4294967295EEE@Base 13
 _ZTSN5SPIRV17SPIRVInstTemplateINS_29SPIRVSubgroupAVCIntelInstBaseELN3spv2OpE5768ELb1ELj4ELb0ELj4294967295ELj4294967295ELj4294967295EEE@Base 13
 _ZTSN5SPIRV17SPIRVInstTemplateINS_29SPIRVSubgroupAVCIntelInstBaseELN3spv2OpE5769ELb1ELj4ELb0ELj4294967295ELj4294967295ELj4294967295EEE@Base 13
 _ZTSN5SPIRV17SPIRVInstTemplateINS_29SPIRVSubgroupAVCIntelInstBaseELN3spv2OpE5770ELb1ELj5ELb0ELj4294967295ELj4294967295ELj4294967295EEE@Base 13
 _ZTSN5SPIRV17SPIRVInstTemplateINS_29SPIRVSubgroupAVCIntelInstBaseELN3spv2OpE5771ELb1ELj5ELb0ELj4294967295ELj4294967295ELj4294967295EEE@Base 13
 _ZTSN5SPIRV17SPIRVInstTemplateINS_29SPIRVSubgroupAVCIntelInstBaseELN3spv2OpE5772ELb1ELj5ELb0ELj4294967295ELj4294967295ELj4294967295EEE@Base 13
 _ZTSN5SPIRV17SPIRVInstTemplateINS_29SPIRVSubgroupAVCIntelInstBaseELN3spv2OpE5773ELb1ELj6ELb0ELj4294967295ELj4294967295ELj4294967295EEE@Base 13
 _ZTSN5SPIRV17SPIRVInstTemplateINS_29SPIRVSubgroupAVCIntelInstBaseELN3spv2OpE5774ELb1ELj6ELb0ELj4294967295ELj4294967295ELj4294967295EEE@Base 13
 _ZTSN5SPIRV17SPIRVInstTemplateINS_29SPIRVSubgroupAVCIntelInstBaseELN3spv2OpE5775ELb1ELj6ELb0ELj4294967295ELj4294967295ELj4294967295EEE@Base 13
 _ZTSN5SPIRV17SPIRVInstTemplateINS_29SPIRVSubgroupAVCIntelInstBaseELN3spv2OpE5776ELb1ELj5ELb0ELj4294967295ELj4294967295ELj4294967295EEE@Base 13
 _ZTSN5SPIRV17SPIRVInstTemplateINS_29SPIRVSubgroupAVCIntelInstBaseELN3spv2OpE5777ELb1ELj4ELb0ELj4294967295ELj4294967295ELj4294967295EEE@Base 13
 _ZTSN5SPIRV17SPIRVInstTemplateINS_29SPIRVSubgroupAVCIntelInstBaseELN3spv2OpE5778ELb1ELj4ELb0ELj4294967295ELj4294967295ELj4294967295EEE@Base 13
 _ZTSN5SPIRV17SPIRVInstTemplateINS_29SPIRVSubgroupAVCIntelInstBaseELN3spv2OpE5779ELb1ELj4ELb0ELj4294967295ELj4294967295ELj4294967295EEE@Base 13
 _ZTSN5SPIRV17SPIRVInstTemplateINS_29SPIRVSubgroupAVCIntelInstBaseELN3spv2OpE5780ELb1ELj4ELb0ELj4294967295ELj4294967295ELj4294967295EEE@Base 13
 _ZTSN5SPIRV17SPIRVInstTemplateINS_29SPIRVSubgroupAVCIntelInstBaseELN3spv2OpE5781ELb1ELj10ELb0ELj4294967295ELj4294967295ELj4294967295EEE@Base 13
 _ZTSN5SPIRV17SPIRVInstTemplateINS_29SPIRVSubgroupAVCIntelInstBaseELN3spv2OpE5782ELb1ELj11ELb0ELj4294967295ELj4294967295ELj4294967295EEE@Base 13
 _ZTSN5SPIRV17SPIRVInstTemplateINS_29SPIRVSubgroupAVCIntelInstBaseELN3spv2OpE5783ELb1ELj4ELb0ELj4294967295ELj4294967295ELj4294967295EEE@Base 13
 _ZTSN5SPIRV17SPIRVInstTemplateINS_29SPIRVSubgroupAVCIntelInstBaseELN3spv2OpE5784ELb1ELj4ELb0ELj4294967295ELj4294967295ELj4294967295EEE@Base 13
 _ZTSN5SPIRV17SPIRVInstTemplateINS_29SPIRVSubgroupAVCIntelInstBaseELN3spv2OpE5785ELb1ELj4ELb0ELj4294967295ELj4294967295ELj4294967295EEE@Base 13
 _ZTSN5SPIRV17SPIRVInstTemplateINS_29SPIRVSubgroupAVCIntelInstBaseELN3spv2OpE5786ELb1ELj6ELb0ELj4294967295ELj4294967295ELj4294967295EEE@Base 13
 _ZTSN5SPIRV17SPIRVInstTemplateINS_29SPIRVSubgroupAVCIntelInstBaseELN3spv2OpE5787ELb1ELj7ELb0ELj4294967295ELj4294967295ELj4294967295EEE@Base 13
 _ZTSN5SPIRV17SPIRVInstTemplateINS_29SPIRVSubgroupAVCIntelInstBaseELN3spv2OpE5788ELb1ELj6ELb0ELj4294967295ELj4294967295ELj4294967295EEE@Base 13
 _ZTSN5SPIRV17SPIRVInstTemplateINS_29SPIRVSubgroupAVCIntelInstBaseELN3spv2OpE5789ELb1ELj7ELb0ELj4294967295ELj4294967295ELj4294967295EEE@Base 13
 _ZTSN5SPIRV17SPIRVInstTemplateINS_29SPIRVSubgroupAVCIntelInstBaseELN3spv2OpE5790ELb1ELj4ELb0ELj4294967295ELj4294967295ELj4294967295EEE@Base 13
 _ZTSN5SPIRV17SPIRVInstTemplateINS_29SPIRVSubgroupAVCIntelInstBaseELN3spv2OpE5791ELb1ELj4ELb0ELj4294967295ELj4294967295ELj4294967295EEE@Base 13
 _ZTSN5SPIRV17SPIRVInstTemplateINS_29SPIRVSubgroupAVCIntelInstBaseELN3spv2OpE5792ELb1ELj9ELb0ELj4294967295ELj4294967295ELj4294967295EEE@Base 13
 _ZTSN5SPIRV17SPIRVInstTemplateINS_29SPIRVSubgroupAVCIntelInstBaseELN3spv2OpE5795ELb1ELj5ELb0ELj4294967295ELj4294967295ELj4294967295EEE@Base 13
 _ZTSN5SPIRV17SPIRVInstTemplateINS_29SPIRVSubgroupAVCIntelInstBaseELN3spv2OpE5796ELb1ELj4ELb0ELj4294967295ELj4294967295ELj4294967295EEE@Base 13
 _ZTSN5SPIRV17SPIRVInstTemplateINS_29SPIRVSubgroupAVCIntelInstBaseELN3spv2OpE5797ELb1ELj5ELb0ELj4294967295ELj4294967295ELj4294967295EEE@Base 13
 _ZTSN5SPIRV17SPIRVInstTemplateINS_29SPIRVSubgroupAVCIntelInstBaseELN3spv2OpE5800ELb1ELj4ELb0ELj4294967295ELj4294967295ELj4294967295EEE@Base 13
 _ZTSN5SPIRV17SPIRVInstTemplateINS_29SPIRVSubgroupAVCIntelInstBaseELN3spv2OpE5801ELb1ELj5ELb0ELj4294967295ELj4294967295ELj4294967295EEE@Base 13
 _ZTSN5SPIRV17SPIRVInstTemplateINS_29SPIRVSubgroupAVCIntelInstBaseELN3spv2OpE5802ELb1ELj5ELb0ELj4294967295ELj4294967295ELj4294967295EEE@Base 13
 _ZTSN5SPIRV17SPIRVInstTemplateINS_29SPIRVSubgroupAVCIntelInstBaseELN3spv2OpE5804ELb1ELj6ELb0ELj4294967295ELj4294967295ELj4294967295EEE@Base 13
 _ZTSN5SPIRV17SPIRVInstTemplateINS_29SPIRVSubgroupAVCIntelInstBaseELN3spv2OpE5805ELb1ELj7ELb0ELj4294967295ELj4294967295ELj4294967295EEE@Base 13
 _ZTSN5SPIRV17SPIRVInstTemplateINS_29SPIRVSubgroupAVCIntelInstBaseELN3spv2OpE5806ELb1ELj6ELb0ELj4294967295ELj4294967295ELj4294967295EEE@Base 13
 _ZTSN5SPIRV17SPIRVInstTemplateINS_29SPIRVSubgroupAVCIntelInstBaseELN3spv2OpE5807ELb1ELj7ELb0ELj4294967295ELj4294967295ELj4294967295EEE@Base 13
 _ZTSN5SPIRV17SPIRVInstTemplateINS_29SPIRVSubgroupAVCIntelInstBaseELN3spv2OpE5808ELb1ELj4ELb0ELj4294967295ELj4294967295ELj4294967295EEE@Base 13
 _ZTSN5SPIRV17SPIRVInstTemplateINS_29SPIRVSubgroupAVCIntelInstBaseELN3spv2OpE5816ELb1ELj4ELb0ELj4294967295ELj4294967295ELj4294967295EEE@Base 13
 _ZTSN5SPIRV17SPIRVInstTemplateINS_30SPIRVGroupNonUniformBallotInstELN3spv2OpE337ELb1ELj6ELb0ELj4294967295ELj4294967295ELj4294967295EEE@Base 13
 _ZTSN5SPIRV17SPIRVInstTemplateINS_30SPIRVGroupNonUniformBallotInstELN3spv2OpE338ELb1ELj5ELb0ELj4294967295ELj4294967295ELj4294967295EEE@Base 13
 _ZTSN5SPIRV17SPIRVInstTemplateINS_30SPIRVGroupNonUniformBallotInstELN3spv2OpE339ELb1ELj5ELb0ELj4294967295ELj4294967295ELj4294967295EEE@Base 13
 _ZTSN5SPIRV17SPIRVInstTemplateINS_30SPIRVGroupNonUniformBallotInstELN3spv2OpE340ELb1ELj5ELb0ELj4294967295ELj4294967295ELj4294967295EEE@Base 13
 _ZTSN5SPIRV17SPIRVInstTemplateINS_30SPIRVGroupNonUniformBallotInstELN3spv2OpE341ELb1ELj6ELb0ELj4294967295ELj4294967295ELj4294967295EEE@Base 13
 _ZTSN5SPIRV17SPIRVInstTemplateINS_30SPIRVGroupNonUniformBallotInstELN3spv2OpE342ELb1ELj6ELb0ELj1ELj4294967295ELj4294967295EEE@Base 13
 _ZTSN5SPIRV17SPIRVInstTemplateINS_30SPIRVGroupNonUniformBallotInstELN3spv2OpE343ELb1ELj5ELb0ELj4294967295ELj4294967295ELj4294967295EEE@Base 13
 _ZTSN5SPIRV17SPIRVInstTemplateINS_30SPIRVGroupNonUniformBallotInstELN3spv2OpE344ELb1ELj5ELb0ELj4294967295ELj4294967295ELj4294967295EEE@Base 13
 _ZTSN5SPIRV17SPIRVInstTemplateINS_31SPIRVGroupNonUniformShuffleInstELN3spv2OpE345ELb1ELj6ELb0ELj4294967295ELj4294967295ELj4294967295EEE@Base 13
 _ZTSN5SPIRV17SPIRVInstTemplateINS_31SPIRVGroupNonUniformShuffleInstELN3spv2OpE346ELb1ELj6ELb0ELj4294967295ELj4294967295ELj4294967295EEE@Base 13
 _ZTSN5SPIRV17SPIRVInstTemplateINS_33SPIRVGroupNonUniformRotateKHRInstELN3spv2OpE4431ELb1ELj6ELb1ELj4294967295ELj4294967295ELj4294967295EEE@Base 15
 _ZTSN5SPIRV17SPIRVInstTemplateINS_33SPIRVSubgroupShuffleINTELInstBaseELN3spv2OpE5571ELb1ELj5ELb0ELj4294967295ELj4294967295ELj4294967295EEE@Base 13
 _ZTSN5SPIRV17SPIRVInstTemplateINS_33SPIRVSubgroupShuffleINTELInstBaseELN3spv2OpE5572ELb1ELj6ELb0ELj4294967295ELj4294967295ELj4294967295EEE@Base 13
 _ZTSN5SPIRV17SPIRVInstTemplateINS_33SPIRVSubgroupShuffleINTELInstBaseELN3spv2OpE5573ELb1ELj6ELb0ELj4294967295ELj4294967295ELj4294967295EEE@Base 13
 _ZTSN5SPIRV17SPIRVInstTemplateINS_33SPIRVSubgroupShuffleINTELInstBaseELN3spv2OpE5574ELb1ELj5ELb0ELj4294967295ELj4294967295ELj4294967295EEE@Base 13
 _ZTSN5SPIRV17SPIRVInstTemplateINS_34SPIRVGroupNonUniformArithmeticInstELN3spv2OpE349ELb1ELj6ELb1ELj1ELj4294967295ELj4294967295EEE@Base 13
 _ZTSN5SPIRV17SPIRVInstTemplateINS_34SPIRVGroupNonUniformArithmeticInstELN3spv2OpE350ELb1ELj6ELb1ELj1ELj4294967295ELj4294967295EEE@Base 13
 _ZTSN5SPIRV17SPIRVInstTemplateINS_34SPIRVGroupNonUniformArithmeticInstELN3spv2OpE351ELb1ELj6ELb1ELj1ELj4294967295ELj4294967295EEE@Base 13
 _ZTSN5SPIRV17SPIRVInstTemplateINS_34SPIRVGroupNonUniformArithmeticInstELN3spv2OpE352ELb1ELj6ELb1ELj1ELj4294967295ELj4294967295EEE@Base 13
 _ZTSN5SPIRV17SPIRVInstTemplateINS_34SPIRVGroupNonUniformArithmeticInstELN3spv2OpE353ELb1ELj6ELb1ELj1ELj4294967295ELj4294967295EEE@Base 13
 _ZTSN5SPIRV17SPIRVInstTemplateINS_34SPIRVGroupNonUniformArithmeticInstELN3spv2OpE354ELb1ELj6ELb1ELj1ELj4294967295ELj4294967295EEE@Base 13
 _ZTSN5SPIRV17SPIRVInstTemplateINS_34SPIRVGroupNonUniformArithmeticInstELN3spv2OpE355ELb1ELj6ELb1ELj1ELj4294967295ELj4294967295EEE@Base 13
 _ZTSN5SPIRV17SPIRVInstTemplateINS_34SPIRVGroupNonUniformArithmeticInstELN3spv2OpE356ELb1ELj6ELb1ELj1ELj4294967295ELj4294967295EEE@Base 13
 _ZTSN5SPIRV17SPIRVInstTemplateINS_34SPIRVGroupNonUniformArithmeticInstELN3spv2OpE357ELb1ELj6ELb1ELj1ELj4294967295ELj4294967295EEE@Base 13
 _ZTSN5SPIRV17SPIRVInstTemplateINS_34SPIRVGroupNonUniformArithmeticInstELN3spv2OpE358ELb1ELj6ELb1ELj1ELj4294967295ELj4294967295EEE@Base 13
 _ZTSN5SPIRV17SPIRVInstTemplateINS_34SPIRVGroupNonUniformArithmeticInstELN3spv2OpE359ELb1ELj6ELb1ELj1ELj4294967295ELj4294967295EEE@Base 13
 _ZTSN5SPIRV17SPIRVInstTemplateINS_34SPIRVGroupNonUniformArithmeticInstELN3spv2OpE360ELb1ELj6ELb1ELj1ELj4294967295ELj4294967295EEE@Base 13
 _ZTSN5SPIRV17SPIRVInstTemplateINS_34SPIRVGroupNonUniformArithmeticInstELN3spv2OpE361ELb1ELj6ELb1ELj1ELj4294967295ELj4294967295EEE@Base 13
 _ZTSN5SPIRV17SPIRVInstTemplateINS_34SPIRVGroupNonUniformArithmeticInstELN3spv2OpE362ELb1ELj6ELb1ELj1ELj4294967295ELj4294967295EEE@Base 13
 _ZTSN5SPIRV17SPIRVInstTemplateINS_34SPIRVGroupNonUniformArithmeticInstELN3spv2OpE363ELb1ELj6ELb1ELj1ELj4294967295ELj4294967295EEE@Base 13
 _ZTSN5SPIRV17SPIRVInstTemplateINS_34SPIRVGroupNonUniformArithmeticInstELN3spv2OpE364ELb1ELj6ELb1ELj1ELj4294967295ELj4294967295EEE@Base 13
 _ZTSN5SPIRV17SPIRVInstTemplateINS_34SPIRVSubgroupAVCIntelInstBaseIntraELN3spv2OpE5719ELb1ELj5ELb0ELj4294967295ELj4294967295ELj4294967295EEE@Base 13
 _ZTSN5SPIRV17SPIRVInstTemplateINS_34SPIRVSubgroupAVCIntelInstBaseIntraELN3spv2OpE5725ELb1ELj5ELb0ELj4294967295ELj4294967295ELj4294967295EEE@Base 13
 _ZTSN5SPIRV17SPIRVInstTemplateINS_34SPIRVSubgroupAVCIntelInstBaseIntraELN3spv2OpE5726ELb1ELj3ELb0ELj4294967295ELj4294967295ELj4294967295EEE@Base 13
 _ZTSN5SPIRV17SPIRVInstTemplateINS_34SPIRVSubgroupAVCIntelInstBaseIntraELN3spv2OpE5793ELb1ELj11ELb0ELj4294967295ELj4294967295ELj4294967295EEE@Base 13
 _ZTSN5SPIRV17SPIRVInstTemplateINS_34SPIRVSubgroupAVCIntelInstBaseIntraELN3spv2OpE5798ELb1ELj7ELb0ELj4294967295ELj4294967295ELj4294967295EEE@Base 13
 _ZTSN5SPIRV17SPIRVInstTemplateINS_34SPIRVSubgroupAVCIntelInstBaseIntraELN3spv2OpE5803ELb1ELj5ELb0ELj4294967295ELj4294967295ELj4294967295EEE@Base 13
 _ZTSN5SPIRV17SPIRVInstTemplateINS_34SPIRVSubgroupAVCIntelInstBaseIntraELN3spv2OpE5809ELb1ELj4ELb0ELj4294967295ELj4294967295ELj4294967295EEE@Base 13
 _ZTSN5SPIRV17SPIRVInstTemplateINS_34SPIRVSubgroupAVCIntelInstBaseIntraELN3spv2OpE5810ELb1ELj4ELb0ELj4294967295ELj4294967295ELj4294967295EEE@Base 13
 _ZTSN5SPIRV17SPIRVInstTemplateINS_34SPIRVSubgroupAVCIntelInstBaseIntraELN3spv2OpE5812ELb1ELj4ELb0ELj4294967295ELj4294967295ELj4294967295EEE@Base 13
 _ZTSN5SPIRV17SPIRVInstTemplateINS_34SPIRVSubgroupAVCIntelInstBaseIntraELN3spv2OpE5814ELb1ELj4ELb0ELj4294967295ELj4294967295ELj4294967295EEE@Base 13
 _ZTSN5SPIRV17SPIRVInstTemplateINS_34SPIRVSubgroupAVCIntelInstBaseIntraELN3spv2OpE5815ELb1ELj4ELb0ELj4294967295ELj4294967295ELj4294967295EEE@Base 13
 _ZTSN5SPIRV17SPIRVInstTemplateINS_35SPIRVSubgroupAVCIntelInstBaseChromaELN3spv2OpE5727ELb1ELj3ELb0ELj4294967295ELj4294967295ELj4294967295EEE@Base 13
 _ZTSN5SPIRV17SPIRVInstTemplateINS_35SPIRVSubgroupAVCIntelInstBaseChromaELN3spv2OpE5794ELb1ELj14ELb0ELj4294967295ELj4294967295ELj4294967295EEE@Base 13
 _ZTSN5SPIRV17SPIRVInstTemplateINS_35SPIRVSubgroupAVCIntelInstBaseChromaELN3spv2OpE5799ELb1ELj5ELb0ELj4294967295ELj4294967295ELj4294967295EEE@Base 13
 _ZTSN5SPIRV17SPIRVInstTemplateINS_35SPIRVSubgroupAVCIntelInstBaseChromaELN3spv2OpE5811ELb1ELj4ELb0ELj4294967295ELj4294967295ELj4294967295EEE@Base 13
 _ZTSN5SPIRV17SPIRVInstTemplateINS_35SPIRVSubgroupAVCIntelInstBaseChromaELN3spv2OpE5813ELb1ELj4ELb0ELj4294967295ELj4294967295ELj4294967295EEE@Base 13
 _ZTSN5SPIRV17SPIRVInstTemplateINS_37SPIRVVariableLengthArrayINTELInstBaseELN3spv2OpE5818ELb1ELj4ELb0ELj4294967295ELj4294967295ELj4294967295EEE@Base 13
 _ZTSN5SPIRV17SPIRVInstTemplateINS_37SPIRVVariableLengthArrayINTELInstBaseELN3spv2OpE5819ELb1ELj3ELb0ELj4294967295ELj4294967295ELj4294967295EEE@Base 13
 _ZTSN5SPIRV17SPIRVInstTemplateINS_37SPIRVVariableLengthArrayINTELInstBaseELN3spv2OpE5820ELb0ELj2ELb0ELj4294967295ELj4294967295ELj4294967295EEE@Base 13
 _ZTSN5SPIRV17SPIRVInstTemplateINS_38SPIRVGroupUniformArithmeticKHRInstBaseELN3spv2OpE6401ELb1ELj6ELb0ELj1ELj4294967295ELj4294967295EEE@Base 15
 _ZTSN5SPIRV17SPIRVInstTemplateINS_38SPIRVGroupUniformArithmeticKHRInstBaseELN3spv2OpE6402ELb1ELj6ELb0ELj1ELj4294967295ELj4294967295EEE@Base 15
 _ZTSN5SPIRV17SPIRVInstTemplateINS_38SPIRVGroupUniformArithmeticKHRInstBaseELN3spv2OpE6403ELb1ELj6ELb0ELj1ELj4294967295ELj4294967295EEE@Base 15
 _ZTSN5SPIRV17SPIRVInstTemplateINS_38SPIRVGroupUniformArithmeticKHRInstBaseELN3spv2OpE6404ELb1ELj6ELb0ELj1ELj4294967295ELj4294967295EEE@Base 15
 _ZTSN5SPIRV17SPIRVInstTemplateINS_38SPIRVGroupUniformArithmeticKHRInstBaseELN3spv2OpE6405ELb1ELj6ELb0ELj1ELj4294967295ELj4294967295EEE@Base 15
 _ZTSN5SPIRV17SPIRVInstTemplateINS_38SPIRVGroupUniformArithmeticKHRInstBaseELN3spv2OpE6406ELb1ELj6ELb0ELj1ELj4294967295ELj4294967295EEE@Base 15
 _ZTSN5SPIRV17SPIRVInstTemplateINS_38SPIRVGroupUniformArithmeticKHRInstBaseELN3spv2OpE6407ELb1ELj6ELb0ELj1ELj4294967295ELj4294967295EEE@Base 15
 _ZTSN5SPIRV17SPIRVInstTemplateINS_38SPIRVGroupUniformArithmeticKHRInstBaseELN3spv2OpE6408ELb1ELj6ELb0ELj1ELj4294967295ELj4294967295EEE@Base 15
 _ZTSN5SPIRV17SPIRVInstTemplateINS_38SPIRVSubgroupImageBlockIOINTELInstBaseELN3spv2OpE5577ELb1ELj5ELb0ELj4294967295ELj4294967295ELj4294967295EEE@Base 13
 _ZTSN5SPIRV17SPIRVInstTemplateINS_38SPIRVSubgroupImageBlockIOINTELInstBaseELN3spv2OpE5578ELb0ELj4ELb0ELj4294967295ELj4294967295ELj4294967295EEE@Base 13
 _ZTSN5SPIRV17SPIRVInstTemplateINS_39SPIRVGroupNonUniformShuffleRelativeInstELN3spv2OpE347ELb1ELj6ELb0ELj4294967295ELj4294967295ELj4294967295EEE@Base 13
 _ZTSN5SPIRV17SPIRVInstTemplateINS_39SPIRVGroupNonUniformShuffleRelativeInstELN3spv2OpE348ELb1ELj6ELb0ELj4294967295ELj4294967295ELj4294967295EEE@Base 13
 _ZTSN5SPIRV17SPIRVInstTemplateINS_39SPIRVSubgroupBufferBlockIOINTELInstBaseELN3spv2OpE5575ELb1ELj4ELb0ELj4294967295ELj4294967295ELj4294967295EEE@Base 13
 _ZTSN5SPIRV17SPIRVInstTemplateINS_39SPIRVSubgroupBufferBlockIOINTELInstBaseELN3spv2OpE5576ELb0ELj3ELb0ELj4294967295ELj4294967295ELj4294967295EEE@Base 13
 _ZTSN5SPIRV17SPIRVInstTemplateINS_43SPIRVSubgroupImageMediaBlockIOINTELInstBaseELN3spv2OpE5580ELb1ELj7ELb0ELj4294967295ELj4294967295ELj4294967295EEE@Base 13
 _ZTSN5SPIRV17SPIRVInstTemplateINS_43SPIRVSubgroupImageMediaBlockIOINTELInstBaseELN3spv2OpE5581ELb0ELj6ELb0ELj4294967295ELj4294967295ELj4294967295EEE@Base 13
 _ZTSN5SPIRV17SPIRVMemoryAccessE@Base 13
 _ZTSN5SPIRV17SPIRVPipeInstBaseE@Base 13
 _ZTSN5SPIRV17SPIRVTypeFunctionE@Base 13
 _ZTSN5SPIRV18OCLTypeToSPIRVBaseE@Base 13
 _ZTSN5SPIRV18SPIRVAssumeTrueKHRE@Base 13
 _ZTSN5SPIRV18SPIRVConstantEmptyILN3spv2OpE1EEE@Base 13
 _ZTSN5SPIRV18SPIRVConstantEmptyILN3spv2OpE41EEE@Base 13
 _ZTSN5SPIRV18SPIRVConstantEmptyILN3spv2OpE42EEE@Base 13
 _ZTSN5SPIRV18SPIRVConstantEmptyILN3spv2OpE46EEE@Base 13
 _ZTSN5SPIRV18SPIRVConstantEmptyILN3spv2OpE48EEE@Base 13
 _ZTSN5SPIRV18SPIRVConstantEmptyILN3spv2OpE49EEE@Base 13
 _ZTSN5SPIRV18SPIRVExecutionModeE@Base 13
 _ZTSN5SPIRV18SPIRVExtInstImportE@Base 13
 _ZTSN5SPIRV18SPIRVGroupDecorateE@Base 13
 _ZTSN5SPIRV18SPIRVGroupInstBaseE@Base 13
 _ZTSN5SPIRV18SPIRVImageInstBaseE@Base 13
 _ZTSN5SPIRV18SPIRVInstNoOperandILN3spv2OpE253EEE@Base 13
 _ZTSN5SPIRV18SPIRVInstNoOperandILN3spv2OpE255EEE@Base 13
 _ZTSN5SPIRV18SPIRVLowerBoolBaseE@Base 13
 _ZTSN5SPIRV18SPIRVLowerBoolPassE@Base 15
 _ZTSN5SPIRV18SPIRVToOCL12LegacyE@Base 13
 _ZTSN5SPIRV18SPIRVToOCL20LegacyE@Base 13
 _ZTSN5SPIRV19SPIRVAsmTargetINTELE@Base 13
 _ZTSN5SPIRV19SPIRVAtomicInstBaseE@Base 13
 _ZTSN5SPIRV19SPIRVControlBarrierE@Base 13
 _ZTSN5SPIRV19SPIRVDevEnqInstBaseE@Base 13
 _ZTSN5SPIRV19SPIRVGroupAsyncCopyE@Base 13
 _ZTSN5SPIRV19SPIRVMemberDecorateE@Base 13
 _ZTSN5SPIRV19SPIRVSelectionMergeE@Base 13
 _ZTSN5SPIRV19SPIRVTypeTokenINTELE@Base 13
 _ZTSN5SPIRV20OCLTypeToSPIRVLegacyE@Base 13
 _ZTSN5SPIRV20SPIRVAccessChainBaseE@Base 13
 _ZTSN5SPIRV20SPIRVAtomicStoreInstE@Base 13
 _ZTSN5SPIRV20SPIRVConstantSamplerE@Base 13
 _ZTSN5SPIRV20SPIRVCopyMemorySizedE@Base 13
 _ZTSN5SPIRV20SPIRVDecorateGenericE@Base 13
 _ZTSN5SPIRV20SPIRVDecorationGroupE@Base 13
 _ZTSN5SPIRV20SPIRVEntryOpCodeOnlyILN3spv2OpE56EEE@Base 13
 _ZTSN5SPIRV20SPIRVLowerBoolLegacyE@Base 13
 _ZTSN5SPIRV20SPIRVModuleProcessedE@Base 13
 _ZTSN5SPIRV20SPIRVSourceExtensionE@Base 13
 _ZTSN5SPIRV20SPIRVTypeDeviceEventE@Base 13
 _ZTSN5SPIRV20SPIRVTypePipeStorageE@Base 13
 _ZTSN5SPIRV21BuiltinFuncMangleInfoE@Base 13
 _ZTSN5SPIRV21SPIRVComplexFloatInstILN3spv2OpE6415EEE@Base 15
 _ZTSN5SPIRV21SPIRVComplexFloatInstILN3spv2OpE6416EEE@Base 15
 _ZTSN5SPIRV21SPIRVEntryNoIdGenericE@Base 13
 _ZTSN5SPIRV21SPIRVInstTemplateBaseE@Base 13
 _ZTSN5SPIRV21SPIRVLoopControlINTELE@Base 13
 _ZTSN5SPIRV21SPIRVLowerMemmoveBaseE@Base 13
 _ZTSN5SPIRV21SPIRVTypeSampledImageE@Base 13
 _ZTSN5SPIRV22PreprocessMetadataBaseE@Base 13
 _ZTSN5SPIRV22SPIRVAnnotationGenericE@Base 13
 _ZTSN5SPIRV22SPIRVArbFloatIntelInstE@Base 13
 _ZTSN5SPIRV22SPIRVAtomicFAddEXTInstE@Base 13
 _ZTSN5SPIRV22SPIRVBranchConditionalE@Base 13
 _ZTSN5SPIRV22SPIRVExpectKHRInstBaseE@Base 13
 _ZTSN5SPIRV22SPIRVFunctionParameterE@Base 13
 _ZTSN5SPIRV22SPIRVMatrixTimesMatrixE@Base 13
 _ZTSN5SPIRV22SPIRVMatrixTimesScalarE@Base 13
 _ZTSN5SPIRV22SPIRVMatrixTimesVectorE@Base 13
 _ZTSN5SPIRV22SPIRVOpaqueGenericTypeILN3spv2OpE34EEE@Base 13
 _ZTSN5SPIRV22SPIRVOpaqueGenericTypeILN3spv2OpE36EEE@Base 13
 _ZTSN5SPIRV22SPIRVTypeOpaqueGenericE@Base 13
 _ZTSN5SPIRV22SPIRVTypeVmeImageINTELE@Base 13
 _ZTSN5SPIRV22SPIRVVectorShuffleBaseE@Base 13
 _ZTSN5SPIRV22SPIRVVectorTimesMatrixE@Base 13
 _ZTSN5SPIRV22SPIRVVectorTimesScalarE@Base 13
 _ZTSN5SPIRV23SPIRVAccessChainGenericILN3spv2OpE65ELj4EEE@Base 13
 _ZTSN5SPIRV23SPIRVAccessChainGenericILN3spv2OpE66ELj4EEE@Base 13
 _ZTSN5SPIRV23SPIRVAccessChainGenericILN3spv2OpE67ELj5EEE@Base 13
 _ZTSN5SPIRV23SPIRVAccessChainGenericILN3spv2OpE70ELj5EEE@Base 13
 _ZTSN5SPIRV23SPIRVCompositeConstructE@Base 13
 _ZTSN5SPIRV23SPIRVEntryUnimplementedILN3spv2OpE100EEE@Base 13
 _ZTSN5SPIRV23SPIRVEntryUnimplementedILN3spv2OpE116EEE@Base 13
 _ZTSN5SPIRV23SPIRVEntryUnimplementedILN3spv2OpE147EEE@Base 13
 _ZTSN5SPIRV23SPIRVEntryUnimplementedILN3spv2OpE149EEE@Base 13
 _ZTSN5SPIRV23SPIRVEntryUnimplementedILN3spv2OpE150EEE@Base 13
 _ZTSN5SPIRV23SPIRVEntryUnimplementedILN3spv2OpE151EEE@Base 13
 _ZTSN5SPIRV23SPIRVEntryUnimplementedILN3spv2OpE152EEE@Base 13
 _ZTSN5SPIRV23SPIRVEntryUnimplementedILN3spv2OpE207EEE@Base 13
 _ZTSN5SPIRV23SPIRVEntryUnimplementedILN3spv2OpE208EEE@Base 13
 _ZTSN5SPIRV23SPIRVEntryUnimplementedILN3spv2OpE209EEE@Base 13
 _ZTSN5SPIRV23SPIRVEntryUnimplementedILN3spv2OpE210EEE@Base 13
 _ZTSN5SPIRV23SPIRVEntryUnimplementedILN3spv2OpE211EEE@Base 13
 _ZTSN5SPIRV23SPIRVEntryUnimplementedILN3spv2OpE212EEE@Base 13
 _ZTSN5SPIRV23SPIRVEntryUnimplementedILN3spv2OpE213EEE@Base 13
 _ZTSN5SPIRV23SPIRVEntryUnimplementedILN3spv2OpE214EEE@Base 13
 _ZTSN5SPIRV23SPIRVEntryUnimplementedILN3spv2OpE215EEE@Base 13
 _ZTSN5SPIRV23SPIRVEntryUnimplementedILN3spv2OpE218EEE@Base 13
 _ZTSN5SPIRV23SPIRVEntryUnimplementedILN3spv2OpE219EEE@Base 13
 _ZTSN5SPIRV23SPIRVEntryUnimplementedILN3spv2OpE220EEE@Base 13
 _ZTSN5SPIRV23SPIRVEntryUnimplementedILN3spv2OpE221EEE@Base 13
 _ZTSN5SPIRV23SPIRVEntryUnimplementedILN3spv2OpE252EEE@Base 13
 _ZTSN5SPIRV23SPIRVEntryUnimplementedILN3spv2OpE29EEE@Base 13
 _ZTSN5SPIRV23SPIRVEntryUnimplementedILN3spv2OpE2EEE@Base 13
 _ZTSN5SPIRV23SPIRVEntryUnimplementedILN3spv2OpE305EEE@Base 13
 _ZTSN5SPIRV23SPIRVEntryUnimplementedILN3spv2OpE306EEE@Base 13
 _ZTSN5SPIRV23SPIRVEntryUnimplementedILN3spv2OpE307EEE@Base 13
 _ZTSN5SPIRV23SPIRVEntryUnimplementedILN3spv2OpE308EEE@Base 13
 _ZTSN5SPIRV23SPIRVEntryUnimplementedILN3spv2OpE309EEE@Base 13
 _ZTSN5SPIRV23SPIRVEntryUnimplementedILN3spv2OpE310EEE@Base 13
 _ZTSN5SPIRV23SPIRVEntryUnimplementedILN3spv2OpE311EEE@Base 13
 _ZTSN5SPIRV23SPIRVEntryUnimplementedILN3spv2OpE312EEE@Base 13
 _ZTSN5SPIRV23SPIRVEntryUnimplementedILN3spv2OpE313EEE@Base 13
 _ZTSN5SPIRV23SPIRVEntryUnimplementedILN3spv2OpE314EEE@Base 13
 _ZTSN5SPIRV23SPIRVEntryUnimplementedILN3spv2OpE315EEE@Base 13
 _ZTSN5SPIRV23SPIRVEntryUnimplementedILN3spv2OpE316EEE@Base 13
 _ZTSN5SPIRV23SPIRVEntryUnimplementedILN3spv2OpE317EEE@Base 13
 _ZTSN5SPIRV23SPIRVEntryUnimplementedILN3spv2OpE60EEE@Base 13
 _ZTSN5SPIRV23SPIRVEntryUnimplementedILN3spv2OpE68EEE@Base 13
 _ZTSN5SPIRV23SPIRVEntryUnimplementedILN3spv2OpE89EEE@Base 13
 _ZTSN5SPIRV23SPIRVEntryUnimplementedILN3spv2OpE90EEE@Base 13
 _ZTSN5SPIRV23SPIRVEntryUnimplementedILN3spv2OpE91EEE@Base 13
 _ZTSN5SPIRV23SPIRVEntryUnimplementedILN3spv2OpE92EEE@Base 13
 _ZTSN5SPIRV23SPIRVEntryUnimplementedILN3spv2OpE93EEE@Base 13
 _ZTSN5SPIRV23SPIRVEntryUnimplementedILN3spv2OpE94EEE@Base 13
 _ZTSN5SPIRV23SPIRVEntryUnimplementedILN3spv2OpE95EEE@Base 13
 _ZTSN5SPIRV23SPIRVEntryUnimplementedILN3spv2OpE96EEE@Base 13
 _ZTSN5SPIRV23SPIRVEntryUnimplementedILN3spv2OpE97EEE@Base 13
 _ZTSN5SPIRV23SPIRVLowerConstExprBaseE@Base 13
 _ZTSN5SPIRV23SPIRVLowerMemmoveLegacyE@Base 13
 _ZTSN5SPIRV23SPIRVLowerOCLBlocksBaseE@Base 15
 _ZTSN5SPIRV23SPIRVRegularizeLLVMBaseE@Base 13
 _ZTSN5SPIRV23SPIRVSpecConstantOpBaseE@Base 14
 _ZTSN5SPIRV23SPIRVTypeForwardPointerE@Base 13
 _ZTSN5SPIRV24PreprocessMetadataLegacyE@Base 13
 _ZTSN5SPIRV24SPIRVCompositeInsertBaseE@Base 13
 _ZTSN5SPIRV24SPIRVConstantPipeStorageE@Base 13
 _ZTSN5SPIRV24SPIRVDecorateLinkageAttrE@Base 13
 _ZTSN5SPIRV24SPIRVDecorateStrAttrBaseILN3spv10DecorationE5635EEE@Base 13
 _ZTSN5SPIRV24SPIRVDecorateStrAttrBaseILN3spv10DecorationE5826EEE@Base 13
 _ZTSN5SPIRV24SPIRVFixedPointIntelInstE@Base 13
 _ZTSN5SPIRV24SPIRVFunctionCallGenericILN3spv2OpE12ELj5EEE@Base 13
 _ZTSN5SPIRV24SPIRVFunctionCallGenericILN3spv2OpE5601ELj4EEE@Base 13
 _ZTSN5SPIRV24SPIRVFunctionCallGenericILN3spv2OpE57ELj4EEE@Base 13
 _ZTSN5SPIRV24SPIRVGroupMemberDecorateE@Base 13
#MISSING: 15# _ZTSN5SPIRV24SPIRVLowerSPIRBlocksBaseE@Base 13
 _ZTSN5SPIRV24SPIRVPipeStorageInstBaseE@Base 13
 _ZTSN5SPIRV24SPIRVVectorInsertDynamicE@Base 13
 _ZTSN5SPIRV25SPIRVAtomicFMinMaxEXTBaseE@Base 13
 _ZTSN5SPIRV25SPIRVCompositeExtractBaseE@Base 13
 _ZTSN5SPIRV25SPIRVDecorateNoAliasINTELE@Base 14
 _ZTSN5SPIRV25SPIRVFPGARegINTELInstBaseE@Base 13
 _ZTSN5SPIRV25SPIRVGroupDecorateGenericE@Base 13
 _ZTSN5SPIRV25SPIRVJointMatrixINTELInstE@Base 14
 _ZTSN5SPIRV25SPIRVLowerConstExprLegacyE@Base 13
 _ZTSN5SPIRV25SPIRVLowerOCLBlocksLegacyE@Base 15
 _ZTSN5SPIRV25SPIRVRegularizeLLVMLegacyE@Base 13
 _ZTSN5SPIRV25SPIRVSubgroupAvcINTELTypeILN3spv2OpE5701EEE@Base 13
 _ZTSN5SPIRV25SPIRVSubgroupAvcINTELTypeILN3spv2OpE5702EEE@Base 13
 _ZTSN5SPIRV25SPIRVSubgroupAvcINTELTypeILN3spv2OpE5703EEE@Base 13
 _ZTSN5SPIRV25SPIRVSubgroupAvcINTELTypeILN3spv2OpE5704EEE@Base 13
 _ZTSN5SPIRV25SPIRVSubgroupAvcINTELTypeILN3spv2OpE5705EEE@Base 13
 _ZTSN5SPIRV25SPIRVSubgroupAvcINTELTypeILN3spv2OpE5706EEE@Base 13
 _ZTSN5SPIRV25SPIRVSubgroupAvcINTELTypeILN3spv2OpE5707EEE@Base 13
 _ZTSN5SPIRV25SPIRVSubgroupAvcINTELTypeILN3spv2OpE5708EEE@Base 13
 _ZTSN5SPIRV25SPIRVSubgroupAvcINTELTypeILN3spv2OpE5709EEE@Base 13
 _ZTSN5SPIRV25SPIRVSubgroupAvcINTELTypeILN3spv2OpE5710EEE@Base 13
 _ZTSN5SPIRV25SPIRVSubgroupAvcINTELTypeILN3spv2OpE5711EEE@Base 13
 _ZTSN5SPIRV25SPIRVSubgroupAvcINTELTypeILN3spv2OpE5712EEE@Base 13
 _ZTSN5SPIRV25SPIRVTypeJointMatrixINTELE@Base 14
 _ZTSN5SPIRV25SPIRVTypeSubgroupAvcINTELE@Base 13
 _ZTSN5SPIRV25SPIRVVectorExtractDynamicE@Base 13
 _ZTSN5SPIRV26SPIRVConstantCompositeBaseILN3spv2OpE44EEE@Base 13
 _ZTSN5SPIRV26SPIRVConstantCompositeBaseILN3spv2OpE51EEE@Base 13
 _ZTSN5SPIRV26SPIRVDecorateInitModeINTELE@Base 14
#MISSING: 15# _ZTSN5SPIRV26SPIRVLowerSPIRBlocksLegacyE@Base 13
 _ZTSN5SPIRV27SPIRVBlockingPipesIntelInstE@Base 13
 _ZTSN5SPIRV27SPIRVContinuedInstINTELBaseILN3spv2OpE6090EEE@Base 13
 _ZTSN5SPIRV27SPIRVContinuedInstINTELBaseILN3spv2OpE6091EEE@Base 13
 _ZTSN5SPIRV27SPIRVContinuedInstINTELBaseILN3spv2OpE6092EEE@Base 13
 _ZTSN5SPIRV27SPIRVDecorateMergeINTELAttrE@Base 13
 _ZTSN5SPIRV27SPIRVTypeBufferSurfaceINTELE@Base 13
 _ZTSN5SPIRV28SPIRVComponentExecutionModesE@Base 13
 _ZTSN5SPIRV28SPIRVDecorateAliasScopeINTELE@Base 14
 _ZTSN5SPIRV28SPIRVDecorateHostAccessINTELE@Base 14
 _ZTSN5SPIRV28SPIRVDecorateMemoryINTELAttrE@Base 13
 _ZTSN5SPIRV28SPIRVGroupNonUniformVoteInstE@Base 13
 _ZTSN5SPIRV28SPIRVLowerSaddIntrinsicsBaseE@Base 15
 _ZTSN5SPIRV28SPIRVMemAliasingINTELGenericILN3spv2OpE5911ELj2EEE@Base 13
 _ZTSN5SPIRV28SPIRVMemAliasingINTELGenericILN3spv2OpE5912ELj2EEE@Base 13
 _ZTSN5SPIRV28SPIRVMemAliasingINTELGenericILN3spv2OpE5913ELj2EEE@Base 13
 _ZTSN5SPIRV29SPIRVDecorateStallEnableINTELE@Base 13
 _ZTSN5SPIRV29SPIRVDecorateUserSemanticAttrE@Base 13
 _ZTSN5SPIRV29SPIRVFunctionPointerCallINTELE@Base 13
 _ZTSN5SPIRV29SPIRVGroupNonUniformElectInstE@Base 13
 _ZTSN5SPIRV29SPIRVJointMatrixINTELInstBaseE@Base 14
 _ZTSN5SPIRV29SPIRVSubgroupAVCIntelInstBaseE@Base 13
 _ZTSN5SPIRV29SPIRVTypeStructContinuedINTELE@Base 13
 _ZTSN5SPIRV30SPIRVDecorateBankBitsINTELAttrE@Base 13
 _ZTSN5SPIRV30SPIRVGroupNonUniformBallotInstE@Base 13
 _ZTSN5SPIRV30SPIRVLowerSaddIntrinsicsLegacyE@Base 15
#MISSING: 15# _ZTSN5SPIRV30SPIRVLowerSaddWithOverflowBaseE@Base 13
 _ZTSN5SPIRV30SPIRVMemberDecorateStrAttrBaseILN3spv10DecorationE5635EEE@Base 13
 _ZTSN5SPIRV30SPIRVMemberDecorateStrAttrBaseILN3spv10DecorationE5826EEE@Base 13
 _ZTSN5SPIRV31SPIRVDecorateMathOpDSPModeINTELE@Base 13
 _ZTSN5SPIRV31SPIRVGroupNonUniformShuffleInstE@Base 13
 _ZTSN5SPIRV32SPIRVDecorateImplementInCSRINTELE@Base 14
 _ZTSN5SPIRV32SPIRVDecorateMaxConcurrencyINTELE@Base 13
 _ZTSN5SPIRV32SPIRVDecoratePipelineEnableINTELE@Base 13
#MISSING: 15# _ZTSN5SPIRV32SPIRVLowerSaddWithOverflowLegacyE@Base 13
 _ZTSN5SPIRV33SPIRVConstantFunctionPointerINTELE@Base 13
 _ZTSN5SPIRV33SPIRVGroupNonUniformRotateKHRInstE@Base 15
 _ZTSN5SPIRV33SPIRVMemberDecorateMergeINTELAttrE@Base 13
 _ZTSN5SPIRV33SPIRVSubgroupShuffleINTELInstBaseE@Base 13
 _ZTSN5SPIRV34SPIRVGroupNonUniformArithmeticInstE@Base 13
 _ZTSN5SPIRV34SPIRVMemberDecorateMemoryINTELAttrE@Base 13
 _ZTSN5SPIRV34SPIRVSubgroupAVCIntelInstBaseIntraE@Base 13
 _ZTSN5SPIRV35SPIRVMemberDecorateUserSemanticAttrE@Base 13
 _ZTSN5SPIRV35SPIRVSubgroupAVCIntelInstBaseChromaE@Base 13
 _ZTSN5SPIRV36SPIRVBfloat16ConversionINTELInstBaseILN3spv2OpE6116EEE@Base 13
 _ZTSN5SPIRV36SPIRVBfloat16ConversionINTELInstBaseILN3spv2OpE6117EEE@Base 13
 _ZTSN5SPIRV36SPIRVDecorateFunctionDenormModeINTELE@Base 13
 _ZTSN5SPIRV36SPIRVDecorateInitiationIntervalINTELE@Base 13
 _ZTSN5SPIRV36SPIRVMemberDecorateBankBitsINTELAttrE@Base 13
 _ZTSN5SPIRV37SPIRVDecorateFuseLoopsInFunctionINTELE@Base 13
 _ZTSN5SPIRV37SPIRVVariableLengthArrayINTELInstBaseE@Base 13
 _ZTSN5SPIRV38SPIRVDecorateFunctionRoundingModeINTELE@Base 13
 _ZTSN5SPIRV38SPIRVGroupUniformArithmeticKHRInstBaseE@Base 15
 _ZTSN5SPIRV38SPIRVSubgroupImageBlockIOINTELInstBaseE@Base 13
 _ZTSN5SPIRV39SPIRVGroupNonUniformShuffleRelativeInstE@Base 13
 _ZTSN5SPIRV39SPIRVSubgroupBufferBlockIOINTELInstBaseE@Base 13
 _ZTSN5SPIRV40SPIRVLowerBitCastToNonStandardTypeLegacyE@Base 13
 _ZTSN5SPIRV43SPIRVDecorateFunctionFloatingPointModeINTELE@Base 13
 _ZTSN5SPIRV43SPIRVSubgroupImageMediaBlockIOINTELInstBaseE@Base 13
 _ZTSN5SPIRV8SPIRVPhiE@Base 13
 _ZTSN5SPIRV9SPIRVLineE@Base 13
 _ZTSN5SPIRV9SPIRVLoadE@Base 13
 _ZTSN5SPIRV9SPIRVNameE@Base 13
 _ZTSN5SPIRV9SPIRVTypeE@Base 13
 _ZTSN7OCLUtil24OCLBuiltinFuncMangleInfoE@Base 13
 (arch=armel riscv64)_ZTSN9__gnu_cxx7__mutexE@Base 13
 _ZTSNSt8__detail11_AnyMatcherINSt7__cxx1112regex_traitsIcEELb0ELb0ELb0EEE@Base 13
 _ZTSNSt8__detail11_AnyMatcherINSt7__cxx1112regex_traitsIcEELb0ELb0ELb1EEE@Base 13
 _ZTSNSt8__detail11_AnyMatcherINSt7__cxx1112regex_traitsIcEELb0ELb1ELb0EEE@Base 13
 _ZTSNSt8__detail11_AnyMatcherINSt7__cxx1112regex_traitsIcEELb0ELb1ELb1EEE@Base 13
 _ZTSNSt8__detail11_AnyMatcherINSt7__cxx1112regex_traitsIcEELb1ELb0ELb0EEE@Base 13
 _ZTSNSt8__detail11_AnyMatcherINSt7__cxx1112regex_traitsIcEELb1ELb0ELb1EEE@Base 13
 _ZTSNSt8__detail11_AnyMatcherINSt7__cxx1112regex_traitsIcEELb1ELb1ELb0EEE@Base 13
 _ZTSNSt8__detail11_AnyMatcherINSt7__cxx1112regex_traitsIcEELb1ELb1ELb1EEE@Base 13
 _ZTSNSt8__detail12_CharMatcherINSt7__cxx1112regex_traitsIcEELb0ELb0EEE@Base 13
 _ZTSNSt8__detail12_CharMatcherINSt7__cxx1112regex_traitsIcEELb0ELb1EEE@Base 13
 _ZTSNSt8__detail12_CharMatcherINSt7__cxx1112regex_traitsIcEELb1ELb0EEE@Base 13
 _ZTSNSt8__detail12_CharMatcherINSt7__cxx1112regex_traitsIcEELb1ELb1EEE@Base 13
 _ZTSNSt8__detail15_BracketMatcherINSt7__cxx1112regex_traitsIcEELb0ELb0EEE@Base 13
 _ZTSNSt8__detail15_BracketMatcherINSt7__cxx1112regex_traitsIcEELb0ELb1EEE@Base 13
 _ZTSNSt8__detail15_BracketMatcherINSt7__cxx1112regex_traitsIcEELb1ELb0EEE@Base 13
 _ZTSNSt8__detail15_BracketMatcherINSt7__cxx1112regex_traitsIcEELb1ELb1EEE@Base 13
 _ZTSPFvPN4llvm8MetadataEPN5SPIRV10SPIRVEntryEE@Base 14
 (arch=armel riscv64)_ZTSSt11_Mutex_baseILN9__gnu_cxx12_Lock_policyE1EE@Base 13
 (arch=!armel !riscv64)_ZTSSt11_Mutex_baseILN9__gnu_cxx12_Lock_policyE2EE@Base 13
 (arch=armel riscv64)_ZTSSt15_Sp_counted_ptrIPN5SPIRV9SPIRVLineELN9__gnu_cxx12_Lock_policyE1EE@Base 13
 (arch=!armel !riscv64)_ZTSSt15_Sp_counted_ptrIPN5SPIRV9SPIRVLineELN9__gnu_cxx12_Lock_policyE2EE@Base 13
 (arch=armel riscv64)_ZTSSt16_Sp_counted_baseILN9__gnu_cxx12_Lock_policyE1EE@Base 13
 (arch=!armel !riscv64)_ZTSSt16_Sp_counted_baseILN9__gnu_cxx12_Lock_policyE2EE@Base 13
 _ZTSSt19_Sp_make_shared_tag@Base 13
 (arch=armel riscv64)_ZTSSt23_Sp_counted_ptr_inplaceINSt8__detail4_NFAINSt7__cxx1112regex_traitsIcEEEESaIvELN9__gnu_cxx12_Lock_policyE1EE@Base 13
 (arch=!armel !riscv64)_ZTSSt23_Sp_counted_ptr_inplaceINSt8__detail4_NFAINSt7__cxx1112regex_traitsIcEEEESaIvELN9__gnu_cxx12_Lock_policyE2EE@Base 13
 _ZTSZN5SPIRV10mapBitMaskINS_8SPIRVMapIN7OCLUtil15OCLMemFenceKindEN3spv19MemorySemanticsMaskEvEEEEjjEUlS3_S5_E_@Base 13
 _ZTSZN5SPIRV11rmapBitMaskINS_8SPIRVMapIN7OCLUtil15OCLMemFenceKindEN3spv19MemorySemanticsMaskEvEEEEjjEUlS3_S5_E_@Base 13
 _ZTSZN5SPIRV15TopologicalSortC4ERKSt6vectorIPNS_9SPIRVTypeESaIS3_EERKS1_IPNS_10SPIRVValueESaIS9_EERKS1_IPNS_13SPIRVVariableESaISF_EERS1_IPNS_23SPIRVTypeForwardPointerESaISL_EEEUlPKSK_E_@Base 13
 _ZTSZN5SPIRV15TopologicalSortC4ERKSt6vectorIPNS_9SPIRVTypeESaIS3_EERKS1_IPNS_10SPIRVValueESaIS9_EERKS1_IPNS_13SPIRVVariableESaISF_EERS1_IPNS_23SPIRVTypeForwardPointerESaISL_EEEUlPKSK_SQ_E0_@Base 13
 _ZTSZN5SPIRV15TopologicalSortC4ERKSt6vectorIPNS_9SPIRVTypeESaIS3_EERKS1_IPNS_10SPIRVValueESaIS9_EERKS1_IPNS_13SPIRVVariableESaISF_EERS1_IPNS_23SPIRVTypeForwardPointerESaISL_EEEUlPNS_10SPIRVEntryESQ_E1_@Base 13
 _ZTSZN5SPIRV21getOrCreateSwitchFuncIN7OCLUtil12OCLScopeKindEN3spv5ScopeEvEEPN4llvm11InstructionENS5_9StringRefEPNS5_5ValueERKNS_8SPIRVMapIT_T0_T1_EEbNS5_8OptionalIiEES7_iEUliiE_@Base 13
 _ZTSZN5SPIRV21getOrCreateSwitchFuncIN7OCLUtil15OCLMemOrderKindEjN3spv19MemorySemanticsMaskEEEPN4llvm11InstructionENS5_9StringRefEPNS5_5ValueERKNS_8SPIRVMapIT_T0_T1_EEbNS5_8OptionalIiEES7_iEUliiE_@Base 13
 _ZTSZN5SPIRV21getOrCreateSwitchFuncIN7OCLUtil23OCLMemFenceExtendedKindEN3spv19MemorySemanticsMaskEvEEPN4llvm11InstructionENS5_9StringRefEPNS5_5ValueERKNS_8SPIRVMapIT_T0_T1_EEbNS5_8OptionalIiEES7_iEUliiE_@Base 13
#MISSING: 15# _ZTSZN5SPIRV24SPIRVLowerSPIRBlocksBase16lowerReturnBlockEPN4llvm10ReturnInstEPNS1_5ValueERbEUlRNS1_8FunctionEE_@Base 13
#MISSING: 15# _ZTSZN5SPIRV24SPIRVLowerSPIRBlocksBase17lowerBlockBuiltinEPN4llvm8CallInstEPNS1_8FunctionEPNS1_5ValueES7_S7_NS1_9StringRefEEUlS3_RSt6vectorIS7_SaIS7_EEE_@Base 13
 _ZTSZN7OCLUtil19OCLBuiltinTransInfoC4EvEUlRSt6vectorIPN4llvm5ValueESaIS4_EEE_@Base 13
 _ZTSZNK5SPIRV11SPIRVSwitch8validateEvEUlSt6vectorIjSaIjEEPNS_15SPIRVBasicBlockEE_@Base 13
 _ZTSZNK5SPIRV8SPIRVPhi8validateEvEUlPNS_10SPIRVValueEPNS_15SPIRVBasicBlockEE_@Base 13
 _ZTVN4SPIR10AtomicTypeE@Base 0
 _ZTVN4SPIR10VectorTypeE@Base 0
 _ZTVN4SPIR11PointerTypeE@Base 0
 _ZTVN4SPIR13MangleVisitorE@Base 0
 _ZTVN4SPIR13PrimitiveTypeE@Base 0
 _ZTVN4SPIR15UserDefinedTypeE@Base 0
 _ZTVN4SPIR9BlockTypeE@Base 0
#MISSING: 15# _ZTVN4llvm18ValueMapCallbackVHIPKNS_5ValueENS_14WeakTrackingVHENS_14ValueMapConfigIS3_NS_3sys10SmartMutexILb0EEEEEEE@Base 0
 _ZTVN4llvm18ValueMapCallbackVHIPNS_5ValueENS_12PointerUnionIJPNS_4TypeEPN18SPIRVTypeScavenger12DeferredTypeES2_EEENS_14ValueMapConfigIS2_NS_3sys10SmartMutexILb0EEEEEEE@Base 15
 _ZTVN4llvm2cl11OptionValueIbEE@Base 0
 _ZTVN4llvm2cl3optIbLb1ENS0_6parserIbEEEE@Base 0
 _ZTVN4llvm6detail17AnalysisPassModelINS_6ModuleEN5SPIRV18OCLTypeToSPIRVPassENS_17PreservedAnalysesENS_15AnalysisManagerIS2_JEE11InvalidatorEJEEE@Base 15
 _ZTVN4llvm6detail17AnalysisPassModelINS_6ModuleENS_27PassInstrumentationAnalysisENS_17PreservedAnalysesENS_15AnalysisManagerIS2_JEE11InvalidatorEJEEE@Base 15
 _ZTVN4llvm6detail19AnalysisResultModelINS_6ModuleEN5SPIRV18OCLTypeToSPIRVPassENS3_18OCLTypeToSPIRVBaseENS_17PreservedAnalysesENS_15AnalysisManagerIS2_JEE11InvalidatorELb0EEE@Base 15
 _ZTVN4llvm6detail19AnalysisResultModelINS_6ModuleENS_27PassInstrumentationAnalysisENS_19PassInstrumentationENS_17PreservedAnalysesENS_15AnalysisManagerIS2_JEE11InvalidatorELb1EEE@Base 15
 _ZTVN4llvm6detail9PassModelINS_6ModuleEN5SPIRV14OCLToSPIRVPassENS_17PreservedAnalysesENS_15AnalysisManagerIS2_JEEEJEEE@Base 15
 _ZTVN4llvm6detail9PassModelINS_6ModuleEN5SPIRV15LLVMToSPIRVPassENS_17PreservedAnalysesENS_15AnalysisManagerIS2_JEEEJEEE@Base 15
 _ZTVN4llvm6detail9PassModelINS_6ModuleEN5SPIRV16SPIRVToOCL12PassENS_17PreservedAnalysesENS_15AnalysisManagerIS2_JEEEJEEE@Base 15
 _ZTVN4llvm6detail9PassModelINS_6ModuleEN5SPIRV16SPIRVToOCL20PassENS_17PreservedAnalysesENS_15AnalysisManagerIS2_JEEEJEEE@Base 15
 _ZTVN4llvm6detail9PassModelINS_6ModuleEN5SPIRV18SPIRVLowerBoolPassENS_17PreservedAnalysesENS_15AnalysisManagerIS2_JEEEJEEE@Base 15
 _ZTVN4llvm6detail9PassModelINS_6ModuleEN5SPIRV21SPIRVLowerMemmovePassENS_17PreservedAnalysesENS_15AnalysisManagerIS2_JEEEJEEE@Base 15
 _ZTVN4llvm6detail9PassModelINS_6ModuleEN5SPIRV22PreprocessMetadataPassENS_17PreservedAnalysesENS_15AnalysisManagerIS2_JEEEJEEE@Base 15
 _ZTVN4llvm6detail9PassModelINS_6ModuleEN5SPIRV23SPIRVLowerConstExprPassENS_17PreservedAnalysesENS_15AnalysisManagerIS2_JEEEJEEE@Base 15
 _ZTVN4llvm6detail9PassModelINS_6ModuleEN5SPIRV23SPIRVLowerOCLBlocksPassENS_17PreservedAnalysesENS_15AnalysisManagerIS2_JEEEJEEE@Base 15
 _ZTVN4llvm6detail9PassModelINS_6ModuleEN5SPIRV23SPIRVRegularizeLLVMPassENS_17PreservedAnalysesENS_15AnalysisManagerIS2_JEEEJEEE@Base 15
 _ZTVN4llvm6detail9PassModelINS_6ModuleEN5SPIRV28SPIRVLowerSaddIntrinsicsPassENS_17PreservedAnalysesENS_15AnalysisManagerIS2_JEEEJEEE@Base 15
 _ZTVN4llvm6detail9PassModelINS_6ModuleENS_27ModuleToFunctionPassAdaptorENS_17PreservedAnalysesENS_15AnalysisManagerIS2_JEEEJEEE@Base 15
 _ZTVN4llvm6detail9PassModelINS_8FunctionEN5SPIRV38SPIRVLowerBitCastToNonStandardTypePassENS_17PreservedAnalysesENS_15AnalysisManagerIS2_JEEEJEEE@Base 15
 _ZTVN4llvm6detail9PassModelINS_8FunctionENS_11PromotePassENS_17PreservedAnalysesENS_15AnalysisManagerIS2_JEEEJEEE@Base 15
 _ZTVN4llvm6detail9PassModelINS_8FunctionENS_16LoopSimplifyPassENS_17PreservedAnalysesENS_15AnalysisManagerIS2_JEEEJEEE@Base 15
 _ZTVN5SPIRV10SPIRVBitOpE@Base 13
 _ZTVN5SPIRV10SPIRVEntryE@Base 0
 _ZTVN5SPIRV10SPIRVStoreE@Base 0
 _ZTVN5SPIRV10SPIRVUnaryE@Base 0
 _ZTVN5SPIRV10SPIRVUndefE@Base 0
 _ZTVN5SPIRV10SPIRVValueE@Base 0
 _ZTVN5SPIRV11SPIRVBinaryE@Base 0
 _ZTVN5SPIRV11SPIRVBranchE@Base 0
 _ZTVN5SPIRV11SPIRVModuleE@Base 0
 _ZTVN5SPIRV11SPIRVSourceE@Base 0
 _ZTVN5SPIRV11SPIRVStringE@Base 0
 _ZTVN5SPIRV11SPIRVSwitchE@Base 0
 _ZTVN5SPIRV12SPIRVCmpInstILN3spv2OpE161EEE@Base 0
 _ZTVN5SPIRV12SPIRVCmpInstILN3spv2OpE162EEE@Base 0
 _ZTVN5SPIRV12SPIRVCmpInstILN3spv2OpE163EEE@Base 0
 _ZTVN5SPIRV12SPIRVCmpInstILN3spv2OpE170EEE@Base 0
 _ZTVN5SPIRV12SPIRVCmpInstILN3spv2OpE171EEE@Base 0
 _ZTVN5SPIRV12SPIRVCmpInstILN3spv2OpE172EEE@Base 0
 _ZTVN5SPIRV12SPIRVCmpInstILN3spv2OpE173EEE@Base 0
 _ZTVN5SPIRV12SPIRVCmpInstILN3spv2OpE174EEE@Base 0
 _ZTVN5SPIRV12SPIRVCmpInstILN3spv2OpE175EEE@Base 0
 _ZTVN5SPIRV12SPIRVCmpInstILN3spv2OpE176EEE@Base 0
 _ZTVN5SPIRV12SPIRVCmpInstILN3spv2OpE177EEE@Base 0
 _ZTVN5SPIRV12SPIRVCmpInstILN3spv2OpE178EEE@Base 0
 _ZTVN5SPIRV12SPIRVCmpInstILN3spv2OpE179EEE@Base 0
 _ZTVN5SPIRV12SPIRVCmpInstILN3spv2OpE180EEE@Base 0
 _ZTVN5SPIRV12SPIRVCmpInstILN3spv2OpE181EEE@Base 0
 _ZTVN5SPIRV12SPIRVCmpInstILN3spv2OpE182EEE@Base 0
 _ZTVN5SPIRV12SPIRVCmpInstILN3spv2OpE183EEE@Base 0
 _ZTVN5SPIRV12SPIRVCmpInstILN3spv2OpE184EEE@Base 0
 _ZTVN5SPIRV12SPIRVCmpInstILN3spv2OpE185EEE@Base 0
 _ZTVN5SPIRV12SPIRVCmpInstILN3spv2OpE186EEE@Base 0
 _ZTVN5SPIRV12SPIRVCmpInstILN3spv2OpE187EEE@Base 0
 _ZTVN5SPIRV12SPIRVCmpInstILN3spv2OpE188EEE@Base 0
 _ZTVN5SPIRV12SPIRVCmpInstILN3spv2OpE189EEE@Base 0
 _ZTVN5SPIRV12SPIRVCmpInstILN3spv2OpE190EEE@Base 0
 _ZTVN5SPIRV12SPIRVCmpInstILN3spv2OpE191EEE@Base 0
 _ZTVN5SPIRV12SPIRVCompareE@Base 0
 _ZTVN5SPIRV12SPIRVExtInstE@Base 0
 _ZTVN5SPIRV12SPIRVForwardE@Base 0
 _ZTVN5SPIRV12SPIRVTypeIntE@Base 0
 _ZTVN5SPIRV13SPIRVAsmINTELE@Base 0
 _ZTVN5SPIRV13SPIRVDecorateE@Base 0
 _ZTVN5SPIRV13SPIRVFunctionE@Base 0
 _ZTVN5SPIRV13SPIRVLifetimeILN3spv2OpE256EEE@Base 0
 _ZTVN5SPIRV13SPIRVLifetimeILN3spv2OpE257EEE@Base 0
 _ZTVN5SPIRV13SPIRVTypeBoolE@Base 0
 _ZTVN5SPIRV13SPIRVTypePipeE@Base 0
 _ZTVN5SPIRV13SPIRVTypeVoidE@Base 0
 _ZTVN5SPIRV13SPIRVVariableE@Base 0
 _ZTVN5SPIRV14OCLToSPIRVBaseE@Base 13
 _ZTVN5SPIRV14OCLToSPIRVPassE@Base 15
 _ZTVN5SPIRV14SPIRVExtensionE@Base 0
 _ZTVN5SPIRV14SPIRVLoopMergeE@Base 0
 _ZTVN5SPIRV14SPIRVTransposeE@Base 0
 _ZTVN5SPIRV14SPIRVTypeArrayE@Base 0
 _ZTVN5SPIRV14SPIRVTypeFloatE@Base 0
 _ZTVN5SPIRV14SPIRVTypeImageE@Base 0
 _ZTVN5SPIRV14SPIRVTypeQueueE@Base 0
 _ZTVN5SPIRV14SPIRVUnaryInstILN3spv2OpE109EEE@Base 0
 _ZTVN5SPIRV14SPIRVUnaryInstILN3spv2OpE110EEE@Base 0
 _ZTVN5SPIRV14SPIRVUnaryInstILN3spv2OpE111EEE@Base 0
 _ZTVN5SPIRV14SPIRVUnaryInstILN3spv2OpE112EEE@Base 0
 _ZTVN5SPIRV14SPIRVUnaryInstILN3spv2OpE113EEE@Base 0
 _ZTVN5SPIRV14SPIRVUnaryInstILN3spv2OpE114EEE@Base 0
 _ZTVN5SPIRV14SPIRVUnaryInstILN3spv2OpE115EEE@Base 0
 _ZTVN5SPIRV14SPIRVUnaryInstILN3spv2OpE117EEE@Base 0
 _ZTVN5SPIRV14SPIRVUnaryInstILN3spv2OpE118EEE@Base 0
 _ZTVN5SPIRV14SPIRVUnaryInstILN3spv2OpE119EEE@Base 0
 _ZTVN5SPIRV14SPIRVUnaryInstILN3spv2OpE120EEE@Base 0
 _ZTVN5SPIRV14SPIRVUnaryInstILN3spv2OpE121EEE@Base 0
 _ZTVN5SPIRV14SPIRVUnaryInstILN3spv2OpE122EEE@Base 0
 _ZTVN5SPIRV14SPIRVUnaryInstILN3spv2OpE124EEE@Base 0
 _ZTVN5SPIRV14SPIRVUnaryInstILN3spv2OpE126EEE@Base 0
 _ZTVN5SPIRV14SPIRVUnaryInstILN3spv2OpE127EEE@Base 0
 _ZTVN5SPIRV14SPIRVUnaryInstILN3spv2OpE154EEE@Base 0
 _ZTVN5SPIRV14SPIRVUnaryInstILN3spv2OpE155EEE@Base 0
 _ZTVN5SPIRV14SPIRVUnaryInstILN3spv2OpE156EEE@Base 0
 _ZTVN5SPIRV14SPIRVUnaryInstILN3spv2OpE157EEE@Base 0
 _ZTVN5SPIRV14SPIRVUnaryInstILN3spv2OpE158EEE@Base 0
 _ZTVN5SPIRV14SPIRVUnaryInstILN3spv2OpE159EEE@Base 0
 _ZTVN5SPIRV14SPIRVUnaryInstILN3spv2OpE160EEE@Base 0
 _ZTVN5SPIRV14SPIRVUnaryInstILN3spv2OpE168EEE@Base 0
 _ZTVN5SPIRV14SPIRVUnaryInstILN3spv2OpE200EEE@Base 0
 _ZTVN5SPIRV14SPIRVUnaryInstILN3spv2OpE205EEE@Base 0
 _ZTVN5SPIRV14SPIRVUnaryInstILN3spv2OpE5934EEE@Base 0
 _ZTVN5SPIRV14SPIRVUnaryInstILN3spv2OpE5938EEE@Base 0
 _ZTVN5SPIRV14SPIRVUnaryInstILN3spv2OpE6145EEE@Base 13
 _ZTVN5SPIRV15SPIRVBasicBlockE@Base 0
 _ZTVN5SPIRV15SPIRVBinaryInstILN3spv2OpE128EEE@Base 0
 _ZTVN5SPIRV15SPIRVBinaryInstILN3spv2OpE129EEE@Base 0
 _ZTVN5SPIRV15SPIRVBinaryInstILN3spv2OpE130EEE@Base 0
 _ZTVN5SPIRV15SPIRVBinaryInstILN3spv2OpE131EEE@Base 0
 _ZTVN5SPIRV15SPIRVBinaryInstILN3spv2OpE132EEE@Base 0
 _ZTVN5SPIRV15SPIRVBinaryInstILN3spv2OpE133EEE@Base 0
 _ZTVN5SPIRV15SPIRVBinaryInstILN3spv2OpE134EEE@Base 0
 _ZTVN5SPIRV15SPIRVBinaryInstILN3spv2OpE135EEE@Base 0
 _ZTVN5SPIRV15SPIRVBinaryInstILN3spv2OpE136EEE@Base 0
 _ZTVN5SPIRV15SPIRVBinaryInstILN3spv2OpE137EEE@Base 0
 _ZTVN5SPIRV15SPIRVBinaryInstILN3spv2OpE138EEE@Base 0
 _ZTVN5SPIRV15SPIRVBinaryInstILN3spv2OpE139EEE@Base 13
 _ZTVN5SPIRV15SPIRVBinaryInstILN3spv2OpE140EEE@Base 0
 _ZTVN5SPIRV15SPIRVBinaryInstILN3spv2OpE141EEE@Base 13
 _ZTVN5SPIRV15SPIRVBinaryInstILN3spv2OpE148EEE@Base 0
 _ZTVN5SPIRV15SPIRVBinaryInstILN3spv2OpE164EEE@Base 0
 _ZTVN5SPIRV15SPIRVBinaryInstILN3spv2OpE165EEE@Base 0
 _ZTVN5SPIRV15SPIRVBinaryInstILN3spv2OpE166EEE@Base 0
 _ZTVN5SPIRV15SPIRVBinaryInstILN3spv2OpE167EEE@Base 0
 _ZTVN5SPIRV15SPIRVBinaryInstILN3spv2OpE194EEE@Base 0
 _ZTVN5SPIRV15SPIRVBinaryInstILN3spv2OpE195EEE@Base 0
 _ZTVN5SPIRV15SPIRVBinaryInstILN3spv2OpE196EEE@Base 0
 _ZTVN5SPIRV15SPIRVBinaryInstILN3spv2OpE197EEE@Base 0
 _ZTVN5SPIRV15SPIRVBinaryInstILN3spv2OpE198EEE@Base 0
 _ZTVN5SPIRV15SPIRVBinaryInstILN3spv2OpE199EEE@Base 0
 _ZTVN5SPIRV15SPIRVCapabilityE@Base 0
 _ZTVN5SPIRV15SPIRVCopyMemoryE@Base 0
 _ZTVN5SPIRV15SPIRVCopyObjectE@Base 0
 _ZTVN5SPIRV15SPIRVDecorateIdE@Base 13
 _ZTVN5SPIRV15SPIRVDotKHRBaseE@Base 13
 _ZTVN5SPIRV15SPIRVEntryPointE@Base 0
 _ZTVN5SPIRV15SPIRVMemberNameE@Base 0
 _ZTVN5SPIRV15SPIRVModuleImplE@Base 0
 _ZTVN5SPIRV15SPIRVSelectBaseE@Base 13
 _ZTVN5SPIRV15SPIRVTypeMatrixE@Base 0
 _ZTVN5SPIRV15SPIRVTypeOpaqueE@Base 0
 _ZTVN5SPIRV15SPIRVTypeStructE@Base 0
 _ZTVN5SPIRV15SPIRVTypeVectorE@Base 0
 _ZTVN5SPIRV16OCLToSPIRVLegacyE@Base 13
 _ZTVN5SPIRV16SPIRVInstructionE@Base 0
 _ZTVN5SPIRV16SPIRVMemoryModelE@Base 0
 _ZTVN5SPIRV16SPIRVReturnValueE@Base 0
 _ZTVN5SPIRV16SPIRVToOCL12BaseE@Base 13
 _ZTVN5SPIRV16SPIRVToOCL12PassE@Base 15
 _ZTVN5SPIRV16SPIRVToOCL20BaseE@Base 13
 _ZTVN5SPIRV16SPIRVToOCL20PassE@Base 15
 _ZTVN5SPIRV16SPIRVToOCLLegacyE@Base 13
 _ZTVN5SPIRV16SPIRVTypePointerE@Base 0
 _ZTVN5SPIRV16SPIRVTypeSamplerE@Base 0
 _ZTVN5SPIRV17LLVMToSPIRVLegacyE@Base 13
 _ZTVN5SPIRV17SPIRVAsmCallINTELE@Base 0
 _ZTVN5SPIRV17SPIRVComplexFloatE@Base 15
 _ZTVN5SPIRV17SPIRVConstantBaseILN3spv2OpE43EEE@Base 0
 _ZTVN5SPIRV17SPIRVConstantBaseILN3spv2OpE50EEE@Base 0
 _ZTVN5SPIRV17SPIRVConstantBoolILN3spv2OpE41EEE@Base 0
 _ZTVN5SPIRV17SPIRVConstantBoolILN3spv2OpE42EEE@Base 0
 _ZTVN5SPIRV17SPIRVConstantBoolILN3spv2OpE48EEE@Base 0
 _ZTVN5SPIRV17SPIRVConstantBoolILN3spv2OpE49EEE@Base 0
 _ZTVN5SPIRV17SPIRVConstantNullE@Base 0
 _ZTVN5SPIRV17SPIRVFunctionCallE@Base 0
 _ZTVN5SPIRV17SPIRVInstTemplateINS_10SPIRVBitOpELN3spv2OpE201ELb1ELj7ELb0ELj4294967295ELj4294967295ELj4294967295EEE@Base 13
 _ZTVN5SPIRV17SPIRVInstTemplateINS_10SPIRVBitOpELN3spv2OpE202ELb1ELj6ELb0ELj4294967295ELj4294967295ELj4294967295EEE@Base 13
 _ZTVN5SPIRV17SPIRVInstTemplateINS_10SPIRVBitOpELN3spv2OpE203ELb1ELj6ELb0ELj4294967295ELj4294967295ELj4294967295EEE@Base 13
 _ZTVN5SPIRV17SPIRVInstTemplateINS_10SPIRVBitOpELN3spv2OpE204ELb1ELj4ELb0ELj4294967295ELj4294967295ELj4294967295EEE@Base 13
 _ZTVN5SPIRV17SPIRVInstTemplateINS_15SPIRVDotKHRBaseELN3spv2OpE4450ELb1ELj5ELb1ELj2ELj4294967295ELj4294967295EEE@Base 13
 _ZTVN5SPIRV17SPIRVInstTemplateINS_15SPIRVDotKHRBaseELN3spv2OpE4451ELb1ELj5ELb1ELj2ELj4294967295ELj4294967295EEE@Base 13
 _ZTVN5SPIRV17SPIRVInstTemplateINS_15SPIRVDotKHRBaseELN3spv2OpE4452ELb1ELj5ELb1ELj2ELj4294967295ELj4294967295EEE@Base 13
 _ZTVN5SPIRV17SPIRVInstTemplateINS_15SPIRVDotKHRBaseELN3spv2OpE4453ELb1ELj6ELb1ELj3ELj4294967295ELj4294967295EEE@Base 13
 _ZTVN5SPIRV17SPIRVInstTemplateINS_15SPIRVDotKHRBaseELN3spv2OpE4454ELb1ELj6ELb1ELj3ELj4294967295ELj4294967295EEE@Base 13
