# SymbolsHelper-Confirmed: 17 amd64 arm64 armhf hurd-i386 i386 loong64 ppc64 ppc64el riscv64 s390x
libLLVMSPIRVLib.so.17 #PACKAGE# #MINVER#
* Build-Depends-Package: libllvmspirvlib-17-dev
 _ZGVZNKSt8__detail11_AnyMatcherINSt7__cxx1112regex_traitsIcEELb0ELb0ELb0EEclEcE5__nul@Base 0
 _ZGVZNKSt8__detail11_AnyMatcherINSt7__cxx1112regex_traitsIcEELb0ELb0ELb1EEclEcE5__nul@Base 0
 _ZGVZNKSt8__detail11_AnyMatcherINSt7__cxx1112regex_traitsIcEELb0ELb1ELb0EEclEcE5__nul@Base 0
 _ZGVZNKSt8__detail11_AnyMatcherINSt7__cxx1112regex_traitsIcEELb0ELb1ELb1EEclEcE5__nul@Base 0
 _ZN4llvm10writeSpirvEPNS_6ModuleERKN5SPIRV14TranslatorOptsERSoRNSt7__cxx1112basic_stringIcSt11char_traitsIcESaIcEEE@Base 0
 _ZN4llvm10writeSpirvEPNS_6ModuleERSoRNSt7__cxx1112basic_stringIcSt11char_traitsIcESaIcEEE@Base 0
 _ZN4llvm16getSpecConstInfoERSiRSt6vectorINS_15SpecConstInfoTyESaIS2_EE@Base 16
#MISSING: 16# _ZN4llvm16getSpecConstInfoERSiRSt6vectorISt4pairIjjESaIS3_EE@Base 0
 _ZN4llvm18convertSpirvToLLVMERNS_11LLVMContextERN5SPIRV11SPIRVModuleERKNS2_14TranslatorOptsERNSt7__cxx1112basic_stringIcSt11char_traitsIcESaIcEEE@Base 0
 _ZN4llvm18convertSpirvToLLVMERNS_11LLVMContextERN5SPIRV11SPIRVModuleERNSt7__cxx1112basic_stringIcSt11char_traitsIcESaIcEEE@Base 0
#MISSING: 16# _ZN4llvm19mangleOpenClBuiltinERKNSt7__cxx1112basic_stringIcSt11char_traitsIcESaIcEEENS_8ArrayRefIPNS_4TypeEEENS8_INS_14PointerIntPairISA_Lj1EbNS_21PointerLikeTypeTraitsISA_EENS_18PointerIntPairInfoISA_Lj1ESE_EEEEEERS5_@Base 15
 _ZN4llvm19mangleOpenClBuiltinERKNSt7__cxx1112basic_stringIcSt11char_traitsIcESaIcEEENS_8ArrayRefIPNS_4TypeEEERS5_@Base 16
 _ZN4llvm21createSPIRVWriterPassERSo@Base 0
 _ZN4llvm21createSPIRVWriterPassERSoRKN5SPIRV14TranslatorOptsE@Base 0
 _ZN4llvm22createOCLToSPIRVLegacyEv@Base 13
 _ZN4llvm22regularizeLlvmForSpirvEPNS_6ModuleERNSt7__cxx1112basic_stringIcSt11char_traitsIcESaIcEEE@Base 0
 _ZN4llvm22regularizeLlvmForSpirvEPNS_6ModuleERNSt7__cxx1112basic_stringIcSt11char_traitsIcESaIcEEERKN5SPIRV14TranslatorOptsE@Base 0
 _ZN4llvm23createLLVMToSPIRVLegacyEPN5SPIRV11SPIRVModuleE@Base 13
 _ZN4llvm24createSPIRVToOCL12LegacyEv@Base 13
 _ZN4llvm24createSPIRVToOCL20LegacyEv@Base 13
 _ZN4llvm26createOCLTypeToSPIRVLegacyEv@Base 13
 _ZN4llvm26createSPIRVBIsLoweringPassERNS_6ModuleEN5SPIRV17BIsRepresentationE@Base 0
 _ZN4llvm26createSPIRVLowerBoolLegacyEv@Base 13
 _ZN4llvm29createSPIRVLowerMemmoveLegacyEv@Base 13
 _ZN4llvm30createPreprocessMetadataLegacyEv@Base 13
 _ZN4llvm30initializeOCLToSPIRVLegacyPassERNS_12PassRegistryE@Base 13
 _ZN4llvm31createSPIRVLowerConstExprLegacyEv@Base 13
 _ZN4llvm31createSPIRVLowerOCLBlocksLegacyEv@Base 13
 _ZN4llvm31createSPIRVRegularizeLLVMLegacyEv@Base 13
 _ZN4llvm31initializeLLVMToSPIRVLegacyPassERNS_12PassRegistryE@Base 13
 _ZN4llvm32initializeSPIRVToOCL12LegacyPassERNS_12PassRegistryE@Base 13
 _ZN4llvm32initializeSPIRVToOCL20LegacyPassERNS_12PassRegistryE@Base 13
 _ZN4llvm34initializeOCLTypeToSPIRVLegacyPassERNS_12PassRegistryE@Base 13
 _ZN4llvm34initializeSPIRVLowerBoolLegacyPassERNS_12PassRegistryE@Base 13
#MISSING: 16# _ZN4llvm36createSPIRVLowerSaddIntrinsicsLegacyEv@Base 15
 _ZN4llvm37initializeSPIRVLowerMemmoveLegacyPassERNS_12PassRegistryE@Base 13
 _ZN4llvm38createSPIRVLowerSaddWithOverflowLegacyEv@Base 16
 _ZN4llvm38initializePreprocessMetadataLegacyPassERNS_12PassRegistryE@Base 13
 _ZN4llvm39initializeSPIRVLowerConstExprLegacyPassERNS_12PassRegistryE@Base 13
 _ZN4llvm39initializeSPIRVLowerOCLBlocksLegacyPassERNS_12PassRegistryE@Base 13
 _ZN4llvm39initializeSPIRVRegularizeLLVMLegacyPassERNS_12PassRegistryE@Base 13
 (optional=lto)_ZN4llvm3Any6TypeIdIPKNS_6ModuleEE2IdE@Base 16
#MISSING: 16# _ZN4llvm44initializeSPIRVLowerSaddIntrinsicsLegacyPassERNS_12PassRegistryE@Base 15
 _ZN4llvm46createSPIRVLowerBitCastToNonStandardTypeLegacyERKN5SPIRV14TranslatorOptsE@Base 14
 _ZN4llvm46initializeSPIRVLowerSaddWithOverflowLegacyPassERNS_12PassRegistryE@Base 16
 _ZN4llvm54initializeSPIRVLowerBitCastToNonStandardTypeLegacyPassERNS_12PassRegistryE@Base 13
 _ZN4llvm9readSpirvERNS_11LLVMContextERKN5SPIRV14TranslatorOptsERSiRPNS_6ModuleERNSt7__cxx1112basic_stringIcSt11char_traitsIcESaIcEEE@Base 0
 _ZN4llvm9readSpirvERNS_11LLVMContextERSiRPNS_6ModuleERNSt7__cxx1112basic_stringIcSt11char_traitsIcESaIcEEE@Base 0
 _ZN5SPIRV12convertSpirvERNSt7__cxx1112basic_stringIcSt11char_traitsIcESaIcEEES6_S6_b@Base 0
 _ZN5SPIRV12convertSpirvERSiRSoRNSt7__cxx1112basic_stringIcSt11char_traitsIcESaIcEEEbb@Base 0
 _ZN5SPIRV14TranslatorOpts30setSPIRVAllowUnknownIntrinsicsEN4llvm11SmallVectorINS1_9StringRefELj4EEE@Base 13
 _ZN5SPIRV15readSpirvModuleERSiRKNS_14TranslatorOptsERNSt7__cxx1112basic_stringIcSt11char_traitsIcESaIcEEE@Base 0
 _ZN5SPIRV15readSpirvModuleERSiRNSt7__cxx1112basic_stringIcSt11char_traitsIcESaIcEEE@Base 0
 _ZN5SPIRV18SPIRVUseTextFormatE@Base 0
 _ZNK5SPIRV14TranslatorOpts25isUnknownIntrinsicAllowedEPN4llvm13IntrinsicInstE@Base 13
 _ZNK5SPIRV14TranslatorOpts36isSPIRVAllowUnknownIntrinsicsEnabledEv@Base 13
#MISSING: 14.0.0-7~gcc13# (optional=templinst)_ZNKSt10_HashtableIjjSaIjENSt8__detail9_IdentityESt8equal_toIjESt4hashIjENS1_18_Mod_range_hashingENS1_20_Default_ranged_hashENS1_20_Prime_rehash_policyENS1_17_Hashtable_traitsILb0ELb1ELb1EEEE4findERKj@Base 14
 (optional=templinst)_ZNKSt7__cxx1112regex_traitsIcE16lookup_classnameIPKcEENS1_10_RegexMaskET_S6_b@Base 0
 (optional=templinst)_ZNKSt7__cxx1112regex_traitsIcE18lookup_collatenameIPKcEENS_12basic_stringIcSt11char_traitsIcESaIcEEET_SA_@Base 0
 (optional=templinst)_ZNKSt7__cxx1114regex_iteratorIPKccNS_12regex_traitsIcEEEeqERKS5_@Base 14
#MISSING: 14.0.0-7~gcc13# (optional=templinst)_ZNKSt8_Rb_treeIN3spv2OpESt4pairIKS1_NSt7__cxx1112basic_stringIcSt11char_traitsIcESaIcEEEESt10_Select1stISA_ESt4lessIS1_ESaISA_EE4findERS3_@Base 14
 (optional=templinst)_ZNKSt8_Rb_treeINSt7__cxx1112basic_stringIcSt11char_traitsIcESaIcEEESt4pairIKS5_N3spv2OpEESt10_Select1stISA_ESt4lessIS5_ESaISA_EE4findERS7_@Base 0
 (optional=templinst)_ZNKSt8_Rb_treeINSt7__cxx1112basic_stringIcSt11char_traitsIcESaIcEEESt4pairIKS5_N3spv7BuiltInEESt10_Select1stISA_ESt4lessIS5_ESaISA_EE4findERS7_@Base 17
 (optional=templinst)_ZNKSt8__detail9_ExecutorIPKcSaINSt7__cxx119sub_matchIS2_EEENS3_12regex_traitsIcEELb0EE16_M_word_boundaryEv@Base 0
 (optional=templinst)_ZNKSt8__detail9_ExecutorIPKcSaINSt7__cxx119sub_matchIS2_EEENS3_12regex_traitsIcEELb1EE16_M_word_boundaryEv@Base 0
 (optional=templinst|subst)_ZNSt10_HashtableIPKN4llvm8FunctionES3_SaIS3_ENSt8__detail9_IdentityESt8equal_toIS3_ESt4hashIS3_ENS5_18_Mod_range_hashingENS5_20_Default_ranged_hashENS5_20_Prime_rehash_policyENS5_17_Hashtable_traitsILb0ELb1ELb1EEEE21_M_insert_unique_nodeE{size_t}{size_t}PNS5_10_Hash_nodeIS3_Lb0EEE{size_t}@Base 0
 (optional=templinst|subst)_ZNSt10_HashtableIjSt4pairIKj{uint64_t}ESaIS2_ENSt8__detail10_Select1stESt8equal_toIjESt4hashIjENS4_18_Mod_range_hashingENS4_20_Default_ranged_hashENS4_20_Prime_rehash_policyENS4_17_Hashtable_traitsILb0ELb0ELb1EEEE18_M_assign_elementsIRKSF_EEvOT_@Base 0
 (optional=templinst|subst|arch=!armel !armhf !mipsel !powerpc)_ZNSt10_HashtableIjSt4pairIKj{uint64_t}ESaIS2_ENSt8__detail10_Select1stESt8equal_toIjESt4hashIjENS4_18_Mod_range_hashingENS4_20_Default_ranged_hashENS4_20_Prime_rehash_policyENS4_17_Hashtable_traitsILb0ELb0ELb1EEEE9_M_assignIRKSF_NS4_17_ReuseOrAllocNodeISaINS4_10_Hash_nodeIS2_Lb0EEEEEEEEvOT_RKT0_@Base 0
 (optional=templinst|arch=armel armhf hurd-i386 i386 mipsel powerpc x32)_ZNSt10_HashtableIjjSaIjENSt8__detail9_IdentityESt8equal_toIjESt4hashIjENS1_18_Mod_range_hashingENS1_20_Default_ranged_hashENS1_20_Prime_rehash_policyENS1_17_Hashtable_traitsILb0ELb1ELb1EEEE21_M_insert_unique_nodeEjjPNS1_10_Hash_nodeIjLb0EEEj@Base 15.0.0-4~gcc13~
 (optional=templinst|arch=!armel !armhf !hurd-i386 !i386 !mipsel !powerpc !x32)_ZNSt10_HashtableIjjSaIjENSt8__detail9_IdentityESt8equal_toIjESt4hashIjENS1_18_Mod_range_hashingENS1_20_Default_ranged_hashENS1_20_Prime_rehash_policyENS1_17_Hashtable_traitsILb0ELb1ELb1EEEE21_M_insert_unique_nodeEmmPNS1_10_Hash_nodeIjLb0EEEm@Base 15.0.0-4~gcc13~
#MISSING: 16.0.0-3~gcc13# (optional=templinst|arch=mips64el mipsel riscv64 sparc64 x32|subst)_ZNSt11_Deque_baseIlSaIlEE17_M_initialize_mapE{size_t}@Base 0
 (optional=templinst)_ZNSt11_Deque_baseIlSaIlEED1Ev@Base 0
 (optional=templinst)_ZNSt11_Deque_baseIlSaIlEED2Ev@Base 0
 (optional=templinst|subst|arch=!ppc64 !s390x)_ZNSt17_Temporary_bufferIN9__gnu_cxx17__normal_iteratorIPSt4pairIjjESt6vectorIS3_SaIS3_EEEES3_EC1ES8_{ssize_t}@Base 13
 (optional=templinst|subst|arch=!ppc64 !s390x)_ZNSt17_Temporary_bufferIN9__gnu_cxx17__normal_iteratorIPSt4pairIjjESt6vectorIS3_SaIS3_EEEES3_EC2ES8_{ssize_t}@Base 13
#MISSING: 16# (optional=templinst)_ZNSt5dequeINSt8__detail9_StateSeqINSt7__cxx1112regex_traitsIcEEEESaIS5_EE12emplace_backIJS5_EEEvDpOT_@Base 0
 (optional=templinst)_ZNSt5dequeINSt8__detail9_StateSeqINSt7__cxx1112regex_traitsIcEEEESaIS5_EE16_M_push_back_auxIJRKS5_EEEvDpOT_@Base 0
 (optional=templinst|arch=!amd64 !arm64 !x32)_ZNSt5dequeINSt8__detail9_StateSeqINSt7__cxx1112regex_traitsIcEEEESaIS5_EE16_M_push_back_auxIJS5_EEEvDpOT_@Base 0
 (optional=templinst|subst)_ZNSt5dequeINSt8__detail9_StateSeqINSt7__cxx1112regex_traitsIcEEEESaIS5_EE17_M_reallocate_mapE{size_t}b@Base 0
 (optional=templinst)_ZNSt5dequeIlSaIlEE16_M_push_back_auxIJRKlEEEvDpOT_@Base 0
#MISSING: 16# (optional=templinst)_ZNSt6vectorIN3spv10CapabilityESaIS1_EE12emplace_backIJS1_EEEvDpOT_@Base 0
 (optional=templinst)_ZNSt6vectorIN3spv10CapabilityESaIS1_EE17_M_realloc_insertIJRKS1_EEEvN9__gnu_cxx17__normal_iteratorIPS1_S3_EEDpOT_@Base 0
 (optional=templinst|subst)_ZNSt6vectorIN3spv15AccessQualifierESaIS1_EE17_M_default_appendE{size_t}@Base 0
 (optional=templinst)_ZNSt6vectorIN3spv15AccessQualifierESaIS1_EE17_M_realloc_insertIJRKS1_EEEvN9__gnu_cxx17__normal_iteratorIPS1_S3_EEDpOT_@Base 0
 (optional=templinst)_ZNSt6vectorIN4llvm15SpecConstInfoTyESaIS1_EE17_M_realloc_insertIJS1_EEEvN9__gnu_cxx17__normal_iteratorIPS1_S3_EEDpOT_@Base 16
 (optional=templinst|arch=mipsel)_ZNSt6vectorINSt7__cxx1112basic_stringIcSt11char_traitsIcESaIcEEESaIS5_EE12emplace_backIJS5_EEEvDpOT_@Base 15.0.0-4~gcc13~
 (optional=templinst)_ZNSt6vectorINSt7__cxx1112basic_stringIcSt11char_traitsIcESaIcEEESaIS5_EE17_M_realloc_insertIJRKS5_EEEvN9__gnu_cxx17__normal_iteratorIPS5_S7_EEDpOT_@Base 0
 (optional=templinst)_ZNSt6vectorINSt7__cxx1112basic_stringIcSt11char_traitsIcESaIcEEESaIS5_EE17_M_realloc_insertIJS5_EEEvN9__gnu_cxx17__normal_iteratorIPS5_S7_EEDpOT_@Base 15
 (optional=templinst)_ZNSt6vectorINSt7__cxx1112regex_traitsIcE10_RegexMaskESaIS3_EE17_M_realloc_insertIJRKS3_EEEvN9__gnu_cxx17__normal_iteratorIPS3_S5_EEDpOT_@Base 0
 (optional=templinst|subst)_ZNSt6vectorINSt7__cxx119sub_matchIPKcEESaIS4_EE14_M_fill_assignE{size_t}RKS4_@Base 0
 (optional=templinst)_ZNSt6vectorINSt8__detail6_StateIcEESaIS2_EE17_M_realloc_insertIJS2_EEEvN9__gnu_cxx17__normal_iteratorIPS2_S4_EEDpOT_@Base 0
 (optional=templinst)_ZNSt6vectorIPN4llvm8FunctionESaIS2_EE17_M_realloc_insertIJS2_EEEvN9__gnu_cxx17__normal_iteratorIPS2_S4_EEDpOT_@Base 0
 (optional=templinst)_ZNSt6vectorIS_INSt7__cxx1112basic_stringIcSt11char_traitsIcESaIcEEESaIS5_EESaIS7_EE17_M_realloc_insertIJS7_EEEvN9__gnu_cxx17__normal_iteratorIPS7_S9_EEDpOT_@Base 16
#MISSING: 16# (optional=templinst)_ZNSt6vectorISt4pairIN3spv10DecorationES_INSt7__cxx1112basic_stringIcSt11char_traitsIcESaIcEEESaIS8_EEESaISB_EE12emplace_backIJS2_SA_EEEvDpOT_@Base 15
 (optional=templinst)_ZNSt6vectorISt4pairIN3spv10DecorationES_INSt7__cxx1112basic_stringIcSt11char_traitsIcESaIcEEESaIS8_EEESaISB_EE17_M_realloc_insertIJRS2_SA_EEEvN9__gnu_cxx17__normal_iteratorIPSB_SD_EEDpOT_@Base 15
 (optional=templinst)_ZNSt6vectorISt4pairIN3spv10DecorationES_INSt7__cxx1112basic_stringIcSt11char_traitsIcESaIcEEESaIS8_EEESaISB_EE17_M_realloc_insertIJS2_SA_EEEvN9__gnu_cxx17__normal_iteratorIPSB_SD_EEDpOT_@Base 15
 (optional=templinst)_ZNSt6vectorISt4pairINSt7__cxx1112basic_stringIcSt11char_traitsIcESaIcEEES6_ESaIS7_EE17_M_realloc_insertIJS7_EEEvN9__gnu_cxx17__normal_iteratorIPS7_S9_EEDpOT_@Base 0
 (optional=templinst)_ZNSt6vectorISt4pairIccESaIS1_EE17_M_realloc_insertIJS1_EEEvN9__gnu_cxx17__normal_iteratorIPS1_S3_EEDpOT_@Base 0
#MISSING: 16# (optional=templinst)_ZNSt6vectorISt4pairIjjESaIS1_EE12emplace_backIJN3spv15LoopControlMaskERjEEEvDpOT_@Base 12
#MISSING: 16# (optional=templinst|arch=!armel !armhf !hurd-i386 !i386 !mipsel !powerpc !x32)_ZNSt6vectorISt4pairIjjESaIS1_EE12emplace_backIJN3spv15LoopControlMaskERmEEEvDpOT_@Base 12
#MISSING: 16# (optional=templinst)_ZNSt6vectorISt4pairIjjESaIS1_EE12emplace_backIJN3spv15LoopControlMaskEiEEEvDpOT_@Base 12
#MISSING: 16# (optional=templinst|arch=armel armhf hurd-i386 i386 mipsel powerpc x32)_ZNSt6vectorISt4pairIjjESaIS1_EE12emplace_backIJN3spv15LoopControlMaskEjEEEvDpOT_@Base 12
#MISSING: 16# (optional=templinst|arch=!armel !armhf !hurd-i386 !i386 !mipsel !powerpc !x32)_ZNSt6vectorISt4pairIjjESaIS1_EE12emplace_backIJN3spv15LoopControlMaskEmEEEvDpOT_@Base 12
#MISSING: 16# (optional=templinst)_ZNSt6vectorISt4pairIjjESaIS1_EE12emplace_backIJRKN3spv15LoopControlMaskEjEEEvDpOT_@Base 13
#MISSING: 16# (optional=templinst)_ZNSt6vectorISt4pairIjjESaIS1_EE12emplace_backIJRKjRjEEEvDpOT_@Base 0
#MISSING: 16# (optional=templinst|arch=armel armhf hurd-i386 i386 mipsel powerpc)_ZNSt6vectorISt4pairIjjESaIS1_EE17_M_realloc_insertIJRjS5_EEEvN9__gnu_cxx17__normal_iteratorIPS1_S3_EEDpOT_@Base 0
 (optional=templinst)_ZNSt6vectorISt4pairIjjESaIS1_EE17_M_realloc_insertIJS1_EEEvN9__gnu_cxx17__normal_iteratorIPS1_S3_EEDpOT_@Base 0
#MISSING: 16# (optional=templinst|arch=!x32)_ZNSt6vectorISt4pairIlS_INSt7__cxx119sub_matchIPKcEESaIS5_EEESaIS8_EE12emplace_backIJRlRKS7_EEEvDpOT_@Base 0
 (optional=templinst)_ZNSt6vectorISt4pairIlS_INSt7__cxx119sub_matchIPKcEESaIS5_EEESaIS8_EE17_M_realloc_insertIJRlRKS7_EEEvN9__gnu_cxx17__normal_iteratorIPS8_SA_EEDpOT_@Base 0
#MISSING: 16# (optional=templinst)_ZNSt6vectorIcSaIcEE12emplace_backIJcEEEvDpOT_@Base 0
 (optional=templinst)_ZNSt6vectorIcSaIcEE17_M_realloc_insertIJcEEEvN9__gnu_cxx17__normal_iteratorIPcS1_EEDpOT_@Base 0
#MISSING: 16# (optional=templinst)_ZNSt6vectorIiSaIiEE12emplace_backIJiEEEvDpOT_@Base 0
 (optional=templinst)_ZNSt6vectorIiSaIiEE17_M_realloc_insertIJiEEEvN9__gnu_cxx17__normal_iteratorIPiS1_EEDpOT_@Base 0
#MISSING: 16# (optional=templinst)_ZNSt6vectorIjSaIjEE12emplace_backIJjEEEvDpOT_@Base 0
 (optional=templinst|arch=armel armhf hurd-i386 i386 mipsel powerpc x32)_ZNSt6vectorIjSaIjEE14_M_fill_insertEN9__gnu_cxx17__normal_iteratorIPjS1_EEjRKj@Base 12
 (optional=templinst|arch=!armel !armhf !hurd-i386 !i386 !mipsel !powerpc !x32)_ZNSt6vectorIjSaIjEE14_M_fill_insertEN9__gnu_cxx17__normal_iteratorIPjS1_EEmRKj@Base 12
 (optional=templinst|subst)_ZNSt6vectorIjSaIjEE17_M_default_appendE{size_t}@Base 0
 (optional=templinst)_ZNSt6vectorIjSaIjEE17_M_realloc_insertIJRKjEEEvN9__gnu_cxx17__normal_iteratorIPjS1_EEDpOT_@Base 0
 (optional=templinst)_ZNSt6vectorIjSaIjEE17_M_realloc_insertIJjEEEvN9__gnu_cxx17__normal_iteratorIPjS1_EEDpOT_@Base 0
 (optional=templinst|arch=!armel !armhf !hurd-i386 !i386 !mipsel !powerpc !x32)_ZNSt6vectorImSaImEE17_M_realloc_insertIJRKmEEEvN9__gnu_cxx17__normal_iteratorIPmS1_EEDpOT_@Base 0
 (optional=templinst|subst)_ZNSt6vectorI{uint64_t}SaI{uint64_t}EE17_M_realloc_insertIJ{uint64_t}EEEvN9__gnu_cxx17__normal_iteratorIP{uint64_t}S1_EEDpOT_@Base 14
#MISSING: 14.0.0-7~gcc13# (optional=templinst|arch=!amd64 !arm64 !mips64el !ppc64el !riscv64 !sparc64 !x32)_ZNSt8_Rb_treeI14VCFloatControlSt4pairIKS0_N17VectorComputeUtil11VCFloatTypeEESt10_Select1stIS5_ESt4lessIS0_ESaIS5_EE22_M_emplace_hint_uniqueIJRKSt21piecewise_construct_tSt5tupleIJRS2_EESG_IJEEEEESt17_Rb_tree_iteratorIS5_ESt23_Rb_tree_const_iteratorIS5_EDpOT_@Base 0
#MISSING: 14.0.0-7~gcc13# (optional=templinst)_ZNSt8_Rb_treeI14VCFloatControlSt4pairIKS0_N17VectorComputeUtil11VCFloatTypeEESt10_Select1stIS5_ESt4lessIS0_ESaIS5_EE24_M_get_insert_unique_posERS2_@Base 0
#MISSING: 14.0.0-7~gcc13# (optional=templinst|arch=amd64 arm64 mips64el ppc64el riscv64 sparc64 x32)_ZNSt8_Rb_treeI14VCFloatControlSt4pairIKS0_N17VectorComputeUtil11VCFloatTypeEESt10_Select1stIS5_ESt4lessIS0_ESaIS5_EE29_M_get_insert_hint_unique_posESt23_Rb_tree_const_iteratorIS5_ERS2_@Base 0
#MISSING: 14.0.0-7~gcc13# (optional=templinst|arch=!amd64 !arm64 !mips64el !ppc64el !riscv64 !sparc64 !x32)_ZNSt8_Rb_treeI14VCFloatControlSt4pairIKS0_N3spv14FPRoundingModeEESt10_Select1stIS5_ESt4lessIS0_ESaIS5_EE22_M_emplace_hint_uniqueIJRKSt21piecewise_construct_tSt5tupleIJRS2_EESG_IJEEEEESt17_Rb_tree_iteratorIS5_ESt23_Rb_tree_const_iteratorIS5_EDpOT_@Base 0
#MISSING: 14.0.0-7~gcc13# (optional=templinst)_ZNSt8_Rb_treeI14VCFloatControlSt4pairIKS0_N3spv14FPRoundingModeEESt10_Select1stIS5_ESt4lessIS0_ESaIS5_EE24_M_get_insert_unique_posERS2_@Base 0
#MISSING: 14.0.0-7~gcc13# (optional=templinst|arch=amd64 arm64 mips64el ppc64el riscv64 sparc64 x32)_ZNSt8_Rb_treeI14VCFloatControlSt4pairIKS0_N3spv14FPRoundingModeEESt10_Select1stIS5_ESt4lessIS0_ESaIS5_EE29_M_get_insert_hint_unique_posESt23_Rb_tree_const_iteratorIS5_ERS2_@Base 0
#MISSING: 14.0.0-7~gcc13# (optional=templinst|arch=!amd64 !arm64 !mips64el !ppc64el !riscv64 !sparc64 !x32)_ZNSt8_Rb_treeI14VCFloatControlSt4pairIKS0_N3spv15FPOperationModeEESt10_Select1stIS5_ESt4lessIS0_ESaIS5_EE22_M_emplace_hint_uniqueIJRKSt21piecewise_construct_tSt5tupleIJRS2_EESG_IJEEEEESt17_Rb_tree_iteratorIS5_ESt23_Rb_tree_const_iteratorIS5_EDpOT_@Base 0
#MISSING: 14.0.0-7~gcc13# (optional=templinst)_ZNSt8_Rb_treeI14VCFloatControlSt4pairIKS0_N3spv15FPOperationModeEESt10_Select1stIS5_ESt4lessIS0_ESaIS5_EE24_M_get_insert_unique_posERS2_@Base 0
#MISSING: 14.0.0-7~gcc13# (optional=templinst|arch=amd64 arm64 mips64el ppc64el riscv64 sparc64 x32)_ZNSt8_Rb_treeI14VCFloatControlSt4pairIKS0_N3spv15FPOperationModeEESt10_Select1stIS5_ESt4lessIS0_ESaIS5_EE29_M_get_insert_hint_unique_posESt23_Rb_tree_const_iteratorIS5_ERS2_@Base 0
#MISSING: 14.0.0-7~gcc13# (optional=templinst|arch=!amd64 !arm64 !mips64el !ppc64el !riscv64 !sparc64 !x32)_ZNSt8_Rb_treeIN10SPIRVDebug11EncodingTagESt4pairIKS1_N4llvm5dwarf8TypeKindEESt10_Select1stIS7_ESt4lessIS1_ESaIS7_EE22_M_emplace_hint_uniqueIJRKSt21piecewise_construct_tSt5tupleIJRS3_EESI_IJEEEEESt17_Rb_tree_iteratorIS7_ESt23_Rb_tree_const_iteratorIS7_EDpOT_@Base 0
#MISSING: 14.0.0-7~gcc13# (optional=templinst)_ZNSt8_Rb_treeIN10SPIRVDebug11EncodingTagESt4pairIKS1_N4llvm5dwarf8TypeKindEESt10_Select1stIS7_ESt4lessIS1_ESaIS7_EE24_M_get_insert_unique_posERS3_@Base 0
#MISSING: 14.0.0-7~gcc13# (optional=templinst|arch=amd64 arm64 mips64el ppc64el riscv64 sparc64 x32)_ZNSt8_Rb_treeIN10SPIRVDebug11EncodingTagESt4pairIKS1_N4llvm5dwarf8TypeKindEESt10_Select1stIS7_ESt4lessIS1_ESaIS7_EE29_M_get_insert_hint_unique_posESt23_Rb_tree_const_iteratorIS7_ERS3_@Base 0
#MISSING: 14.0.0-7~gcc13# (optional=templinst)_ZNSt8_Rb_treeIN10SPIRVDebug11InstructionESt4pairIKS1_NSt7__cxx1112basic_stringIcSt11char_traitsIcESaIcEEEESt10_Select1stISA_ESt4lessIS1_ESaISA_EE24_M_get_insert_unique_posERS3_@Base 0
#MISSING: 14.0.0-7~gcc13# (optional=templinst|arch=amd64 arm64 mips64el ppc64el riscv64 sparc64 x32)_ZNSt8_Rb_treeIN10SPIRVDebug11InstructionESt4pairIKS1_NSt7__cxx1112basic_stringIcSt11char_traitsIcESaIcEEEESt10_Select1stISA_ESt4lessIS1_ESaISA_EE29_M_get_insert_hint_unique_posESt23_Rb_tree_const_iteratorISA_ERS3_@Base 0
#MISSING: 14.0.0-7~gcc13# (optional=templinst|arch=!amd64 !arm64 !mips64el !ppc64el !riscv64 !sparc64 !x32)_ZNSt8_Rb_treeIN10SPIRVDebug16CompositeTypeTagESt4pairIKS1_N4llvm5dwarf3TagEESt10_Select1stIS7_ESt4lessIS1_ESaIS7_EE22_M_emplace_hint_uniqueIJRKSt21piecewise_construct_tSt5tupleIJRS3_EESI_IJEEEEESt17_Rb_tree_iteratorIS7_ESt23_Rb_tree_const_iteratorIS7_EDpOT_@Base 0
#MISSING: 14.0.0-7~gcc13# (optional=templinst)_ZNSt8_Rb_treeIN10SPIRVDebug16CompositeTypeTagESt4pairIKS1_N4llvm5dwarf3TagEESt10_Select1stIS7_ESt4lessIS1_ESaIS7_EE24_M_get_insert_unique_posERS3_@Base 0
#MISSING: 14.0.0-7~gcc13# (optional=templinst|arch=amd64 arm64 mips64el ppc64el riscv64 sparc64 x32)_ZNSt8_Rb_treeIN10SPIRVDebug16CompositeTypeTagESt4pairIKS1_N4llvm5dwarf3TagEESt10_Select1stIS7_ESt4lessIS1_ESaIS7_EE29_M_get_insert_hint_unique_posESt23_Rb_tree_const_iteratorIS7_ERS3_@Base 0
#MISSING: 14.0.0-7~gcc13# (optional=templinst|arch=!amd64 !arm64 !mips64el !ppc64el !riscv64 !sparc64 !x32)_ZNSt8_Rb_treeIN10SPIRVDebug16ExpressionOpCodeESt4pairIKS1_N4llvm5dwarf12LocationAtomEESt10_Select1stIS7_ESt4lessIS1_ESaIS7_EE22_M_emplace_hint_uniqueIJRKSt21piecewise_construct_tSt5tupleIJRS3_EESI_IJEEEEESt17_Rb_tree_iteratorIS7_ESt23_Rb_tree_const_iteratorIS7_EDpOT_@Base 0
#MISSING: 14.0.0-7~gcc13# (optional=templinst)_ZNSt8_Rb_treeIN10SPIRVDebug16ExpressionOpCodeESt4pairIKS1_N4llvm5dwarf12LocationAtomEESt10_Select1stIS7_ESt4lessIS1_ESaIS7_EE24_M_get_insert_unique_posERS3_@Base 0
#MISSING: 14.0.0-7~gcc13# (optional=templinst|arch=amd64 arm64 mips64el ppc64el riscv64 sparc64 x32)_ZNSt8_Rb_treeIN10SPIRVDebug16ExpressionOpCodeESt4pairIKS1_N4llvm5dwarf12LocationAtomEESt10_Select1stIS7_ESt4lessIS1_ESaIS7_EE29_M_get_insert_hint_unique_posESt23_Rb_tree_const_iteratorIS7_ERS3_@Base 0
#MISSING: 14.0.0-7~gcc13# (optional=templinst)_ZNSt8_Rb_treeIN10SPIRVDebug16ExpressionOpCodeESt4pairIKS1_jESt10_Select1stIS4_ESt4lessIS1_ESaIS4_EE24_M_get_insert_unique_posERS3_@Base 0
#MISSING: 14.0.0-7~gcc13# (optional=templinst)_ZNSt8_Rb_treeIN10SPIRVDebug16ExpressionOpCodeESt4pairIKS1_jESt10_Select1stIS4_ESt4lessIS1_ESaIS4_EE29_M_get_insert_hint_unique_posESt23_Rb_tree_const_iteratorIS4_ERS3_@Base 0
#MISSING: 14.0.0-7~gcc13# (optional=templinst|arch=!amd64 !arm64 !mips64el !ppc64el !riscv64 !sparc64 !x32)_ZNSt8_Rb_treeIN10SPIRVDebug16TypeQualifierTagESt4pairIKS1_N4llvm5dwarf3TagEESt10_Select1stIS7_ESt4lessIS1_ESaIS7_EE22_M_emplace_hint_uniqueIJRKSt21piecewise_construct_tSt5tupleIJRS3_EESI_IJEEEEESt17_Rb_tree_iteratorIS7_ESt23_Rb_tree_const_iteratorIS7_EDpOT_@Base 0
#MISSING: 14.0.0-7~gcc13# (optional=templinst)_ZNSt8_Rb_treeIN10SPIRVDebug16TypeQualifierTagESt4pairIKS1_N4llvm5dwarf3TagEESt10_Select1stIS7_ESt4lessIS1_ESaIS7_EE24_M_get_insert_unique_posERS3_@Base 0
#MISSING: 14.0.0-7~gcc13# (optional=templinst|arch=amd64 arm64 mips64el ppc64el riscv64 sparc64 x32)_ZNSt8_Rb_treeIN10SPIRVDebug16TypeQualifierTagESt4pairIKS1_N4llvm5dwarf3TagEESt10_Select1stIS7_ESt4lessIS1_ESaIS7_EE29_M_get_insert_hint_unique_posESt23_Rb_tree_const_iteratorIS7_ERS3_@Base 0
#MISSING: 14.0.0-7~gcc13# (optional=templinst|arch=!amd64 !arm64 !mips64el !ppc64el !riscv64 !sparc64 !x32)_ZNSt8_Rb_treeIN10SPIRVDebug17ImportedEntityTagESt4pairIKS1_N4llvm5dwarf3TagEESt10_Select1stIS7_ESt4lessIS1_ESaIS7_EE22_M_emplace_hint_uniqueIJRKSt21piecewise_construct_tSt5tupleIJRS3_EESI_IJEEEEESt17_Rb_tree_iteratorIS7_ESt23_Rb_tree_const_iteratorIS7_EDpOT_@Base 0
#MISSING: 14.0.0-7~gcc13# (optional=templinst)_ZNSt8_Rb_treeIN10SPIRVDebug17ImportedEntityTagESt4pairIKS1_N4llvm5dwarf3TagEESt10_Select1stIS7_ESt4lessIS1_ESaIS7_EE24_M_get_insert_unique_posERS3_@Base 0
#MISSING: 14.0.0-7~gcc13# (optional=templinst|arch=amd64 arm64 mips64el ppc64el riscv64 sparc64 x32)_ZNSt8_Rb_treeIN10SPIRVDebug17ImportedEntityTagESt4pairIKS1_N4llvm5dwarf3TagEESt10_Select1stIS7_ESt4lessIS1_ESaIS7_EE29_M_get_insert_hint_unique_posESt23_Rb_tree_const_iteratorIS7_ERS3_@Base 0
#MISSING: 14.0.0-7~gcc13# (optional=templinst|arch=!amd64 !arm64 !mips64el !ppc64el !riscv64 !sparc64 !x32)_ZNSt8_Rb_treeIN17VectorComputeUtil11VCFloatTypeESt4pairIKS1_14VCFloatControlESt10_Select1stIS5_ESt4lessIS1_ESaIS5_EE22_M_emplace_hint_uniqueIJRKSt21piecewise_construct_tSt5tupleIJRS3_EESG_IJEEEEESt17_Rb_tree_iteratorIS5_ESt23_Rb_tree_const_iteratorIS5_EDpOT_@Base 0
#MISSING: 14.0.0-7~gcc13# (optional=templinst)_ZNSt8_Rb_treeIN17VectorComputeUtil11VCFloatTypeESt4pairIKS1_14VCFloatControlESt10_Select1stIS5_ESt4lessIS1_ESaIS5_EE24_M_get_insert_unique_posERS3_@Base 0
#MISSING: 14.0.0-7~gcc13# (optional=templinst|arch=amd64 arm64 mips64el ppc64el riscv64 sparc64 x32)_ZNSt8_Rb_treeIN17VectorComputeUtil11VCFloatTypeESt4pairIKS1_14VCFloatControlESt10_Select1stIS5_ESt4lessIS1_ESaIS5_EE29_M_get_insert_hint_unique_posESt23_Rb_tree_const_iteratorIS5_ERS3_@Base 0
#MISSING: 14.0.0-7~gcc13# (optional=templinst|arch=!amd64 !arm64 !mips64el !ppc64el !riscv64 !sparc64 !x32)_ZNSt8_Rb_treeIN17VectorComputeUtil11VCFloatTypeESt4pairIKS1_jESt10_Select1stIS4_ESt4lessIS1_ESaIS4_EE22_M_emplace_hint_uniqueIJRKSt21piecewise_construct_tSt5tupleIJRS3_EESF_IJEEEEESt17_Rb_tree_iteratorIS4_ESt23_Rb_tree_const_iteratorIS4_EDpOT_@Base 0
#MISSING: 14.0.0-7~gcc13# (optional=templinst)_ZNSt8_Rb_treeIN17VectorComputeUtil11VCFloatTypeESt4pairIKS1_jESt10_Select1stIS4_ESt4lessIS1_ESaIS4_EE24_M_get_insert_unique_posERS3_@Base 0
#MISSING: 14.0.0-7~gcc13# (optional=templinst|arch=amd64 arm64 mips64el ppc64el riscv64 sparc64 x32)_ZNSt8_Rb_treeIN17VectorComputeUtil11VCFloatTypeESt4pairIKS1_jESt10_Select1stIS4_ESt4lessIS1_ESaIS4_EE29_M_get_insert_hint_unique_posESt23_Rb_tree_const_iteratorIS4_ERS3_@Base 0
#MISSING: 14.0.0-7~gcc13# (optional=templinst|arch=!amd64 !arm64 !mips64el !ppc64el !riscv64 !sparc64 !x32)_ZNSt8_Rb_treeIN3spv10CapabilityESt4pairIKS1_N7OCLUtil6OclExt4KindEESt10_Select1stIS7_ESt4lessIS1_ESaIS7_EE22_M_emplace_hint_uniqueIJRKSt21piecewise_construct_tSt5tupleIJRS3_EESI_IJEEEEESt17_Rb_tree_iteratorIS7_ESt23_Rb_tree_const_iteratorIS7_EDpOT_@Base 0
#MISSING: 14.0.0-7~gcc13# (optional=templinst)_ZNSt8_Rb_treeIN3spv10CapabilityESt4pairIKS1_N7OCLUtil6OclExt4KindEESt10_Select1stIS7_ESt4lessIS1_ESaIS7_EE24_M_get_insert_unique_posERS3_@Base 0
#MISSING: 14.0.0-7~gcc13# (optional=templinst|arch=amd64 arm64 mips64el ppc64el riscv64 sparc64 x32)_ZNSt8_Rb_treeIN3spv10CapabilityESt4pairIKS1_N7OCLUtil6OclExt4KindEESt10_Select1stIS7_ESt4lessIS1_ESaIS7_EE29_M_get_insert_hint_unique_posESt23_Rb_tree_const_iteratorIS7_ERS3_@Base 0
#MISSING: 14.0.0-7~gcc13# (optional=templinst)_ZNSt8_Rb_treeIN3spv10CapabilityESt4pairIKS1_NSt7__cxx1112basic_stringIcSt11char_traitsIcESaIcEEEESt10_Select1stISA_ESt4lessIS1_ESaISA_EE24_M_get_insert_unique_posERS3_@Base 0
#MISSING: 14.0.0-7~gcc13# (optional=templinst|arch=amd64 arm64 mips64el ppc64el riscv64 sparc64 x32)_ZNSt8_Rb_treeIN3spv10CapabilityESt4pairIKS1_NSt7__cxx1112basic_stringIcSt11char_traitsIcESaIcEEEESt10_Select1stISA_ESt4lessIS1_ESaISA_EE29_M_get_insert_hint_unique_posESt23_Rb_tree_const_iteratorISA_ERS3_@Base 0
#MISSING: 14.0.0-7~gcc13# (optional=templinst)_ZNSt8_Rb_treeIN3spv10CapabilityESt4pairIKS1_St6vectorIS1_SaIS1_EEESt10_Select1stIS7_ESt4lessIS1_ESaIS7_EE24_M_get_insert_unique_posERS3_@Base 0
#MISSING: 14.0.0-7~gcc13# (optional=templinst|arch=amd64 arm64 mips64el ppc64el riscv64 sparc64 x32)_ZNSt8_Rb_treeIN3spv10CapabilityESt4pairIKS1_St6vectorIS1_SaIS1_EEESt10_Select1stIS7_ESt4lessIS1_ESaIS7_EE29_M_get_insert_hint_unique_posESt23_Rb_tree_const_iteratorIS7_ERS3_@Base 0
#MISSING: 14.0.0-7~gcc13# (optional=templinst)_ZNSt8_Rb_treeIN3spv10DecorationESt4pairIKS1_NSt7__cxx1112basic_stringIcSt11char_traitsIcESaIcEEEESt10_Select1stISA_ESt4lessIS1_ESaISA_EE24_M_get_insert_unique_posERS3_@Base 0
#MISSING: 14.0.0-7~gcc13# (optional=templinst|arch=amd64 arm64 mips64el ppc64el riscv64 sparc64 x32)_ZNSt8_Rb_treeIN3spv10DecorationESt4pairIKS1_NSt7__cxx1112basic_stringIcSt11char_traitsIcESaIcEEEESt10_Select1stISA_ESt4lessIS1_ESaISA_EE29_M_get_insert_hint_unique_posESt23_Rb_tree_const_iteratorISA_ERS3_@Base 0
#MISSING: 14.0.0-7~gcc13# (optional=templinst)_ZNSt8_Rb_treeIN3spv10DecorationESt4pairIKS1_St6vectorINS0_10CapabilityESaIS5_EEESt10_Select1stIS8_ESt4lessIS1_ESaIS8_EE24_M_get_insert_unique_posERS3_@Base 0
#MISSING: 14.0.0-7~gcc13# (optional=templinst|arch=amd64 arm64 mips64el ppc64el riscv64 sparc64 x32)_ZNSt8_Rb_treeIN3spv10DecorationESt4pairIKS1_St6vectorINS0_10CapabilityESaIS5_EEESt10_Select1stIS8_ESt4lessIS1_ESaIS8_EE29_M_get_insert_hint_unique_posESt23_Rb_tree_const_iteratorIS8_ERS3_@Base 0
#MISSING: 14.0.0-7~gcc13# (optional=templinst)_ZNSt8_Rb_treeIN3spv11LinkageTypeESt4pairIKS1_NSt7__cxx1112basic_stringIcSt11char_traitsIcESaIcEEEESt10_Select1stISA_ESt4lessIS1_ESaISA_EE24_M_get_insert_unique_posERS3_@Base 0
#MISSING: 14.0.0-7~gcc13# (optional=templinst|arch=amd64 arm64 mips64el ppc64el riscv64 sparc64 x32)_ZNSt8_Rb_treeIN3spv11LinkageTypeESt4pairIKS1_NSt7__cxx1112basic_stringIcSt11char_traitsIcESaIcEEEESt10_Select1stISA_ESt4lessIS1_ESaISA_EE29_M_get_insert_hint_unique_posESt23_Rb_tree_const_iteratorISA_ERS3_@Base 0
#MISSING: 14.0.0-7~gcc13# (optional=templinst|arch=!amd64 !arm64 !mips64el !ppc64el !riscv64 !sparc64 !x32)_ZNSt8_Rb_treeIN3spv12FPDenormModeESt4pairIKS1_NS0_13ExecutionModeEESt10_Select1stIS5_ESt4lessIS1_ESaIS5_EE22_M_emplace_hint_uniqueIJRKSt21piecewise_construct_tSt5tupleIJRS3_EESG_IJEEEEESt17_Rb_tree_iteratorIS5_ESt23_Rb_tree_const_iteratorIS5_EDpOT_@Base 0
#MISSING: 14.0.0-7~gcc13# (optional=templinst)_ZNSt8_Rb_treeIN3spv12FPDenormModeESt4pairIKS1_NS0_13ExecutionModeEESt10_Select1stIS5_ESt4lessIS1_ESaIS5_EE24_M_get_insert_unique_posERS3_@Base 0
#MISSING: 14.0.0-7~gcc13# (optional=templinst|arch=amd64 arm64 mips64el ppc64el riscv64 sparc64 x32)_ZNSt8_Rb_treeIN3spv12FPDenormModeESt4pairIKS1_NS0_13ExecutionModeEESt10_Select1stIS5_ESt4lessIS1_ESaIS5_EE29_M_get_insert_hint_unique_posESt23_Rb_tree_const_iteratorIS5_ERS3_@Base 0
#MISSING: 14.0.0-7~gcc13# (optional=templinst|arch=!amd64 !arm64 !mips64el !ppc64el !riscv64 !sparc64 !x32)_ZNSt8_Rb_treeIN3spv12StorageClassESt4pairIKS1_N5SPIRV16SPIRAddressSpaceEESt10_Select1stIS6_ESt4lessIS1_ESaIS6_EE22_M_emplace_hint_uniqueIJRKSt21piecewise_construct_tSt5tupleIJRS3_EESH_IJEEEEESt17_Rb_tree_iteratorIS6_ESt23_Rb_tree_const_iteratorIS6_EDpOT_@Base 0
#MISSING: 14.0.0-7~gcc13# (optional=templinst)_ZNSt8_Rb_treeIN3spv12StorageClassESt4pairIKS1_N5SPIRV16SPIRAddressSpaceEESt10_Select1stIS6_ESt4lessIS1_ESaIS6_EE24_M_get_insert_unique_posERS3_@Base 0
#MISSING: 14.0.0-7~gcc13# (optional=templinst|arch=amd64 arm64 mips64el ppc64el riscv64 sparc64 x32)_ZNSt8_Rb_treeIN3spv12StorageClassESt4pairIKS1_N5SPIRV16SPIRAddressSpaceEESt10_Select1stIS6_ESt4lessIS1_ESaIS6_EE29_M_get_insert_hint_unique_posESt23_Rb_tree_const_iteratorIS6_ERS3_@Base 0
#MISSING: 14.0.0-7~gcc13# (optional=templinst)_ZNSt8_Rb_treeIN3spv12StorageClassESt4pairIKS1_St6vectorINS0_10CapabilityESaIS5_EEESt10_Select1stIS8_ESt4lessIS1_ESaIS8_EE24_M_get_insert_unique_posERS3_@Base 0
#MISSING: 14.0.0-7~gcc13# (optional=templinst|arch=amd64 arm64 mips64el ppc64el riscv64 sparc64 x32)_ZNSt8_Rb_treeIN3spv12StorageClassESt4pairIKS1_St6vectorINS0_10CapabilityESaIS5_EEESt10_Select1stIS8_ESt4lessIS1_ESaIS8_EE29_M_get_insert_hint_unique_posESt23_Rb_tree_const_iteratorIS8_ERS3_@Base 0
#MISSING: 14.0.0-7~gcc13# (optional=templinst|arch=!amd64 !arm64 !mips64el !ppc64el !riscv64 !sparc64 !x32)_ZNSt8_Rb_treeIN3spv13ExecutionModeESt4pairIKS1_NS0_12FPDenormModeEESt10_Select1stIS5_ESt4lessIS1_ESaIS5_EE22_M_emplace_hint_uniqueIJRKSt21piecewise_construct_tSt5tupleIJRS3_EESG_IJEEEEESt17_Rb_tree_iteratorIS5_ESt23_Rb_tree_const_iteratorIS5_EDpOT_@Base 0
#MISSING: 14.0.0-7~gcc13# (optional=templinst)_ZNSt8_Rb_treeIN3spv13ExecutionModeESt4pairIKS1_NS0_12FPDenormModeEESt10_Select1stIS5_ESt4lessIS1_ESaIS5_EE24_M_get_insert_unique_posERS3_@Base 0
#MISSING: 14.0.0-7~gcc13# (optional=templinst|arch=amd64 arm64 mips64el ppc64el riscv64 sparc64 x32)_ZNSt8_Rb_treeIN3spv13ExecutionModeESt4pairIKS1_NS0_12FPDenormModeEESt10_Select1stIS5_ESt4lessIS1_ESaIS5_EE29_M_get_insert_hint_unique_posESt23_Rb_tree_const_iteratorIS5_ERS3_@Base 0
#MISSING: 14.0.0-7~gcc13# (optional=templinst|arch=!amd64 !arm64 !mips64el !ppc64el !riscv64 !sparc64 !x32)_ZNSt8_Rb_treeIN3spv13ExecutionModeESt4pairIKS1_NS0_14FPRoundingModeEESt10_Select1stIS5_ESt4lessIS1_ESaIS5_EE22_M_emplace_hint_uniqueIJRKSt21piecewise_construct_tSt5tupleIJRS3_EESG_IJEEEEESt17_Rb_tree_iteratorIS5_ESt23_Rb_tree_const_iteratorIS5_EDpOT_@Base 0
#MISSING: 14.0.0-7~gcc13# (optional=templinst)_ZNSt8_Rb_treeIN3spv13ExecutionModeESt4pairIKS1_NS0_14FPRoundingModeEESt10_Select1stIS5_ESt4lessIS1_ESaIS5_EE24_M_get_insert_unique_posERS3_@Base 0
#MISSING: 14.0.0-7~gcc13# (optional=templinst|arch=amd64 arm64 mips64el ppc64el riscv64 sparc64 x32)_ZNSt8_Rb_treeIN3spv13ExecutionModeESt4pairIKS1_NS0_14FPRoundingModeEESt10_Select1stIS5_ESt4lessIS1_ESaIS5_EE29_M_get_insert_hint_unique_posESt23_Rb_tree_const_iteratorIS5_ERS3_@Base 0
#MISSING: 14.0.0-7~gcc13# (optional=templinst|arch=!amd64 !arm64 !mips64el !ppc64el !riscv64 !sparc64 !x32)_ZNSt8_Rb_treeIN3spv13ExecutionModeESt4pairIKS1_NS0_15FPOperationModeEESt10_Select1stIS5_ESt4lessIS1_ESaIS5_EE22_M_emplace_hint_uniqueIJRKSt21piecewise_construct_tSt5tupleIJRS3_EESG_IJEEEEESt17_Rb_tree_iteratorIS5_ESt23_Rb_tree_const_iteratorIS5_EDpOT_@Base 0
#MISSING: 14.0.0-7~gcc13# (optional=templinst)_ZNSt8_Rb_treeIN3spv13ExecutionModeESt4pairIKS1_NS0_15FPOperationModeEESt10_Select1stIS5_ESt4lessIS1_ESaIS5_EE24_M_get_insert_unique_posERS3_@Base 0
#MISSING: 14.0.0-7~gcc13# (optional=templinst|arch=amd64 arm64 mips64el ppc64el riscv64 sparc64 x32)_ZNSt8_Rb_treeIN3spv13ExecutionModeESt4pairIKS1_NS0_15FPOperationModeEESt10_Select1stIS5_ESt4lessIS1_ESaIS5_EE29_M_get_insert_hint_unique_posESt23_Rb_tree_const_iteratorIS5_ERS3_@Base 0
#MISSING: 14.0.0-7~gcc13# (optional=templinst)_ZNSt8_Rb_treeIN3spv13ExecutionModeESt4pairIKS1_St6vectorINS0_10CapabilityESaIS5_EEESt10_Select1stIS8_ESt4lessIS1_ESaIS8_EE24_M_get_insert_unique_posERS3_@Base 0
#MISSING: 14.0.0-7~gcc13# (optional=templinst|arch=amd64 arm64 mips64el ppc64el riscv64 sparc64 x32)_ZNSt8_Rb_treeIN3spv13ExecutionModeESt4pairIKS1_St6vectorINS0_10CapabilityESaIS5_EEESt10_Select1stIS8_ESt4lessIS1_ESaIS8_EE29_M_get_insert_hint_unique_posESt23_Rb_tree_const_iteratorIS8_ERS3_@Base 0
#MISSING: 14.0.0-7~gcc13# (optional=templinst)_ZNSt8_Rb_treeIN3spv14ExecutionModelESt4pairIKS1_St3setIjSt4lessIjESaIjEEESt10_Select1stIS9_ES5_IS1_ESaIS9_EE24_M_get_insert_unique_posERS3_@Base 0
#MISSING: 14.0.0-7~gcc13# (optional=templinst|arch=amd64 arm64 mips64el ppc64el riscv64 sparc64 x32)_ZNSt8_Rb_treeIN3spv14ExecutionModelESt4pairIKS1_St3setIjSt4lessIjESaIjEEESt10_Select1stIS9_ES5_IS1_ESaIS9_EE29_M_get_insert_hint_unique_posESt23_Rb_tree_const_iteratorIS9_ERS3_@Base 0
#MISSING: 14.0.0-7~gcc13# (optional=templinst)_ZNSt8_Rb_treeIN3spv14ExecutionModelESt4pairIKS1_St6vectorINS0_10CapabilityESaIS5_EEESt10_Select1stIS8_ESt4lessIS1_ESaIS8_EE24_M_get_insert_unique_posERS3_@Base 0
#MISSING: 14.0.0-7~gcc13# (optional=templinst|arch=amd64 arm64 mips64el ppc64el riscv64 sparc64 x32)_ZNSt8_Rb_treeIN3spv14ExecutionModelESt4pairIKS1_St6vectorINS0_10CapabilityESaIS5_EEESt10_Select1stIS8_ESt4lessIS1_ESaIS8_EE29_M_get_insert_hint_unique_posESt23_Rb_tree_const_iteratorIS8_ERS3_@Base 0
#MISSING: 14.0.0-7~gcc13# (optional=templinst|arch=!amd64 !arm64 !mips64el !ppc64el !riscv64 !sparc64 !x32)_ZNSt8_Rb_treeIN3spv14FPRoundingModeESt4pairIKS1_14VCFloatControlESt10_Select1stIS5_ESt4lessIS1_ESaIS5_EE22_M_emplace_hint_uniqueIJRKSt21piecewise_construct_tSt5tupleIJRS3_EESG_IJEEEEESt17_Rb_tree_iteratorIS5_ESt23_Rb_tree_const_iteratorIS5_EDpOT_@Base 0
#MISSING: 14.0.0-7~gcc13# (optional=templinst)_ZNSt8_Rb_treeIN3spv14FPRoundingModeESt4pairIKS1_14VCFloatControlESt10_Select1stIS5_ESt4lessIS1_ESaIS5_EE24_M_get_insert_unique_posERS3_@Base 0
#MISSING: 14.0.0-7~gcc13# (optional=templinst|arch=amd64 arm64 mips64el ppc64el riscv64 sparc64 x32)_ZNSt8_Rb_treeIN3spv14FPRoundingModeESt4pairIKS1_14VCFloatControlESt10_Select1stIS5_ESt4lessIS1_ESaIS5_EE29_M_get_insert_hint_unique_posESt23_Rb_tree_const_iteratorIS5_ERS3_@Base 0
#MISSING: 14.0.0-7~gcc13# (optional=templinst|arch=!amd64 !arm64 !mips64el !ppc64el !riscv64 !sparc64 !x32)_ZNSt8_Rb_treeIN3spv14FPRoundingModeESt4pairIKS1_NS0_13ExecutionModeEESt10_Select1stIS5_ESt4lessIS1_ESaIS5_EE22_M_emplace_hint_uniqueIJRKSt21piecewise_construct_tSt5tupleIJRS3_EESG_IJEEEEESt17_Rb_tree_iteratorIS5_ESt23_Rb_tree_const_iteratorIS5_EDpOT_@Base 0
#MISSING: 14.0.0-7~gcc13# (optional=templinst)_ZNSt8_Rb_treeIN3spv14FPRoundingModeESt4pairIKS1_NS0_13ExecutionModeEESt10_Select1stIS5_ESt4lessIS1_ESaIS5_EE24_M_get_insert_unique_posERS3_@Base 0
#MISSING: 14.0.0-7~gcc13# (optional=templinst|arch=amd64 arm64 mips64el ppc64el riscv64 sparc64 x32)_ZNSt8_Rb_treeIN3spv14FPRoundingModeESt4pairIKS1_NS0_13ExecutionModeEESt10_Select1stIS5_ESt4lessIS1_ESaIS5_EE29_M_get_insert_hint_unique_posESt23_Rb_tree_const_iteratorIS5_ERS3_@Base 0
#MISSING: 14.0.0-7~gcc13# (optional=templinst)_ZNSt8_Rb_treeIN3spv14FPRoundingModeESt4pairIKS1_NSt7__cxx1112basic_stringIcSt11char_traitsIcESaIcEEEESt10_Select1stISA_ESt4lessIS1_ESaISA_EE24_M_get_insert_unique_posERS3_@Base 0
#MISSING: 14.0.0-7~gcc13# (optional=templinst|arch=amd64 arm64 mips64el ppc64el riscv64 sparc64 x32)_ZNSt8_Rb_treeIN3spv14FPRoundingModeESt4pairIKS1_NSt7__cxx1112basic_stringIcSt11char_traitsIcESaIcEEEESt10_Select1stISA_ESt4lessIS1_ESaISA_EE29_M_get_insert_hint_unique_posESt23_Rb_tree_const_iteratorISA_ERS3_@Base 0
#MISSING: 14.0.0-7~gcc13# (optional=templinst)_ZNSt8_Rb_treeIN3spv14GroupOperationESt4pairIKS1_NSt7__cxx1112basic_stringIcSt11char_traitsIcESaIcEEEESt10_Select1stISA_ESt4lessIS1_ESaISA_EE24_M_get_insert_unique_posERS3_@Base 0
#MISSING: 14.0.0-7~gcc13# (optional=templinst|arch=amd64 arm64 mips64el ppc64el riscv64 sparc64 x32)_ZNSt8_Rb_treeIN3spv14GroupOperationESt4pairIKS1_NSt7__cxx1112basic_stringIcSt11char_traitsIcESaIcEEEESt10_Select1stISA_ESt4lessIS1_ESaISA_EE29_M_get_insert_hint_unique_posESt23_Rb_tree_const_iteratorISA_ERS3_@Base 0
#MISSING: 14.0.0-7~gcc13# (optional=templinst)_ZNSt8_Rb_treeIN3spv15AccessQualifierESt4pairIKS1_NSt7__cxx1112basic_stringIcSt11char_traitsIcESaIcEEEESt10_Select1stISA_ESt4lessIS1_ESaISA_EE24_M_get_insert_unique_posERS3_@Base 0
#MISSING: 14.0.0-7~gcc13# (optional=templinst|arch=amd64 arm64 mips64el ppc64el riscv64 sparc64 x32)_ZNSt8_Rb_treeIN3spv15AccessQualifierESt4pairIKS1_NSt7__cxx1112basic_stringIcSt11char_traitsIcESaIcEEEESt10_Select1stISA_ESt4lessIS1_ESaISA_EE29_M_get_insert_hint_unique_posESt23_Rb_tree_const_iteratorISA_ERS3_@Base 0
#MISSING: 14.0.0-7~gcc13# (optional=templinst|arch=!amd64 !arm64 !mips64el !ppc64el !riscv64 !sparc64 !x32)_ZNSt8_Rb_treeIN3spv15FPOperationModeESt4pairIKS1_14VCFloatControlESt10_Select1stIS5_ESt4lessIS1_ESaIS5_EE22_M_emplace_hint_uniqueIJRKSt21piecewise_construct_tSt5tupleIJRS3_EESG_IJEEEEESt17_Rb_tree_iteratorIS5_ESt23_Rb_tree_const_iteratorIS5_EDpOT_@Base 0
#MISSING: 14.0.0-7~gcc13# (optional=templinst)_ZNSt8_Rb_treeIN3spv15FPOperationModeESt4pairIKS1_14VCFloatControlESt10_Select1stIS5_ESt4lessIS1_ESaIS5_EE24_M_get_insert_unique_posERS3_@Base 0
#MISSING: 14.0.0-7~gcc13# (optional=templinst|arch=amd64 arm64 mips64el ppc64el riscv64 sparc64 x32)_ZNSt8_Rb_treeIN3spv15FPOperationModeESt4pairIKS1_14VCFloatControlESt10_Select1stIS5_ESt4lessIS1_ESaIS5_EE29_M_get_insert_hint_unique_posESt23_Rb_tree_const_iteratorIS5_ERS3_@Base 0
#MISSING: 14.0.0-7~gcc13# (optional=templinst|arch=!amd64 !arm64 !mips64el !ppc64el !riscv64 !sparc64 !x32)_ZNSt8_Rb_treeIN3spv15FPOperationModeESt4pairIKS1_NS0_13ExecutionModeEESt10_Select1stIS5_ESt4lessIS1_ESaIS5_EE22_M_emplace_hint_uniqueIJRKSt21piecewise_construct_tSt5tupleIJRS3_EESG_IJEEEEESt17_Rb_tree_iteratorIS5_ESt23_Rb_tree_const_iteratorIS5_EDpOT_@Base 0
#MISSING: 14.0.0-7~gcc13# (optional=templinst)_ZNSt8_Rb_treeIN3spv15FPOperationModeESt4pairIKS1_NS0_13ExecutionModeEESt10_Select1stIS5_ESt4lessIS1_ESaIS5_EE24_M_get_insert_unique_posERS3_@Base 0
#MISSING: 14.0.0-7~gcc13# (optional=templinst|arch=amd64 arm64 mips64el ppc64el riscv64 sparc64 x32)_ZNSt8_Rb_treeIN3spv15FPOperationModeESt4pairIKS1_NS0_13ExecutionModeEESt10_Select1stIS5_ESt4lessIS1_ESaIS5_EE29_M_get_insert_hint_unique_posESt23_Rb_tree_const_iteratorIS5_ERS3_@Base 0
#MISSING: 14.0.0-7~gcc13# (optional=templinst|arch=!amd64 !arm64 !mips64el !ppc64el !riscv64 !sparc64 !x32)_ZNSt8_Rb_treeIN3spv19FunctionControlMaskESt4pairIKS1_N4llvm9Attribute8AttrKindEESt10_Select1stIS7_ESt4lessIS1_ESaIS7_EE22_M_emplace_hint_uniqueIJRKSt21piecewise_construct_tSt5tupleIJRS3_EESI_IJEEEEESt17_Rb_tree_iteratorIS7_ESt23_Rb_tree_const_iteratorIS7_EDpOT_@Base 0
#MISSING: 14.0.0-7~gcc13# (optional=templinst)_ZNSt8_Rb_treeIN3spv19FunctionControlMaskESt4pairIKS1_N4llvm9Attribute8AttrKindEESt10_Select1stIS7_ESt4lessIS1_ESaIS7_EE24_M_get_insert_unique_posERS3_@Base 0
#MISSING: 14.0.0-7~gcc13# (optional=templinst|arch=amd64 arm64 mips64el ppc64el riscv64 sparc64 x32)_ZNSt8_Rb_treeIN3spv19FunctionControlMaskESt4pairIKS1_N4llvm9Attribute8AttrKindEESt10_Select1stIS7_ESt4lessIS1_ESaIS7_EE29_M_get_insert_hint_unique_posESt23_Rb_tree_const_iteratorIS7_ERS3_@Base 0
#MISSING: 14.0.0-7~gcc13# (optional=templinst|arch=!amd64 !arm64 !mips64el !ppc64el !riscv64 !sparc64 !x32)_ZNSt8_Rb_treeIN3spv19MemorySemanticsMaskESt4pairIKS1_N7OCLUtil15OCLMemFenceKindEESt10_Select1stIS6_ESt4lessIS1_ESaIS6_EE22_M_emplace_hint_uniqueIJRKSt21piecewise_construct_tSt5tupleIJRS3_EESH_IJEEEEESt17_Rb_tree_iteratorIS6_ESt23_Rb_tree_const_iteratorIS6_EDpOT_@Base 0
#MISSING: 14.0.0-7~gcc13# (optional=templinst)_ZNSt8_Rb_treeIN3spv19MemorySemanticsMaskESt4pairIKS1_N7OCLUtil15OCLMemFenceKindEESt10_Select1stIS6_ESt4lessIS1_ESaIS6_EE24_M_get_insert_unique_posERS3_@Base 0
#MISSING: 14.0.0-7~gcc13# (optional=templinst|arch=amd64 arm64 mips64el ppc64el riscv64 sparc64 x32)_ZNSt8_Rb_treeIN3spv19MemorySemanticsMaskESt4pairIKS1_N7OCLUtil15OCLMemFenceKindEESt10_Select1stIS6_ESt4lessIS1_ESaIS6_EE29_M_get_insert_hint_unique_posESt23_Rb_tree_const_iteratorIS6_ERS3_@Base 0
#MISSING: 14.0.0-7~gcc13# (optional=templinst|arch=!amd64 !arm64 !mips64el !ppc64el !riscv64 !sparc64 !x32)_ZNSt8_Rb_treeIN3spv19MemorySemanticsMaskESt4pairIKS1_N7OCLUtil23OCLMemFenceExtendedKindEESt10_Select1stIS6_ESt4lessIS1_ESaIS6_EE22_M_emplace_hint_uniqueIJRKSt21piecewise_construct_tSt5tupleIJRS3_EESH_IJEEEEESt17_Rb_tree_iteratorIS6_ESt23_Rb_tree_const_iteratorIS6_EDpOT_@Base 0
#MISSING: 14.0.0-7~gcc13# (optional=templinst)_ZNSt8_Rb_treeIN3spv19MemorySemanticsMaskESt4pairIKS1_N7OCLUtil23OCLMemFenceExtendedKindEESt10_Select1stIS6_ESt4lessIS1_ESaIS6_EE24_M_get_insert_unique_posERS3_@Base 0
#MISSING: 14.0.0-7~gcc13# (optional=templinst|arch=amd64 arm64 mips64el ppc64el riscv64 sparc64 x32)_ZNSt8_Rb_treeIN3spv19MemorySemanticsMaskESt4pairIKS1_N7OCLUtil23OCLMemFenceExtendedKindEESt10_Select1stIS6_ESt4lessIS1_ESaIS6_EE29_M_get_insert_hint_unique_posESt23_Rb_tree_const_iteratorIS6_ERS3_@Base 0
#MISSING: 14.0.0-7~gcc13# (optional=templinst|arch=!amd64 !arm64 !mips64el !ppc64el !riscv64 !sparc64 !x32)_ZNSt8_Rb_treeIN3spv26FunctionParameterAttributeESt4pairIKS1_N4llvm9Attribute8AttrKindEESt10_Select1stIS7_ESt4lessIS1_ESaIS7_EE22_M_emplace_hint_uniqueIJRKSt21piecewise_construct_tSt5tupleIJRS3_EESI_IJEEEEESt17_Rb_tree_iteratorIS7_ESt23_Rb_tree_const_iteratorIS7_EDpOT_@Base 0
#MISSING: 14.0.0-7~gcc13# (optional=templinst)_ZNSt8_Rb_treeIN3spv26FunctionParameterAttributeESt4pairIKS1_N4llvm9Attribute8AttrKindEESt10_Select1stIS7_ESt4lessIS1_ESaIS7_EE24_M_get_insert_unique_posERS3_@Base 0
#MISSING: 14.0.0-7~gcc13# (optional=templinst|arch=amd64 arm64 mips64el ppc64el riscv64 sparc64 x32)_ZNSt8_Rb_treeIN3spv26FunctionParameterAttributeESt4pairIKS1_N4llvm9Attribute8AttrKindEESt10_Select1stIS7_ESt4lessIS1_ESaIS7_EE29_M_get_insert_hint_unique_posESt23_Rb_tree_const_iteratorIS7_ERS3_@Base 0
#MISSING: 14.0.0-7~gcc13# (optional=templinst|arch=!amd64 !arm64 !mips64el !ppc64el !riscv64 !sparc64 !x32)_ZNSt8_Rb_treeIN3spv2OpESt4pairIKS1_N4llvm13AtomicRMWInst5BinOpEESt10_Select1stIS7_ESt4lessIS1_ESaIS7_EE22_M_emplace_hint_uniqueIJRKSt21piecewise_construct_tSt5tupleIJRS3_EESI_IJEEEEESt17_Rb_tree_iteratorIS7_ESt23_Rb_tree_const_iteratorIS7_EDpOT_@Base 0
#MISSING: 14.0.0-7~gcc13# (optional=templinst)_ZNSt8_Rb_treeIN3spv2OpESt4pairIKS1_N4llvm13AtomicRMWInst5BinOpEESt10_Select1stIS7_ESt4lessIS1_ESaIS7_EE24_M_get_insert_unique_posERS3_@Base 0
#MISSING: 14.0.0-7~gcc13# (optional=templinst|arch=amd64 arm64 mips64el ppc64el riscv64 sparc64 x32)_ZNSt8_Rb_treeIN3spv2OpESt4pairIKS1_N4llvm13AtomicRMWInst5BinOpEESt10_Select1stIS7_ESt4lessIS1_ESaIS7_EE29_M_get_insert_hint_unique_posESt23_Rb_tree_const_iteratorIS7_ERS3_@Base 0
#MISSING: 14.0.0-7~gcc13# (optional=templinst|arch=!amd64 !arm64 !mips64el !ppc64el !riscv64 !sparc64 !x32)_ZNSt8_Rb_treeIN3spv2OpESt4pairIKS1_N4llvm7CmpInst9PredicateEESt10_Select1stIS7_ESt4lessIS1_ESaIS7_EE22_M_emplace_hint_uniqueIJRKSt21piecewise_construct_tSt5tupleIJRS3_EESI_IJEEEEESt17_Rb_tree_iteratorIS7_ESt23_Rb_tree_const_iteratorIS7_EDpOT_@Base 0
#MISSING: 14.0.0-7~gcc13# (optional=templinst)_ZNSt8_Rb_treeIN3spv2OpESt4pairIKS1_N4llvm7CmpInst9PredicateEESt10_Select1stIS7_ESt4lessIS1_ESaIS7_EE24_M_get_insert_unique_posERS3_@Base 0
#MISSING: 14.0.0-7~gcc13# (optional=templinst|arch=amd64 arm64 mips64el ppc64el riscv64 sparc64 x32)_ZNSt8_Rb_treeIN3spv2OpESt4pairIKS1_N4llvm7CmpInst9PredicateEESt10_Select1stIS7_ESt4lessIS1_ESaIS7_EE29_M_get_insert_hint_unique_posESt23_Rb_tree_const_iteratorIS7_ERS3_@Base 0
#MISSING: 14.0.0-7~gcc13# (optional=templinst)_ZNSt8_Rb_treeIN3spv2OpESt4pairIKS1_NSt7__cxx1112basic_stringIcSt11char_traitsIcESaIcEEEESt10_Select1stISA_ESt4lessIS1_ESaISA_EE24_M_get_insert_unique_posERS3_@Base 0
#MISSING: 14.0.0-7~gcc13# (optional=templinst|arch=amd64 arm64 mips64el ppc64el riscv64 sparc64 x32)_ZNSt8_Rb_treeIN3spv2OpESt4pairIKS1_NSt7__cxx1112basic_stringIcSt11char_traitsIcESaIcEEEESt10_Select1stISA_ESt4lessIS1_ESaISA_EE29_M_get_insert_hint_unique_posESt23_Rb_tree_const_iteratorISA_ERS3_@Base 0
#MISSING: 14.0.0-7~gcc13# (optional=templinst)_ZNSt8_Rb_treeIN3spv2OpESt4pairIKS1_S1_ESt10_Select1stIS4_ESt4lessIS1_ESaIS4_EE22_M_emplace_hint_uniqueIJRKSt21piecewise_construct_tSt5tupleIJRS3_EESF_IJEEEEESt17_Rb_tree_iteratorIS4_ESt23_Rb_tree_const_iteratorIS4_EDpOT_@Base 0
#MISSING: 14.0.0-7~gcc13# (optional=templinst)_ZNSt8_Rb_treeIN3spv2OpESt4pairIKS1_S1_ESt10_Select1stIS4_ESt4lessIS1_ESaIS4_EE24_M_get_insert_unique_posERS3_@Base 0
#MISSING: 14.0.0-7~gcc13# (optional=templinst|arch=amd64 arm64 mips64el ppc64el riscv64 sparc64 x32)_ZNSt8_Rb_treeIN3spv2OpESt4pairIKS1_S1_ESt10_Select1stIS4_ESt4lessIS1_ESaIS4_EE29_M_get_insert_hint_unique_posESt23_Rb_tree_const_iteratorIS4_ERS3_@Base 0
#MISSING: 14.0.0-7~gcc13# (optional=templinst|arch=!amd64 !arm64 !mips64el !ppc64el !riscv64 !sparc64 !x32)_ZNSt8_Rb_treeIN3spv2OpESt4pairIKS1_jESt10_Select1stIS4_ESt4lessIS1_ESaIS4_EE22_M_emplace_hint_uniqueIJRKSt21piecewise_construct_tSt5tupleIJRS3_EESF_IJEEEEESt17_Rb_tree_iteratorIS4_ESt23_Rb_tree_const_iteratorIS4_EDpOT_@Base 0
#MISSING: 14.0.0-7~gcc13# (optional=templinst)_ZNSt8_Rb_treeIN3spv2OpESt4pairIKS1_jESt10_Select1stIS4_ESt4lessIS1_ESaIS4_EE24_M_get_insert_unique_posERS3_@Base 0
#MISSING: 14.0.0-7~gcc13# (optional=templinst|arch=amd64 arm64 mips64el ppc64el riscv64 sparc64 x32)_ZNSt8_Rb_treeIN3spv2OpESt4pairIKS1_jESt10_Select1stIS4_ESt4lessIS1_ESaIS4_EE29_M_get_insert_hint_unique_posESt23_Rb_tree_const_iteratorIS4_ERS3_@Base 0
#MISSING: 14.0.0-7~gcc13# (optional=templinst|arch=!amd64 !arm64 !mips64el !ppc64el !riscv64 !sparc64 !x32)_ZNSt8_Rb_treeIN3spv5ScopeESt4pairIKS1_N7OCLUtil12OCLScopeKindEESt10_Select1stIS6_ESt4lessIS1_ESaIS6_EE22_M_emplace_hint_uniqueIJRKSt21piecewise_construct_tSt5tupleIJRS3_EESH_IJEEEEESt17_Rb_tree_iteratorIS6_ESt23_Rb_tree_const_iteratorIS6_EDpOT_@Base 0
#MISSING: 14.0.0-7~gcc13# (optional=templinst)_ZNSt8_Rb_treeIN3spv5ScopeESt4pairIKS1_N7OCLUtil12OCLScopeKindEESt10_Select1stIS6_ESt4lessIS1_ESaIS6_EE24_M_get_insert_unique_posERS3_@Base 0
#MISSING: 14.0.0-7~gcc13# (optional=templinst|arch=amd64 arm64 mips64el ppc64el riscv64 sparc64 x32)_ZNSt8_Rb_treeIN3spv5ScopeESt4pairIKS1_N7OCLUtil12OCLScopeKindEESt10_Select1stIS6_ESt4lessIS1_ESaIS6_EE29_M_get_insert_hint_unique_posESt23_Rb_tree_const_iteratorIS6_ERS3_@Base 0
#MISSING: 14.0.0-7~gcc13# (optional=templinst)_ZNSt8_Rb_treeIN3spv5ScopeESt4pairIKS1_NSt7__cxx1112basic_stringIcSt11char_traitsIcESaIcEEEESt10_Select1stISA_ESt4lessIS1_ESaISA_EE24_M_get_insert_unique_posERS3_@Base 14
#MISSING: 14.0.0-7~gcc13# (optional=templinst|arch=amd64 arm64 mips64el ppc64el riscv64 sparc64 x32)_ZNSt8_Rb_treeIN3spv5ScopeESt4pairIKS1_NSt7__cxx1112basic_stringIcSt11char_traitsIcESaIcEEEESt10_Select1stISA_ESt4lessIS1_ESaISA_EE29_M_get_insert_hint_unique_posESt23_Rb_tree_const_iteratorISA_ERS3_@Base 14
#MISSING: 14.0.0-7~gcc13# (optional=templinst)_ZNSt8_Rb_treeIN3spv7BuiltInESt4pairIKS1_NSt7__cxx1112basic_stringIcSt11char_traitsIcESaIcEEEESt10_Select1stISA_ESt4lessIS1_ESaISA_EE24_M_get_insert_unique_posERS3_@Base 0
#MISSING: 14.0.0-7~gcc13# (optional=templinst|arch=amd64 arm64 mips64el ppc64el riscv64 sparc64 x32)_ZNSt8_Rb_treeIN3spv7BuiltInESt4pairIKS1_NSt7__cxx1112basic_stringIcSt11char_traitsIcESaIcEEEESt10_Select1stISA_ESt4lessIS1_ESaISA_EE29_M_get_insert_hint_unique_posESt23_Rb_tree_const_iteratorISA_ERS3_@Base 0
#MISSING: 14.0.0-7~gcc13# (optional=templinst)_ZNSt8_Rb_treeIN3spv7BuiltInESt4pairIKS1_St6vectorINS0_10CapabilityESaIS5_EEESt10_Select1stIS8_ESt4lessIS1_ESaIS8_EE24_M_get_insert_unique_posERS3_@Base 12
#MISSING: 14.0.0-7~gcc13# (optional=templinst|arch=amd64 arm64 mips64el ppc64el riscv64 sparc64 x32)_ZNSt8_Rb_treeIN3spv7BuiltInESt4pairIKS1_St6vectorINS0_10CapabilityESaIS5_EEESt10_Select1stIS8_ESt4lessIS1_ESaIS8_EE29_M_get_insert_hint_unique_posESt23_Rb_tree_const_iteratorIS8_ERS3_@Base 12
#MISSING: 14.0.0-7~gcc13# (optional=templinst)_ZNSt8_Rb_treeIN3spv8internal25InternalJointMatrixLayoutESt4pairIKS2_NSt7__cxx1112basic_stringIcSt11char_traitsIcESaIcEEEESt10_Select1stISB_ESt4lessIS2_ESaISB_EE24_M_get_insert_unique_posERS4_@Base 14
#MISSING: 14.0.0-7~gcc13# (optional=templinst|arch=amd64 arm64 mips64el ppc64el riscv64 sparc64 x32)_ZNSt8_Rb_treeIN3spv8internal25InternalJointMatrixLayoutESt4pairIKS2_NSt7__cxx1112basic_stringIcSt11char_traitsIcESaIcEEEESt10_Select1stISB_ESt4lessIS2_ESaISB_EE29_M_get_insert_hint_unique_posESt23_Rb_tree_const_iteratorISB_ERS4_@Base 14
#MISSING: 14.0.0-7~gcc13# (optional=templinst|arch=!amd64 !arm64 !mips64el !ppc64el !riscv64 !sparc64 !x32)_ZNSt8_Rb_treeIN4llvm13AtomicRMWInst5BinOpESt4pairIKS2_N3spv2OpEESt10_Select1stIS7_ESt4lessIS2_ESaIS7_EE22_M_emplace_hint_uniqueIJRKSt21piecewise_construct_tSt5tupleIJRS4_EESI_IJEEEEESt17_Rb_tree_iteratorIS7_ESt23_Rb_tree_const_iteratorIS7_EDpOT_@Base 0
#MISSING: 14.0.0-7~gcc13# (optional=templinst)_ZNSt8_Rb_treeIN4llvm13AtomicRMWInst5BinOpESt4pairIKS2_N3spv2OpEESt10_Select1stIS7_ESt4lessIS2_ESaIS7_EE24_M_get_insert_unique_posERS4_@Base 0
#MISSING: 14.0.0-7~gcc13# (optional=templinst|arch=amd64 arm64 mips64el ppc64el riscv64 sparc64 x32)_ZNSt8_Rb_treeIN4llvm13AtomicRMWInst5BinOpESt4pairIKS2_N3spv2OpEESt10_Select1stIS7_ESt4lessIS2_ESaIS7_EE29_M_get_insert_hint_unique_posESt23_Rb_tree_const_iteratorIS7_ERS4_@Base 0
#MISSING: 14.0.0-7~gcc13# (optional=templinst|arch=!amd64 !arm64 !mips64el !ppc64el !riscv64 !sparc64 !x32)_ZNSt8_Rb_treeIN4llvm5dwarf12LocationAtomESt4pairIKS2_N10SPIRVDebug16ExpressionOpCodeEESt10_Select1stIS7_ESt4lessIS2_ESaIS7_EE22_M_emplace_hint_uniqueIJRKSt21piecewise_construct_tSt5tupleIJRS4_EESI_IJEEEEESt17_Rb_tree_iteratorIS7_ESt23_Rb_tree_const_iteratorIS7_EDpOT_@Base 0
#MISSING: 14.0.0-7~gcc13# (optional=templinst)_ZNSt8_Rb_treeIN4llvm5dwarf12LocationAtomESt4pairIKS2_N10SPIRVDebug16ExpressionOpCodeEESt10_Select1stIS7_ESt4lessIS2_ESaIS7_EE24_M_get_insert_unique_posERS4_@Base 0
#MISSING: 14.0.0-7~gcc13# (optional=templinst|arch=amd64 arm64 mips64el ppc64el riscv64 sparc64 x32)_ZNSt8_Rb_treeIN4llvm5dwarf12LocationAtomESt4pairIKS2_N10SPIRVDebug16ExpressionOpCodeEESt10_Select1stIS7_ESt4lessIS2_ESaIS7_EE29_M_get_insert_hint_unique_posESt23_Rb_tree_const_iteratorIS7_ERS4_@Base 0
#MISSING: 14.0.0-7~gcc13# (optional=templinst|arch=!amd64 !arm64 !mips64el !ppc64el !riscv64 !sparc64 !x32)_ZNSt8_Rb_treeIN4llvm5dwarf3TagESt4pairIKS2_N10SPIRVDebug16CompositeTypeTagEESt10_Select1stIS7_ESt4lessIS2_ESaIS7_EE22_M_emplace_hint_uniqueIJRKSt21piecewise_construct_tSt5tupleIJRS4_EESI_IJEEEEESt17_Rb_tree_iteratorIS7_ESt23_Rb_tree_const_iteratorIS7_EDpOT_@Base 0
#MISSING: 14.0.0-7~gcc13# (optional=templinst)_ZNSt8_Rb_treeIN4llvm5dwarf3TagESt4pairIKS2_N10SPIRVDebug16CompositeTypeTagEESt10_Select1stIS7_ESt4lessIS2_ESaIS7_EE24_M_get_insert_unique_posERS4_@Base 0
#MISSING: 14.0.0-7~gcc13# (optional=templinst|arch=amd64 arm64 mips64el ppc64el riscv64 sparc64 x32)_ZNSt8_Rb_treeIN4llvm5dwarf3TagESt4pairIKS2_N10SPIRVDebug16CompositeTypeTagEESt10_Select1stIS7_ESt4lessIS2_ESaIS7_EE29_M_get_insert_hint_unique_posESt23_Rb_tree_const_iteratorIS7_ERS4_@Base 0
#MISSING: 14.0.0-7~gcc13# (optional=templinst|arch=!amd64 !arm64 !mips64el !ppc64el !riscv64 !sparc64 !x32)_ZNSt8_Rb_treeIN4llvm5dwarf3TagESt4pairIKS2_N10SPIRVDebug16TypeQualifierTagEESt10_Select1stIS7_ESt4lessIS2_ESaIS7_EE22_M_emplace_hint_uniqueIJRKSt21piecewise_construct_tSt5tupleIJRS4_EESI_IJEEEEESt17_Rb_tree_iteratorIS7_ESt23_Rb_tree_const_iteratorIS7_EDpOT_@Base 0
#MISSING: 14.0.0-7~gcc13# (optional=templinst)_ZNSt8_Rb_treeIN4llvm5dwarf3TagESt4pairIKS2_N10SPIRVDebug16TypeQualifierTagEESt10_Select1stIS7_ESt4lessIS2_ESaIS7_EE24_M_get_insert_unique_posERS4_@Base 0
#MISSING: 14.0.0-7~gcc13# (optional=templinst|arch=amd64 arm64 mips64el ppc64el riscv64 sparc64 x32)_ZNSt8_Rb_treeIN4llvm5dwarf3TagESt4pairIKS2_N10SPIRVDebug16TypeQualifierTagEESt10_Select1stIS7_ESt4lessIS2_ESaIS7_EE29_M_get_insert_hint_unique_posESt23_Rb_tree_const_iteratorIS7_ERS4_@Base 0
#MISSING: 14.0.0-7~gcc13# (optional=templinst|arch=!amd64 !arm64 !mips64el !ppc64el !riscv64 !sparc64 !x32)_ZNSt8_Rb_treeIN4llvm5dwarf3TagESt4pairIKS2_N10SPIRVDebug17ImportedEntityTagEESt10_Select1stIS7_ESt4lessIS2_ESaIS7_EE22_M_emplace_hint_uniqueIJRKSt21piecewise_construct_tSt5tupleIJRS4_EESI_IJEEEEESt17_Rb_tree_iteratorIS7_ESt23_Rb_tree_const_iteratorIS7_EDpOT_@Base 0
#MISSING: 14.0.0-7~gcc13# (optional=templinst)_ZNSt8_Rb_treeIN4llvm5dwarf3TagESt4pairIKS2_N10SPIRVDebug17ImportedEntityTagEESt10_Select1stIS7_ESt4lessIS2_ESaIS7_EE24_M_get_insert_unique_posERS4_@Base 0
#MISSING: 14.0.0-7~gcc13# (optional=templinst|arch=amd64 arm64 mips64el ppc64el riscv64 sparc64 x32)_ZNSt8_Rb_treeIN4llvm5dwarf3TagESt4pairIKS2_N10SPIRVDebug17ImportedEntityTagEESt10_Select1stIS7_ESt4lessIS2_ESaIS7_EE29_M_get_insert_hint_unique_posESt23_Rb_tree_const_iteratorIS7_ERS4_@Base 0
#MISSING: 14.0.0-7~gcc13# (optional=templinst|arch=!amd64 !arm64 !mips64el !ppc64el !riscv64 !sparc64 !x32)_ZNSt8_Rb_treeIN4llvm5dwarf8TypeKindESt4pairIKS2_N10SPIRVDebug11EncodingTagEESt10_Select1stIS7_ESt4lessIS2_ESaIS7_EE22_M_emplace_hint_uniqueIJRKSt21piecewise_construct_tSt5tupleIJRS4_EESI_IJEEEEESt17_Rb_tree_iteratorIS7_ESt23_Rb_tree_const_iteratorIS7_EDpOT_@Base 0
#MISSING: 14.0.0-7~gcc13# (optional=templinst)_ZNSt8_Rb_treeIN4llvm5dwarf8TypeKindESt4pairIKS2_N10SPIRVDebug11EncodingTagEESt10_Select1stIS7_ESt4lessIS2_ESaIS7_EE24_M_get_insert_unique_posERS4_@Base 0
#MISSING: 14.0.0-7~gcc13# (optional=templinst|arch=amd64 arm64 mips64el ppc64el riscv64 sparc64 x32)_ZNSt8_Rb_treeIN4llvm5dwarf8TypeKindESt4pairIKS2_N10SPIRVDebug11EncodingTagEESt10_Select1stIS7_ESt4lessIS2_ESaIS7_EE29_M_get_insert_hint_unique_posESt23_Rb_tree_const_iteratorIS7_ERS4_@Base 0
#MISSING: 14.0.0-7~gcc13# (optional=templinst|arch=!amd64 !arm64 !mips64el !ppc64el !riscv64 !sparc64 !x32)_ZNSt8_Rb_treeIN4llvm7CmpInst9PredicateESt4pairIKS2_N3spv2OpEESt10_Select1stIS7_ESt4lessIS2_ESaIS7_EE22_M_emplace_hint_uniqueIJRKSt21piecewise_construct_tSt5tupleIJRS4_EESI_IJEEEEESt17_Rb_tree_iteratorIS7_ESt23_Rb_tree_const_iteratorIS7_EDpOT_@Base 0
#MISSING: 14.0.0-7~gcc13# (optional=templinst)_ZNSt8_Rb_treeIN4llvm7CmpInst9PredicateESt4pairIKS2_N3spv2OpEESt10_Select1stIS7_ESt4lessIS2_ESaIS7_EE24_M_get_insert_unique_posERS4_@Base 0
#MISSING: 14.0.0-7~gcc13# (optional=templinst|arch=amd64 arm64 mips64el ppc64el riscv64 sparc64 x32)_ZNSt8_Rb_treeIN4llvm7CmpInst9PredicateESt4pairIKS2_N3spv2OpEESt10_Select1stIS7_ESt4lessIS2_ESaIS7_EE29_M_get_insert_hint_unique_posESt23_Rb_tree_const_iteratorIS7_ERS4_@Base 0
#MISSING: 14.0.0-7~gcc13# (optional=templinst|arch=!amd64 !arm64 !mips64el !ppc64el !riscv64 !sparc64 !x32)_ZNSt8_Rb_treeIN4llvm9Attribute8AttrKindESt4pairIKS2_N3spv19FunctionControlMaskEESt10_Select1stIS7_ESt4lessIS2_ESaIS7_EE22_M_emplace_hint_uniqueIJRKSt21piecewise_construct_tSt5tupleIJRS4_EESI_IJEEEEESt17_Rb_tree_iteratorIS7_ESt23_Rb_tree_const_iteratorIS7_EDpOT_@Base 0
#MISSING: 14.0.0-7~gcc13# (optional=templinst)_ZNSt8_Rb_treeIN4llvm9Attribute8AttrKindESt4pairIKS2_N3spv19FunctionControlMaskEESt10_Select1stIS7_ESt4lessIS2_ESaIS7_EE24_M_get_insert_unique_posERS4_@Base 0
#MISSING: 14.0.0-7~gcc13# (optional=templinst|arch=amd64 arm64 mips64el ppc64el riscv64 sparc64 x32)_ZNSt8_Rb_treeIN4llvm9Attribute8AttrKindESt4pairIKS2_N3spv19FunctionControlMaskEESt10_Select1stIS7_ESt4lessIS2_ESaIS7_EE29_M_get_insert_hint_unique_posESt23_Rb_tree_const_iteratorIS7_ERS4_@Base 0
#MISSING: 14.0.0-7~gcc13# (optional=templinst|arch=!amd64 !arm64 !mips64el !ppc64el !riscv64 !sparc64 !x32)_ZNSt8_Rb_treeIN4llvm9Attribute8AttrKindESt4pairIKS2_N3spv26FunctionParameterAttributeEESt10_Select1stIS7_ESt4lessIS2_ESaIS7_EE22_M_emplace_hint_uniqueIJRKSt21piecewise_construct_tSt5tupleIJRS4_EESI_IJEEEEESt17_Rb_tree_iteratorIS7_ESt23_Rb_tree_const_iteratorIS7_EDpOT_@Base 0
#MISSING: 14.0.0-7~gcc13# (optional=templinst)_ZNSt8_Rb_treeIN4llvm9Attribute8AttrKindESt4pairIKS2_N3spv26FunctionParameterAttributeEESt10_Select1stIS7_ESt4lessIS2_ESaIS7_EE24_M_get_insert_unique_posERS4_@Base 0
#MISSING: 14.0.0-7~gcc13# (optional=templinst|arch=amd64 arm64 mips64el ppc64el riscv64 sparc64 x32)_ZNSt8_Rb_treeIN4llvm9Attribute8AttrKindESt4pairIKS2_N3spv26FunctionParameterAttributeEESt10_Select1stIS7_ESt4lessIS2_ESaIS7_EE29_M_get_insert_hint_unique_posESt23_Rb_tree_const_iteratorIS7_ERS4_@Base 0
#MISSING: 14.0.0-7~gcc13# (optional=templinst)_ZNSt8_Rb_treeIN5SPIRV11ExtensionIDESt4pairIKS1_NSt7__cxx1112basic_stringIcSt11char_traitsIcESaIcEEEESt10_Select1stISA_ESt4lessIS1_ESaISA_EE24_M_get_insert_unique_posERS3_@Base 0
#MISSING: 14.0.0-7~gcc13# (optional=templinst|arch=amd64 arm64 mips64el ppc64el riscv64 sparc64 x32)_ZNSt8_Rb_treeIN5SPIRV11ExtensionIDESt4pairIKS1_NSt7__cxx1112basic_stringIcSt11char_traitsIcESaIcEEEESt10_Select1stISA_ESt4lessIS1_ESaISA_EE29_M_get_insert_hint_unique_posESt23_Rb_tree_const_iteratorISA_ERS3_@Base 0
#MISSING: 14.0.0-7~gcc13# (optional=templinst)_ZNSt8_Rb_treeIN5SPIRV11ExtensionIDESt4pairIKS1_bESt10_Select1stIS4_ESt4lessIS1_ESaIS4_EE22_M_emplace_hint_uniqueIJRKSt21piecewise_construct_tSt5tupleIJOS1_EESF_IJEEEEESt17_Rb_tree_iteratorIS4_ESt23_Rb_tree_const_iteratorIS4_EDpOT_@Base 0
#MISSING: 14.0.0-7~gcc13# (optional=templinst)_ZNSt8_Rb_treeIN5SPIRV11ExtensionIDESt4pairIKS1_bESt10_Select1stIS4_ESt4lessIS1_ESaIS4_EE24_M_get_insert_unique_posERS3_@Base 0
#MISSING: 14.0.0-7~gcc13# (optional=templinst|arch=amd64 arm64 mips64el ppc64el riscv64 sparc64 x32)_ZNSt8_Rb_treeIN5SPIRV11ExtensionIDESt4pairIKS1_bESt10_Select1stIS4_ESt4lessIS1_ESaIS4_EE29_M_get_insert_hint_unique_posESt23_Rb_tree_const_iteratorIS4_ERS3_@Base 0
#MISSING: 14.0.0-7~gcc13# (optional=templinst)_ZNSt8_Rb_treeIN5SPIRV14SPIRVErrorCodeESt4pairIKS1_NSt7__cxx1112basic_stringIcSt11char_traitsIcESaIcEEEESt10_Select1stISA_ESt4lessIS1_ESaISA_EE24_M_get_insert_unique_posERS3_@Base 0
#MISSING: 14.0.0-7~gcc13# (optional=templinst|arch=amd64 arm64 mips64el ppc64el riscv64 sparc64 x32)_ZNSt8_Rb_treeIN5SPIRV14SPIRVErrorCodeESt4pairIKS1_NSt7__cxx1112basic_stringIcSt11char_traitsIcESaIcEEEESt10_Select1stISA_ESt4lessIS1_ESaISA_EE29_M_get_insert_hint_unique_posESt23_Rb_tree_const_iteratorISA_ERS3_@Base 0
#MISSING: 14.0.0-7~gcc13# (optional=templinst|arch=!amd64 !arm64 !mips64el !ppc64el !riscv64 !sparc64 !x32)_ZNSt8_Rb_treeIN5SPIRV16SPIRAddressSpaceESt4pairIKS1_N3spv12StorageClassEESt10_Select1stIS6_ESt4lessIS1_ESaIS6_EE22_M_emplace_hint_uniqueIJRKSt21piecewise_construct_tSt5tupleIJRS3_EESH_IJEEEEESt17_Rb_tree_iteratorIS6_ESt23_Rb_tree_const_iteratorIS6_EDpOT_@Base 0
#MISSING: 14.0.0-7~gcc13# (optional=templinst)_ZNSt8_Rb_treeIN5SPIRV16SPIRAddressSpaceESt4pairIKS1_N3spv12StorageClassEESt10_Select1stIS6_ESt4lessIS1_ESaIS6_EE24_M_get_insert_unique_posERS3_@Base 0
#MISSING: 14.0.0-7~gcc13# (optional=templinst|arch=amd64 arm64 mips64el ppc64el riscv64 sparc64 x32)_ZNSt8_Rb_treeIN5SPIRV16SPIRAddressSpaceESt4pairIKS1_N3spv12StorageClassEESt10_Select1stIS6_ESt4lessIS1_ESaIS6_EE29_M_get_insert_hint_unique_posESt23_Rb_tree_const_iteratorIS6_ERS3_@Base 0
#MISSING: 14.0.0-7~gcc13# (optional=templinst)_ZNSt8_Rb_treeIN5SPIRV19SPIRVExtInstSetKindESt4pairIKS1_NSt7__cxx1112basic_stringIcSt11char_traitsIcESaIcEEEESt10_Select1stISA_ESt4lessIS1_ESaISA_EE24_M_get_insert_unique_posERS3_@Base 0
#MISSING: 14.0.0-7~gcc13# (optional=templinst|arch=amd64 arm64 mips64el ppc64el riscv64 sparc64 x32)_ZNSt8_Rb_treeIN5SPIRV19SPIRVExtInstSetKindESt4pairIKS1_NSt7__cxx1112basic_stringIcSt11char_traitsIcESaIcEEEESt10_Select1stISA_ESt4lessIS1_ESaISA_EE29_M_get_insert_hint_unique_posESt23_Rb_tree_const_iteratorISA_ERS3_@Base 0
#MISSING: 14.0.0-7~gcc13# (optional=templinst)_ZNSt8_Rb_treeIN5SPIRV19SPIRVExtInstSetKindESt4pairIKS1_jESt10_Select1stIS4_ESt4lessIS1_ESaIS4_EE24_M_get_insert_unique_posERS3_@Base 0
#MISSING: 14.0.0-7~gcc13# (optional=templinst)_ZNSt8_Rb_treeIN5SPIRV19SPIRVExtInstSetKindESt4pairIKS1_jESt10_Select1stIS4_ESt4lessIS1_ESaIS4_EE29_M_get_insert_hint_unique_posESt23_Rb_tree_const_iteratorIS4_ERS3_@Base 0
#MISSING: 14.0.0-7~gcc13# (optional=templinst|arch=!amd64 !arm64 !mips64el !ppc64el !riscv64 !sparc64 !x32)_ZNSt8_Rb_treeIN7OCLUtil12OCLScopeKindESt4pairIKS1_N3spv5ScopeEESt10_Select1stIS6_ESt4lessIS1_ESaIS6_EE22_M_emplace_hint_uniqueIJRKSt21piecewise_construct_tSt5tupleIJRS3_EESH_IJEEEEESt17_Rb_tree_iteratorIS6_ESt23_Rb_tree_const_iteratorIS6_EDpOT_@Base 0
#MISSING: 14.0.0-7~gcc13# (optional=templinst)_ZNSt8_Rb_treeIN7OCLUtil12OCLScopeKindESt4pairIKS1_N3spv5ScopeEESt10_Select1stIS6_ESt4lessIS1_ESaIS6_EE24_M_get_insert_unique_posERS3_@Base 0
#MISSING: 14.0.0-7~gcc13# (optional=templinst|arch=amd64 arm64 mips64el ppc64el riscv64 sparc64 x32)_ZNSt8_Rb_treeIN7OCLUtil12OCLScopeKindESt4pairIKS1_N3spv5ScopeEESt10_Select1stIS6_ESt4lessIS1_ESaIS6_EE29_M_get_insert_hint_unique_posESt23_Rb_tree_const_iteratorIS6_ERS3_@Base 0
#MISSING: 14.0.0-7~gcc13# (optional=templinst|arch=!amd64 !arm64 !mips64el !ppc64el !riscv64 !sparc64 !x32)_ZNSt8_Rb_treeIN7OCLUtil15OCLMemFenceKindESt4pairIKS1_N3spv19MemorySemanticsMaskEESt10_Select1stIS6_ESt4lessIS1_ESaIS6_EE22_M_emplace_hint_uniqueIJRKSt21piecewise_construct_tSt5tupleIJRS3_EESH_IJEEEEESt17_Rb_tree_iteratorIS6_ESt23_Rb_tree_const_iteratorIS6_EDpOT_@Base 0
#MISSING: 14.0.0-7~gcc13# (optional=templinst)_ZNSt8_Rb_treeIN7OCLUtil15OCLMemFenceKindESt4pairIKS1_N3spv19MemorySemanticsMaskEESt10_Select1stIS6_ESt4lessIS1_ESaIS6_EE24_M_get_insert_unique_posERS3_@Base 0
#MISSING: 14.0.0-7~gcc13# (optional=templinst|arch=amd64 arm64 mips64el ppc64el riscv64 sparc64 x32)_ZNSt8_Rb_treeIN7OCLUtil15OCLMemFenceKindESt4pairIKS1_N3spv19MemorySemanticsMaskEESt10_Select1stIS6_ESt4lessIS1_ESaIS6_EE29_M_get_insert_hint_unique_posESt23_Rb_tree_const_iteratorIS6_ERS3_@Base 0
#MISSING: 14.0.0-7~gcc13# (optional=templinst|arch=!amd64 !arm64 !mips64el !ppc64el !riscv64 !sparc64 !x32)_ZNSt8_Rb_treeIN7OCLUtil15OCLMemOrderKindESt4pairIKS1_jESt10_Select1stIS4_ESt4lessIS1_ESaIS4_EE22_M_emplace_hint_uniqueIJRKSt21piecewise_construct_tSt5tupleIJRS3_EESF_IJEEEEESt17_Rb_tree_iteratorIS4_ESt23_Rb_tree_const_iteratorIS4_EDpOT_@Base 0
#MISSING: 14.0.0-7~gcc13# (optional=templinst)_ZNSt8_Rb_treeIN7OCLUtil15OCLMemOrderKindESt4pairIKS1_jESt10_Select1stIS4_ESt4lessIS1_ESaIS4_EE24_M_get_insert_unique_posERS3_@Base 0
#MISSING: 14.0.0-7~gcc13# (optional=templinst|arch=amd64 arm64 mips64el ppc64el riscv64 sparc64 x32)_ZNSt8_Rb_treeIN7OCLUtil15OCLMemOrderKindESt4pairIKS1_jESt10_Select1stIS4_ESt4lessIS1_ESaIS4_EE29_M_get_insert_hint_unique_posESt23_Rb_tree_const_iteratorIS4_ERS3_@Base 0
#MISSING: 14.0.0-7~gcc13# (optional=templinst|arch=!amd64 !arm64 !mips64el !ppc64el !riscv64 !sparc64 !x32)_ZNSt8_Rb_treeIN7OCLUtil23OCLMemFenceExtendedKindESt4pairIKS1_N3spv19MemorySemanticsMaskEESt10_Select1stIS6_ESt4lessIS1_ESaIS6_EE22_M_emplace_hint_uniqueIJRKSt21piecewise_construct_tSt5tupleIJRS3_EESH_IJEEEEESt17_Rb_tree_iteratorIS6_ESt23_Rb_tree_const_iteratorIS6_EDpOT_@Base 0
#MISSING: 14.0.0-7~gcc13# (optional=templinst)_ZNSt8_Rb_treeIN7OCLUtil23OCLMemFenceExtendedKindESt4pairIKS1_N3spv19MemorySemanticsMaskEESt10_Select1stIS6_ESt4lessIS1_ESaIS6_EE24_M_get_insert_unique_posERS3_@Base 0
#MISSING: 14.0.0-7~gcc13# (optional=templinst|arch=amd64 arm64 mips64el ppc64el riscv64 sparc64 x32)_ZNSt8_Rb_treeIN7OCLUtil23OCLMemFenceExtendedKindESt4pairIKS1_N3spv19MemorySemanticsMaskEESt10_Select1stIS6_ESt4lessIS1_ESaIS6_EE29_M_get_insert_hint_unique_posESt23_Rb_tree_const_iteratorIS6_ERS3_@Base 0
 (optional=templinst|arch=amd64 arm64 loong64 mips64el ppc64el riscv64 sparc64 x32)_ZNSt8_Rb_treeIN7OCLUtil6OclExt4KindES2_St9_IdentityIS2_ESt4lessIS2_ESaIS2_EE16_M_insert_uniqueIRKS2_EESt4pairISt17_Rb_tree_iteratorIS2_EbEOT_@Base 0
#MISSING: 14.0.0-7~gcc13# (optional=templinst)_ZNSt8_Rb_treeIN7OCLUtil6OclExt4KindES2_St9_IdentityIS2_ESt4lessIS2_ESaIS2_EE24_M_get_insert_unique_posERKS2_@Base 0
#MISSING: 14.0.0-7~gcc13# (optional=templinst|arch=amd64 arm64 mips64el ppc64el riscv64 sparc64 x32)_ZNSt8_Rb_treeIN7OCLUtil6OclExt4KindES2_St9_IdentityIS2_ESt4lessIS2_ESaIS2_EE29_M_get_insert_hint_unique_posESt23_Rb_tree_const_iteratorIS2_ERKS2_@Base 0
#MISSING: 14.0.0-7~gcc13# (optional=templinst|arch=!amd64 !arm64 !mips64el !ppc64el !riscv64 !sparc64 !x32)_ZNSt8_Rb_treeIN7OCLUtil6OclExt4KindESt4pairIKS2_N3spv10CapabilityEESt10_Select1stIS7_ESt4lessIS2_ESaIS7_EE22_M_emplace_hint_uniqueIJRKSt21piecewise_construct_tSt5tupleIJRS4_EESI_IJEEEEESt17_Rb_tree_iteratorIS7_ESt23_Rb_tree_const_iteratorIS7_EDpOT_@Base 0
#MISSING: 14.0.0-7~gcc13# (optional=templinst)_ZNSt8_Rb_treeIN7OCLUtil6OclExt4KindESt4pairIKS2_N3spv10CapabilityEESt10_Select1stIS7_ESt4lessIS2_ESaIS7_EE24_M_get_insert_unique_posERS4_@Base 0
#MISSING: 14.0.0-7~gcc13# (optional=templinst|arch=amd64 arm64 mips64el ppc64el riscv64 sparc64 x32)_ZNSt8_Rb_treeIN7OCLUtil6OclExt4KindESt4pairIKS2_N3spv10CapabilityEESt10_Select1stIS7_ESt4lessIS2_ESaIS7_EE29_M_get_insert_hint_unique_posESt23_Rb_tree_const_iteratorIS7_ERS4_@Base 0
#MISSING: 14.0.0-7~gcc13# (optional=templinst)_ZNSt8_Rb_treeIN7OCLUtil6OclExt4KindESt4pairIKS2_NSt7__cxx1112basic_stringIcSt11char_traitsIcESaIcEEEESt10_Select1stISB_ESt4lessIS2_ESaISB_EE24_M_get_insert_unique_posERS4_@Base 0
#MISSING: 14.0.0-7~gcc13# (optional=templinst|arch=amd64 arm64 mips64el ppc64el riscv64 sparc64 x32)_ZNSt8_Rb_treeIN7OCLUtil6OclExt4KindESt4pairIKS2_NSt7__cxx1112basic_stringIcSt11char_traitsIcESaIcEEEESt10_Select1stISB_ESt4lessIS2_ESaISB_EE29_M_get_insert_hint_unique_posESt23_Rb_tree_const_iteratorISB_ERS4_@Base 0
#MISSING: 14.0.0-7~gcc13# (optional=templinst)_ZNSt8_Rb_treeIN9OpenCLLIB11EntrypointsESt4pairIKS1_NSt7__cxx1112basic_stringIcSt11char_traitsIcESaIcEEEESt10_Select1stISA_ESt4lessIS1_ESaISA_EE24_M_get_insert_unique_posERS3_@Base 0
#MISSING: 14.0.0-7~gcc13# (optional=templinst|arch=amd64 arm64 mips64el ppc64el riscv64 sparc64 x32)_ZNSt8_Rb_treeIN9OpenCLLIB11EntrypointsESt4pairIKS1_NSt7__cxx1112basic_stringIcSt11char_traitsIcESaIcEEEESt10_Select1stISA_ESt4lessIS1_ESaISA_EE29_M_get_insert_hint_unique_posESt23_Rb_tree_const_iteratorISA_ERS3_@Base 0
 (optional=templinst|arch=amd64 arm64 loong64 mips64el ppc64el riscv64 sparc64 x32)_ZNSt8_Rb_treeINSt7__cxx1112basic_stringIcSt11char_traitsIcESaIcEEES5_St9_IdentityIS5_ESt4lessIS5_ESaIS5_EE16_M_insert_uniqueIRKS5_EESt4pairISt17_Rb_tree_iteratorIS5_EbEOT_@Base 0
 (optional=templinst|arch=amd64 arm64 loong64 mips64el ppc64el riscv64 sparc64 x32)_ZNSt8_Rb_treeINSt7__cxx1112basic_stringIcSt11char_traitsIcESaIcEEES5_St9_IdentityIS5_ESt4lessIS5_ESaIS5_EE16_M_insert_uniqueIS5_EESt4pairISt17_Rb_tree_iteratorIS5_EbEOT_@Base 0
 (optional=templinst)_ZNSt8_Rb_treeINSt7__cxx1112basic_stringIcSt11char_traitsIcESaIcEEES5_St9_IdentityIS5_ESt4lessIS5_ESaIS5_EE24_M_get_insert_unique_posERKS5_@Base 0
 (optional=templinst)_ZNSt8_Rb_treeINSt7__cxx1112basic_stringIcSt11char_traitsIcESaIcEEES5_St9_IdentityIS5_ESt4lessIS5_ESaIS5_EE4findERKS5_@Base 14
 (optional=templinst)_ZNSt8_Rb_treeINSt7__cxx1112basic_stringIcSt11char_traitsIcESaIcEEESt4pairIKS5_N10SPIRVDebug11InstructionEESt10_Select1stISA_ESt4lessIS5_ESaISA_EE24_M_get_insert_unique_posERS7_@Base 0
 (optional=templinst|arch=amd64 arm64 loong64 mips64el ppc64el riscv64 sparc64 x32)_ZNSt8_Rb_treeINSt7__cxx1112basic_stringIcSt11char_traitsIcESaIcEEESt4pairIKS5_N10SPIRVDebug11InstructionEESt10_Select1stISA_ESt4lessIS5_ESaISA_EE29_M_get_insert_hint_unique_posESt23_Rb_tree_const_iteratorISA_ERS7_@Base 0
 (optional=templinst)_ZNSt8_Rb_treeINSt7__cxx1112basic_stringIcSt11char_traitsIcESaIcEEESt4pairIKS5_N18NonSemanticAuxData11InstructionEESt10_Select1stISA_ESt4lessIS5_ESaISA_EE24_M_get_insert_unique_posERS7_@Base 17
 (optional=templinst|arch=amd64 arm64 loong64 ppc64el riscv64)_ZNSt8_Rb_treeINSt7__cxx1112basic_stringIcSt11char_traitsIcESaIcEEESt4pairIKS5_N18NonSemanticAuxData11InstructionEESt10_Select1stISA_ESt4lessIS5_ESaISA_EE29_M_get_insert_hint_unique_posESt23_Rb_tree_const_iteratorISA_ERS7_@Base 17
 (optional=templinst)_ZNSt8_Rb_treeINSt7__cxx1112basic_stringIcSt11char_traitsIcESaIcEEESt4pairIKS5_N3spv10CapabilityEESt10_Select1stISA_ESt4lessIS5_ESaISA_EE24_M_get_insert_unique_posERS7_@Base 0
 (optional=templinst|arch=amd64 arm64 loong64 mips64el ppc64el riscv64 sparc64 x32)_ZNSt8_Rb_treeINSt7__cxx1112basic_stringIcSt11char_traitsIcESaIcEEESt4pairIKS5_N3spv10CapabilityEESt10_Select1stISA_ESt4lessIS5_ESaISA_EE29_M_get_insert_hint_unique_posESt23_Rb_tree_const_iteratorISA_ERS7_@Base 0
 (optional=templinst)_ZNSt8_Rb_treeINSt7__cxx1112basic_stringIcSt11char_traitsIcESaIcEEESt4pairIKS5_N3spv10DecorationEESt10_Select1stISA_ESt4lessIS5_ESaISA_EE24_M_get_insert_unique_posERS7_@Base 0
 (optional=templinst|arch=amd64 arm64 loong64 mips64el ppc64el riscv64 sparc64 x32)_ZNSt8_Rb_treeINSt7__cxx1112basic_stringIcSt11char_traitsIcESaIcEEESt4pairIKS5_N3spv10DecorationEESt10_Select1stISA_ESt4lessIS5_ESaISA_EE29_M_get_insert_hint_unique_posESt23_Rb_tree_const_iteratorISA_ERS7_@Base 0
 (optional=templinst)_ZNSt8_Rb_treeINSt7__cxx1112basic_stringIcSt11char_traitsIcESaIcEEESt4pairIKS5_N3spv11LinkageTypeEESt10_Select1stISA_ESt4lessIS5_ESaISA_EE24_M_get_insert_unique_posERS7_@Base 0
 (optional=templinst|arch=amd64 arm64 loong64 mips64el ppc64el riscv64 sparc64 x32)_ZNSt8_Rb_treeINSt7__cxx1112basic_stringIcSt11char_traitsIcESaIcEEESt4pairIKS5_N3spv11LinkageTypeEESt10_Select1stISA_ESt4lessIS5_ESaISA_EE29_M_get_insert_hint_unique_posESt23_Rb_tree_const_iteratorISA_ERS7_@Base 0
 (optional=templinst)_ZNSt8_Rb_treeINSt7__cxx1112basic_stringIcSt11char_traitsIcESaIcEEESt4pairIKS5_N3spv14FPRoundingModeEESt10_Select1stISA_ESt4lessIS5_ESaISA_EE24_M_get_insert_unique_posERS7_@Base 0
 (optional=templinst|arch=amd64 arm64 loong64 mips64el ppc64el riscv64 sparc64 x32)_ZNSt8_Rb_treeINSt7__cxx1112basic_stringIcSt11char_traitsIcESaIcEEESt4pairIKS5_N3spv14FPRoundingModeEESt10_Select1stISA_ESt4lessIS5_ESaISA_EE29_M_get_insert_hint_unique_posESt23_Rb_tree_const_iteratorISA_ERS7_@Base 0
 (optional=templinst)_ZNSt8_Rb_treeINSt7__cxx1112basic_stringIcSt11char_traitsIcESaIcEEESt4pairIKS5_N3spv14GroupOperationEESt10_Select1stISA_ESt4lessIS5_ESaISA_EE24_M_get_insert_unique_posERS7_@Base 0
 (optional=templinst|arch=amd64 arm64 loong64 mips64el ppc64el riscv64 sparc64 x32)_ZNSt8_Rb_treeINSt7__cxx1112basic_stringIcSt11char_traitsIcESaIcEEESt4pairIKS5_N3spv14GroupOperationEESt10_Select1stISA_ESt4lessIS5_ESaISA_EE29_M_get_insert_hint_unique_posESt23_Rb_tree_const_iteratorISA_ERS7_@Base 0
 (optional=templinst)_ZNSt8_Rb_treeINSt7__cxx1112basic_stringIcSt11char_traitsIcESaIcEEESt4pairIKS5_N3spv15AccessQualifierEESt10_Select1stISA_ESt4lessIS5_ESaISA_EE24_M_get_insert_unique_posERS7_@Base 0
 (optional=templinst|arch=amd64 arm64 loong64 mips64el ppc64el riscv64 sparc64 x32)_ZNSt8_Rb_treeINSt7__cxx1112basic_stringIcSt11char_traitsIcESaIcEEESt4pairIKS5_N3spv15AccessQualifierEESt10_Select1stISA_ESt4lessIS5_ESaISA_EE29_M_get_insert_hint_unique_posESt23_Rb_tree_const_iteratorISA_ERS7_@Base 0
 (optional=templinst)_ZNSt8_Rb_treeINSt7__cxx1112basic_stringIcSt11char_traitsIcESaIcEEESt4pairIKS5_N3spv2OpEESt10_Select1stISA_ESt4lessIS5_ESaISA_EE24_M_get_insert_unique_posERS7_@Base 0
 (optional=templinst|arch=amd64 arm64 loong64 mips64el ppc64el riscv64 sparc64 x32)_ZNSt8_Rb_treeINSt7__cxx1112basic_stringIcSt11char_traitsIcESaIcEEESt4pairIKS5_N3spv2OpEESt10_Select1stISA_ESt4lessIS5_ESaISA_EE29_M_get_insert_hint_unique_posESt23_Rb_tree_const_iteratorISA_ERS7_@Base 0
#MISSING: 16# (optional=templinst)_ZNSt8_Rb_treeINSt7__cxx1112basic_stringIcSt11char_traitsIcESaIcEEESt4pairIKS5_N3spv5ScopeEESt10_Select1stISA_ESt4lessIS5_ESaISA_EE24_M_get_insert_unique_posERS7_@Base 14
#MISSING: 16# (optional=templinst|arch=amd64 arm64 mips64el ppc64el riscv64 sparc64 x32)_ZNSt8_Rb_treeINSt7__cxx1112basic_stringIcSt11char_traitsIcESaIcEEESt4pairIKS5_N3spv5ScopeEESt10_Select1stISA_ESt4lessIS5_ESaISA_EE29_M_get_insert_hint_unique_posESt23_Rb_tree_const_iteratorISA_ERS7_@Base 14
 (optional=templinst)_ZNSt8_Rb_treeINSt7__cxx1112basic_stringIcSt11char_traitsIcESaIcEEESt4pairIKS5_N3spv7BuiltInEESt10_Select1stISA_ESt4lessIS5_ESaISA_EE24_M_get_insert_unique_posERS7_@Base 0
 (optional=templinst|arch=amd64 arm64 loong64 mips64el ppc64el riscv64 sparc64 x32)_ZNSt8_Rb_treeINSt7__cxx1112basic_stringIcSt11char_traitsIcESaIcEEESt4pairIKS5_N3spv7BuiltInEESt10_Select1stISA_ESt4lessIS5_ESaISA_EE29_M_get_insert_hint_unique_posESt23_Rb_tree_const_iteratorISA_ERS7_@Base 0
#MISSING: 16# (optional=templinst)_ZNSt8_Rb_treeINSt7__cxx1112basic_stringIcSt11char_traitsIcESaIcEEESt4pairIKS5_N3spv8internal25InternalJointMatrixLayoutEESt10_Select1stISB_ESt4lessIS5_ESaISB_EE24_M_get_insert_unique_posERS7_@Base 14
#MISSING: 16# (optional=templinst|arch=amd64 arm64 mips64el ppc64el riscv64 sparc64 x32)_ZNSt8_Rb_treeINSt7__cxx1112basic_stringIcSt11char_traitsIcESaIcEEESt4pairIKS5_N3spv8internal25InternalJointMatrixLayoutEESt10_Select1stISB_ESt4lessIS5_ESaISB_EE29_M_get_insert_hint_unique_posESt23_Rb_tree_const_iteratorISB_ERS7_@Base 14
 (optional=templinst)_ZNSt8_Rb_treeINSt7__cxx1112basic_stringIcSt11char_traitsIcESaIcEEESt4pairIKS5_N5SPIRV11ExtensionIDEESt10_Select1stISA_ESt4lessIS5_ESaISA_EE24_M_get_insert_unique_posERS7_@Base 0
 (optional=templinst|arch=amd64 arm64 loong64 mips64el ppc64el riscv64 sparc64 x32)_ZNSt8_Rb_treeINSt7__cxx1112basic_stringIcSt11char_traitsIcESaIcEEESt4pairIKS5_N5SPIRV11ExtensionIDEESt10_Select1stISA_ESt4lessIS5_ESaISA_EE29_M_get_insert_hint_unique_posESt23_Rb_tree_const_iteratorISA_ERS7_@Base 0
 (optional=templinst)_ZNSt8_Rb_treeINSt7__cxx1112basic_stringIcSt11char_traitsIcESaIcEEESt4pairIKS5_N5SPIRV14SPIRVErrorCodeEESt10_Select1stISA_ESt4lessIS5_ESaISA_EE24_M_get_insert_unique_posERS7_@Base 0
 (optional=templinst|arch=amd64 arm64 loong64 mips64el ppc64el riscv64 sparc64 x32)_ZNSt8_Rb_treeINSt7__cxx1112basic_stringIcSt11char_traitsIcESaIcEEESt4pairIKS5_N5SPIRV14SPIRVErrorCodeEESt10_Select1stISA_ESt4lessIS5_ESaISA_EE29_M_get_insert_hint_unique_posESt23_Rb_tree_const_iteratorISA_ERS7_@Base 0
 (optional=templinst)_ZNSt8_Rb_treeINSt7__cxx1112basic_stringIcSt11char_traitsIcESaIcEEESt4pairIKS5_N5SPIRV19SPIRVExtInstSetKindEESt10_Select1stISA_ESt4lessIS5_ESaISA_EE24_M_get_insert_unique_posERS7_@Base 0
 (optional=templinst|arch=amd64 arm64 loong64 mips64el ppc64el riscv64 sparc64 x32)_ZNSt8_Rb_treeINSt7__cxx1112basic_stringIcSt11char_traitsIcESaIcEEESt4pairIKS5_N5SPIRV19SPIRVExtInstSetKindEESt10_Select1stISA_ESt4lessIS5_ESaISA_EE29_M_get_insert_hint_unique_posESt23_Rb_tree_const_iteratorISA_ERS7_@Base 0
 (optional=templinst)_ZNSt8_Rb_treeINSt7__cxx1112basic_stringIcSt11char_traitsIcESaIcEEESt4pairIKS5_N7OCLUtil6OclExt4KindEESt10_Select1stISB_ESt4lessIS5_ESaISB_EE24_M_get_insert_unique_posERS7_@Base 0
 (optional=templinst|arch=amd64 arm64 loong64 mips64el ppc64el riscv64 sparc64 x32)_ZNSt8_Rb_treeINSt7__cxx1112basic_stringIcSt11char_traitsIcESaIcEEESt4pairIKS5_N7OCLUtil6OclExt4KindEESt10_Select1stISB_ESt4lessIS5_ESaISB_EE29_M_get_insert_hint_unique_posESt23_Rb_tree_const_iteratorISB_ERS7_@Base 0
 (optional=templinst)_ZNSt8_Rb_treeINSt7__cxx1112basic_stringIcSt11char_traitsIcESaIcEEESt4pairIKS5_N9OpenCLLIB11EntrypointsEESt10_Select1stISA_ESt4lessIS5_ESaISA_EE24_M_get_insert_unique_posERS7_@Base 0
 (optional=templinst|arch=amd64 arm64 loong64 mips64el ppc64el riscv64 sparc64 x32)_ZNSt8_Rb_treeINSt7__cxx1112basic_stringIcSt11char_traitsIcESaIcEEESt4pairIKS5_N9OpenCLLIB11EntrypointsEESt10_Select1stISA_ESt4lessIS5_ESaISA_EE29_M_get_insert_hint_unique_posESt23_Rb_tree_const_iteratorISA_ERS7_@Base 0
 (optional=templinst)_ZNSt8_Rb_treeINSt7__cxx1112basic_stringIcSt11char_traitsIcESaIcEEESt4pairIKS5_jESt10_Select1stIS8_ESt4lessIS5_ESaIS8_EE24_M_get_insert_unique_posERS7_@Base 0
 (optional=templinst|arch=amd64 arm64 loong64 mips64el ppc64el riscv64 sparc64 x32)_ZNSt8_Rb_treeINSt7__cxx1112basic_stringIcSt11char_traitsIcESaIcEEESt4pairIKS5_jESt10_Select1stIS8_ESt4lessIS5_ESaIS8_EE29_M_get_insert_hint_unique_posESt23_Rb_tree_const_iteratorIS8_ERS7_@Base 0
 (optional=templinst|arch=amd64 arm64 loong64 mips64el ppc64el riscv64 sparc64 x32)_ZNSt8_Rb_treeIPN4llvm8FunctionES2_St9_IdentityIS2_ESt4lessIS2_ESaIS2_EE16_M_insert_uniqueIRKS2_EESt4pairISt17_Rb_tree_iteratorIS2_EbEOT_@Base 0
 (optional=templinst)_ZNSt8_Rb_treeISt6vectorIN3spv10CapabilityESaIS2_EESt4pairIKS4_NS1_10DecorationEESt10_Select1stIS8_ESt4lessIS4_ESaIS8_EE24_M_get_insert_unique_posERS6_@Base 0
 (optional=templinst|arch=amd64 arm64 loong64 mips64el ppc64el riscv64 sparc64 x32)_ZNSt8_Rb_treeISt6vectorIN3spv10CapabilityESaIS2_EESt4pairIKS4_NS1_10DecorationEESt10_Select1stIS8_ESt4lessIS4_ESaIS8_EE29_M_get_insert_hint_unique_posESt23_Rb_tree_const_iteratorIS8_ERS6_@Base 0
 (optional=templinst)_ZNSt8_Rb_treeISt6vectorIN3spv10CapabilityESaIS2_EESt4pairIKS4_NS1_12StorageClassEESt10_Select1stIS8_ESt4lessIS4_ESaIS8_EE24_M_get_insert_unique_posERS6_@Base 0
 (optional=templinst|arch=amd64 arm64 loong64 mips64el ppc64el riscv64 sparc64 x32)_ZNSt8_Rb_treeISt6vectorIN3spv10CapabilityESaIS2_EESt4pairIKS4_NS1_12StorageClassEESt10_Select1stIS8_ESt4lessIS4_ESaIS8_EE29_M_get_insert_hint_unique_posESt23_Rb_tree_const_iteratorIS8_ERS6_@Base 0
 (optional=templinst)_ZNSt8_Rb_treeISt6vectorIN3spv10CapabilityESaIS2_EESt4pairIKS4_NS1_13ExecutionModeEESt10_Select1stIS8_ESt4lessIS4_ESaIS8_EE24_M_get_insert_unique_posERS6_@Base 0
 (optional=templinst|arch=amd64 arm64 loong64 mips64el ppc64el riscv64 sparc64 x32)_ZNSt8_Rb_treeISt6vectorIN3spv10CapabilityESaIS2_EESt4pairIKS4_NS1_13ExecutionModeEESt10_Select1stIS8_ESt4lessIS4_ESaIS8_EE29_M_get_insert_hint_unique_posESt23_Rb_tree_const_iteratorIS8_ERS6_@Base 0
 (optional=templinst)_ZNSt8_Rb_treeISt6vectorIN3spv10CapabilityESaIS2_EESt4pairIKS4_NS1_14ExecutionModelEESt10_Select1stIS8_ESt4lessIS4_ESaIS8_EE24_M_get_insert_unique_posERS6_@Base 0
 (optional=templinst|arch=amd64 arm64 loong64 mips64el ppc64el riscv64 sparc64 x32)_ZNSt8_Rb_treeISt6vectorIN3spv10CapabilityESaIS2_EESt4pairIKS4_NS1_14ExecutionModelEESt10_Select1stIS8_ESt4lessIS4_ESaIS8_EE29_M_get_insert_hint_unique_posESt23_Rb_tree_const_iteratorIS8_ERS6_@Base 0
 (optional=templinst)_ZNSt8_Rb_treeISt6vectorIN3spv10CapabilityESaIS2_EESt4pairIKS4_NS1_7BuiltInEESt10_Select1stIS8_ESt4lessIS4_ESaIS8_EE24_M_get_insert_unique_posERS6_@Base 12
 (optional=templinst|arch=amd64 arm64 loong64 mips64el ppc64el riscv64 sparc64 x32)_ZNSt8_Rb_treeISt6vectorIN3spv10CapabilityESaIS2_EESt4pairIKS4_NS1_7BuiltInEESt10_Select1stIS8_ESt4lessIS4_ESaIS8_EE29_M_get_insert_hint_unique_posESt23_Rb_tree_const_iteratorIS8_ERS6_@Base 12
 (optional=templinst)_ZNSt8_Rb_treeISt6vectorIN3spv10CapabilityESaIS2_EESt4pairIKS4_S2_ESt10_Select1stIS7_ESt4lessIS4_ESaIS7_EE24_M_get_insert_unique_posERS6_@Base 0
 (optional=templinst|arch=amd64 arm64 loong64 mips64el ppc64el riscv64 sparc64 x32)_ZNSt8_Rb_treeISt6vectorIN3spv10CapabilityESaIS2_EESt4pairIKS4_S2_ESt10_Select1stIS7_ESt4lessIS4_ESaIS7_EE29_M_get_insert_hint_unique_posESt23_Rb_tree_const_iteratorIS7_ERS6_@Base 0
#MISSING: 14.0.0-7~gcc13# (optional=templinst|arch=!amd64 !arm64 !mips64el !ppc64el !riscv64 !sparc64 !x32)_ZNSt8_Rb_treeIjSt4pairIKjN17VectorComputeUtil11VCFloatTypeEESt10_Select1stIS4_ESt4lessIjESaIS4_EE22_M_emplace_hint_uniqueIJRKSt21piecewise_construct_tSt5tupleIJRS1_EESF_IJEEEEESt17_Rb_tree_iteratorIS4_ESt23_Rb_tree_const_iteratorIS4_EDpOT_@Base 0
#MISSING: 14.0.0-7~gcc13# (optional=templinst)_ZNSt8_Rb_treeIjSt4pairIKjN17VectorComputeUtil11VCFloatTypeEESt10_Select1stIS4_ESt4lessIjESaIS4_EE24_M_get_insert_unique_posERS1_@Base 0
#MISSING: 14.0.0-7~gcc13# (optional=templinst|arch=amd64 arm64 mips64el ppc64el riscv64 sparc64 x32)_ZNSt8_Rb_treeIjSt4pairIKjN17VectorComputeUtil11VCFloatTypeEESt10_Select1stIS4_ESt4lessIjESaIS4_EE29_M_get_insert_hint_unique_posESt23_Rb_tree_const_iteratorIS4_ERS1_@Base 0
#MISSING: 14.0.0-7~gcc13# (optional=templinst|arch=!amd64 !arm64 !mips64el !ppc64el !riscv64 !sparc64 !x32)_ZNSt8_Rb_treeIjSt4pairIKjN3spv2OpEESt10_Select1stIS4_ESt4lessIjESaIS4_EE22_M_emplace_hint_uniqueIJRKSt21piecewise_construct_tSt5tupleIJRS1_EESF_IJEEEEESt17_Rb_tree_iteratorIS4_ESt23_Rb_tree_const_iteratorIS4_EDpOT_@Base 0
#MISSING: 14.0.0-7~gcc13# (optional=templinst)_ZNSt8_Rb_treeIjSt4pairIKjN3spv2OpEESt10_Select1stIS4_ESt4lessIjESaIS4_EE24_M_get_insert_unique_posERS1_@Base 0
#MISSING: 14.0.0-7~gcc13# (optional=templinst|arch=amd64 arm64 mips64el ppc64el riscv64 sparc64 x32)_ZNSt8_Rb_treeIjSt4pairIKjN3spv2OpEESt10_Select1stIS4_ESt4lessIjESaIS4_EE29_M_get_insert_hint_unique_posESt23_Rb_tree_const_iteratorIS4_ERS1_@Base 0
#MISSING: 14.0.0-7~gcc13# (optional=templinst|arch=!amd64 !arm64 !mips64el !ppc64el !riscv64 !sparc64 !x32)_ZNSt8_Rb_treeIjSt4pairIKjN5SPIRV19SPIRVExtInstSetKindEESt10_Select1stIS4_ESt4lessIjESaIS4_EE22_M_emplace_hint_uniqueIJRKSt21piecewise_construct_tSt5tupleIJRS1_EESF_IJEEEEESt17_Rb_tree_iteratorIS4_ESt23_Rb_tree_const_iteratorIS4_EDpOT_@Base 0
#MISSING: 14.0.0-7~gcc13# (optional=templinst)_ZNSt8_Rb_treeIjSt4pairIKjN5SPIRV19SPIRVExtInstSetKindEESt10_Select1stIS4_ESt4lessIjESaIS4_EE24_M_get_insert_unique_posERS1_@Base 0
#MISSING: 14.0.0-7~gcc13# (optional=templinst|arch=amd64 arm64 mips64el ppc64el riscv64 sparc64 x32)_ZNSt8_Rb_treeIjSt4pairIKjN5SPIRV19SPIRVExtInstSetKindEESt10_Select1stIS4_ESt4lessIjESaIS4_EE29_M_get_insert_hint_unique_posESt23_Rb_tree_const_iteratorIS4_ERS1_@Base 0
#MISSING: 14.0.0-7~gcc13# (optional=templinst|arch=!amd64 !arm64 !mips64el !ppc64el !riscv64 !sparc64 !x32)_ZNSt8_Rb_treeIjSt4pairIKjN7OCLUtil15OCLMemOrderKindEESt10_Select1stIS4_ESt4lessIjESaIS4_EE22_M_emplace_hint_uniqueIJRKSt21piecewise_construct_tSt5tupleIJRS1_EESF_IJEEEEESt17_Rb_tree_iteratorIS4_ESt23_Rb_tree_const_iteratorIS4_EDpOT_@Base 0
#MISSING: 14.0.0-7~gcc13# (optional=templinst)_ZNSt8_Rb_treeIjSt4pairIKjN7OCLUtil15OCLMemOrderKindEESt10_Select1stIS4_ESt4lessIjESaIS4_EE24_M_get_insert_unique_posERS1_@Base 0
#MISSING: 14.0.0-7~gcc13# (optional=templinst|arch=amd64 arm64 mips64el ppc64el riscv64 sparc64 x32)_ZNSt8_Rb_treeIjSt4pairIKjN7OCLUtil15OCLMemOrderKindEESt10_Select1stIS4_ESt4lessIjESaIS4_EE29_M_get_insert_hint_unique_posESt23_Rb_tree_const_iteratorIS4_ERS1_@Base 0
 (optional=templinst|arch=!loong64 !mips64el !ppc64el !riscv64 !sparc64)_ZNSt8_Rb_treeIjjSt9_IdentityIjESt4lessIjESaIjEE16_M_insert_uniqueIRKjEESt4pairISt17_Rb_tree_iteratorIjEbEOT_@Base 0
 (optional=templinst|arch=amd64 arm64 loong64 mips64el ppc64el riscv64 sparc64 x32)_ZNSt8_Rb_treeIjjSt9_IdentityIjESt4lessIjESaIjEE16_M_insert_uniqueIjEESt4pairISt17_Rb_tree_iteratorIjEbEOT_@Base 13
#MISSING: 14.0.0-7~gcc13# (optional=templinst)_ZNSt8_Rb_treeIjjSt9_IdentityIjESt4lessIjESaIjEE24_M_get_insert_unique_posERKj@Base 0
#MISSING: 14.0.0-7~gcc13# (optional=templinst)_ZNSt8_Rb_treeIlSt4pairIKllESt10_Select1stIS2_ESt4lessIlESaIS2_EE22_M_emplace_hint_uniqueIJRKSt21piecewise_construct_tSt5tupleIJRS1_EESD_IJEEEEESt17_Rb_tree_iteratorIS2_ESt23_Rb_tree_const_iteratorIS2_EDpOT_@Base 0
#MISSING: 14.0.0-7~gcc13# (optional=templinst)_ZNSt8_Rb_treeIlSt4pairIKllESt10_Select1stIS2_ESt4lessIlESaIS2_EE24_M_get_insert_unique_posERS1_@Base 0
#MISSING: 14.0.0-7~gcc13# (optional=templinst|arch=amd64 arm64 mips64el ppc64el riscv64 sparc64 x32)_ZNSt8_Rb_treeIlSt4pairIKllESt10_Select1stIS2_ESt4lessIlESaIS2_EE29_M_get_insert_hint_unique_posESt23_Rb_tree_const_iteratorIS2_ERS1_@Base 0
 (optional=templinst)_ZNSt8__detail17__regex_algo_implIPKcSaINSt7__cxx119sub_matchIS2_EEEcNS3_12regex_traitsIcEEEEbT_S9_RNS3_13match_resultsIS9_T0_EERKNS3_11basic_regexIT1_T2_EENSt15regex_constants15match_flag_typeENS_20_RegexExecutorPolicyEb@Base 0
 (optional=templinst)_ZNSt8__detail18__to_chars_10_implIjEEvPcjT_@Base 0
 (optional=templinst|subst)_ZNSt8__detail18__to_chars_10_implI{uint64_t}EEvPcjT_@Base 16
 (optional=templinst)_ZNSt8__detail8_ScannerIcE12_M_eat_classEc@Base 0
 (optional=templinst)_ZNSt8__detail8_ScannerIcE14_M_scan_normalEv@Base 0
 (optional=templinst)_ZNSt8__detail8_ScannerIcE16_M_scan_in_braceEv@Base 0
 (optional=templinst)_ZNSt8__detail8_ScannerIcE17_M_eat_escape_awkEv@Base 0
 (optional=templinst)_ZNSt8__detail8_ScannerIcE18_M_eat_escape_ecmaEv@Base 0
 (optional=templinst)_ZNSt8__detail8_ScannerIcE18_M_scan_in_bracketEv@Base 0
 (optional=templinst)_ZNSt8__detail8_ScannerIcE19_M_eat_escape_posixEv@Base 0
 (optional=templinst|arch=!mipsel)_ZNSt8__detail8_ScannerIcEC1EPKcS3_NSt15regex_constants18syntax_option_typeESt6locale@Base 0
 (optional=templinst|arch=!mipsel)_ZNSt8__detail8_ScannerIcEC2EPKcS3_NSt15regex_constants18syntax_option_typeESt6locale@Base 0
 (optional=templinst)_ZNSt8__detail9_CompilerINSt7__cxx1112regex_traitsIcEEE11_M_try_charEv@Base 0
 (optional=templinst)_ZNSt8__detail9_CompilerINSt7__cxx1112regex_traitsIcEEE12_M_assertionEv@Base 0
 (optional=templinst)_ZNSt8__detail9_CompilerINSt7__cxx1112regex_traitsIcEEE13_M_quantifierEv@Base 0
 (optional=templinst)_ZNSt8__detail9_CompilerINSt7__cxx1112regex_traitsIcEEE14_M_alternativeEv@Base 0
 (optional=templinst)_ZNSt8__detail9_CompilerINSt7__cxx1112regex_traitsIcEEE14_M_disjunctionEv@Base 0
 (optional=templinst)_ZNSt8__detail9_CompilerINSt7__cxx1112regex_traitsIcEEE16_M_cur_int_valueEi@Base 0
 (optional=templinst)_ZNSt8__detail9_CompilerINSt7__cxx1112regex_traitsIcEEE18_M_expression_termILb0ELb0EEEbRNS4_13_BracketStateERNS_15_BracketMatcherIS3_XT_EXT0_EEE@Base 0
 (optional=templinst)_ZNSt8__detail9_CompilerINSt7__cxx1112regex_traitsIcEEE18_M_expression_termILb0ELb1EEEbRNS4_13_BracketStateERNS_15_BracketMatcherIS3_XT_EXT0_EEE@Base 0
 (optional=templinst)_ZNSt8__detail9_CompilerINSt7__cxx1112regex_traitsIcEEE18_M_expression_termILb1ELb0EEEbRNS4_13_BracketStateERNS_15_BracketMatcherIS3_XT_EXT0_EEE@Base 0
 (optional=templinst)_ZNSt8__detail9_CompilerINSt7__cxx1112regex_traitsIcEEE18_M_expression_termILb1ELb1EEEbRNS4_13_BracketStateERNS_15_BracketMatcherIS3_XT_EXT0_EEE@Base 0
 (optional=templinst)_ZNSt8__detail9_CompilerINSt7__cxx1112regex_traitsIcEEE21_M_bracket_expressionEv@Base 0
 (optional=templinst)_ZNSt8__detail9_CompilerINSt7__cxx1112regex_traitsIcEEE25_M_insert_bracket_matcherILb0ELb0EEEvb@Base 0
 (optional=templinst)_ZNSt8__detail9_CompilerINSt7__cxx1112regex_traitsIcEEE25_M_insert_bracket_matcherILb0ELb1EEEvb@Base 0
 (optional=templinst)_ZNSt8__detail9_CompilerINSt7__cxx1112regex_traitsIcEEE25_M_insert_bracket_matcherILb1ELb0EEEvb@Base 0
 (optional=templinst)_ZNSt8__detail9_CompilerINSt7__cxx1112regex_traitsIcEEE25_M_insert_bracket_matcherILb1ELb1EEEvb@Base 0
 (optional=templinst)_ZNSt8__detail9_CompilerINSt7__cxx1112regex_traitsIcEEE33_M_insert_character_class_matcherILb0ELb0EEEvv@Base 0
 (optional=templinst)_ZNSt8__detail9_CompilerINSt7__cxx1112regex_traitsIcEEE33_M_insert_character_class_matcherILb0ELb1EEEvv@Base 0
 (optional=templinst)_ZNSt8__detail9_CompilerINSt7__cxx1112regex_traitsIcEEE33_M_insert_character_class_matcherILb1ELb0EEEvv@Base 0
 (optional=templinst)_ZNSt8__detail9_CompilerINSt7__cxx1112regex_traitsIcEEE33_M_insert_character_class_matcherILb1ELb1EEEvv@Base 0
 (optional=templinst)_ZNSt8__detail9_CompilerINSt7__cxx1112regex_traitsIcEEE7_M_atomEv@Base 0
 (optional=templinst)_ZNSt8__detail9_CompilerINSt7__cxx1112regex_traitsIcEEEC1EPKcS6_RKSt6localeNSt15regex_constants18syntax_option_typeE@Base 0
 (optional=templinst)_ZNSt8__detail9_CompilerINSt7__cxx1112regex_traitsIcEEEC2EPKcS6_RKSt6localeNSt15regex_constants18syntax_option_typeE@Base 0
 (optional=templinst)_ZNSt8__detail9_ExecutorIPKcSaINSt7__cxx119sub_matchIS2_EEENS3_12regex_traitsIcEELb0EE12_M_lookaheadEl@Base 0
 (optional=templinst)_ZNSt8__detail9_ExecutorIPKcSaINSt7__cxx119sub_matchIS2_EEENS3_12regex_traitsIcEELb0EE16_M_rep_once_moreENS9_11_Match_modeEl@Base 0
 (optional=templinst)_ZNSt8__detail9_ExecutorIPKcSaINSt7__cxx119sub_matchIS2_EEENS3_12regex_traitsIcEELb0EE17_M_handle_backrefENS9_11_Match_modeEl@Base 0
 (optional=templinst)_ZNSt8__detail9_ExecutorIPKcSaINSt7__cxx119sub_matchIS2_EEENS3_12regex_traitsIcEELb0EE6_M_dfsENS9_11_Match_modeEl@Base 0
 (optional=templinst)_ZNSt8__detail9_ExecutorIPKcSaINSt7__cxx119sub_matchIS2_EEENS3_12regex_traitsIcEELb1EE12_M_lookaheadEl@Base 0
 (optional=templinst)_ZNSt8__detail9_ExecutorIPKcSaINSt7__cxx119sub_matchIS2_EEENS3_12regex_traitsIcEELb1EE16_M_rep_once_moreENS9_11_Match_modeEl@Base 0
 (optional=templinst)_ZNSt8__detail9_ExecutorIPKcSaINSt7__cxx119sub_matchIS2_EEENS3_12regex_traitsIcEELb1EE17_M_handle_backrefENS9_11_Match_modeEl@Base 0
 (optional=templinst)_ZNSt8__detail9_ExecutorIPKcSaINSt7__cxx119sub_matchIS2_EEENS3_12regex_traitsIcEELb1EE6_M_dfsENS9_11_Match_modeEl@Base 0
 (optional=templinst)_ZNSt8__detail9_StateSeqINSt7__cxx1112regex_traitsIcEEE8_M_cloneEv@Base 0
 (optional=templinst)_ZSt13binary_searchIN9__gnu_cxx17__normal_iteratorIPKcSt6vectorIcSaIcEEEEcEbT_S8_RKT0_@Base 0
 (optional=templinst|subst)_ZSt17__rotate_adaptiveIN9__gnu_cxx17__normal_iteratorIPSt4pairIjjESt6vectorIS3_SaIS3_EEEES4_{ssize_t}ET_S9_S9_S9_T1_SA_T0_SA_@Base 13
#MISSING: 16.0.0-3~gcc13# _ZSt19piecewise_construct@Base 16
#MISSING: 14.0.0-7~gcc13# (optional=templinst|arch=amd64 arm64 x32)_ZStplIcSt11char_traitsIcESaIcEENSt7__cxx1112basic_stringIT_T0_T1_EEPKS5_RKS8_@Base 0
 (optional=lto)_ZTIN4llvm3Any11StorageBaseE@Base 16
 (optional=lto)_ZTIN4llvm3Any11StorageImplIPKNS_6ModuleEEE@Base 16
 (arch=armel riscv64)_ZTIN9__gnu_cxx7__mutexE@Base 13
 _ZTINSt8__detail11_AnyMatcherINSt7__cxx1112regex_traitsIcEELb0ELb0ELb0EEE@Base 13
 _ZTINSt8__detail11_AnyMatcherINSt7__cxx1112regex_traitsIcEELb0ELb0ELb1EEE@Base 13
 _ZTINSt8__detail11_AnyMatcherINSt7__cxx1112regex_traitsIcEELb0ELb1ELb0EEE@Base 13
 _ZTINSt8__detail11_AnyMatcherINSt7__cxx1112regex_traitsIcEELb0ELb1ELb1EEE@Base 13
 _ZTINSt8__detail11_AnyMatcherINSt7__cxx1112regex_traitsIcEELb1ELb0ELb0EEE@Base 13
 _ZTINSt8__detail11_AnyMatcherINSt7__cxx1112regex_traitsIcEELb1ELb0ELb1EEE@Base 13
 _ZTINSt8__detail11_AnyMatcherINSt7__cxx1112regex_traitsIcEELb1ELb1ELb0EEE@Base 13
 _ZTINSt8__detail11_AnyMatcherINSt7__cxx1112regex_traitsIcEELb1ELb1ELb1EEE@Base 13
 _ZTINSt8__detail12_CharMatcherINSt7__cxx1112regex_traitsIcEELb0ELb0EEE@Base 13
 _ZTINSt8__detail12_CharMatcherINSt7__cxx1112regex_traitsIcEELb0ELb1EEE@Base 13
 _ZTINSt8__detail12_CharMatcherINSt7__cxx1112regex_traitsIcEELb1ELb0EEE@Base 13
 _ZTINSt8__detail12_CharMatcherINSt7__cxx1112regex_traitsIcEELb1ELb1EEE@Base 13
 _ZTINSt8__detail15_BracketMatcherINSt7__cxx1112regex_traitsIcEELb0ELb0EEE@Base 13
 _ZTINSt8__detail15_BracketMatcherINSt7__cxx1112regex_traitsIcEELb0ELb1EEE@Base 13
 _ZTINSt8__detail15_BracketMatcherINSt7__cxx1112regex_traitsIcEELb1ELb0EEE@Base 13
 _ZTINSt8__detail15_BracketMatcherINSt7__cxx1112regex_traitsIcEELb1ELb1EEE@Base 13
 (arch=armel riscv64)_ZTISt11_Mutex_baseILN9__gnu_cxx12_Lock_policyE1EE@Base 13
 (arch=!armel !riscv64)_ZTISt11_Mutex_baseILN9__gnu_cxx12_Lock_policyE2EE@Base 13
 (arch=armel riscv64)_ZTISt16_Sp_counted_baseILN9__gnu_cxx12_Lock_policyE1EE@Base 13
 (arch=!armel !riscv64)_ZTISt16_Sp_counted_baseILN9__gnu_cxx12_Lock_policyE2EE@Base 13
 (arch=armel armhf)_ZTISt19_Sp_make_shared_tag@Base 13
 (optional=templinst|arch=armel riscv64)_ZTISt23_Sp_counted_ptr_inplaceINSt8__detail4_NFAINSt7__cxx1112regex_traitsIcEEEESaIvELN9__gnu_cxx12_Lock_policyE1EE@Base 13
 (optional=templinst|arch=!armel !riscv64)_ZTISt23_Sp_counted_ptr_inplaceINSt8__detail4_NFAINSt7__cxx1112regex_traitsIcEEEESaIvELN9__gnu_cxx12_Lock_policyE2EE@Base 13
 (optional=lto)_ZTSN4llvm3Any11StorageBaseE@Base 16
 (optional=lto)_ZTSN4llvm3Any11StorageImplIPKNS_6ModuleEEE@Base 16
 (arch=armel riscv64)_ZTSN9__gnu_cxx7__mutexE@Base 13
 _ZTSNSt8__detail11_AnyMatcherINSt7__cxx1112regex_traitsIcEELb0ELb0ELb0EEE@Base 13
 _ZTSNSt8__detail11_AnyMatcherINSt7__cxx1112regex_traitsIcEELb0ELb0ELb1EEE@Base 13
 _ZTSNSt8__detail11_AnyMatcherINSt7__cxx1112regex_traitsIcEELb0ELb1ELb0EEE@Base 13
 _ZTSNSt8__detail11_AnyMatcherINSt7__cxx1112regex_traitsIcEELb0ELb1ELb1EEE@Base 13
 _ZTSNSt8__detail11_AnyMatcherINSt7__cxx1112regex_traitsIcEELb1ELb0ELb0EEE@Base 13
 _ZTSNSt8__detail11_AnyMatcherINSt7__cxx1112regex_traitsIcEELb1ELb0ELb1EEE@Base 13
 _ZTSNSt8__detail11_AnyMatcherINSt7__cxx1112regex_traitsIcEELb1ELb1ELb0EEE@Base 13
 _ZTSNSt8__detail11_AnyMatcherINSt7__cxx1112regex_traitsIcEELb1ELb1ELb1EEE@Base 13
 _ZTSNSt8__detail12_CharMatcherINSt7__cxx1112regex_traitsIcEELb0ELb0EEE@Base 13
 _ZTSNSt8__detail12_CharMatcherINSt7__cxx1112regex_traitsIcEELb0ELb1EEE@Base 13
 _ZTSNSt8__detail12_CharMatcherINSt7__cxx1112regex_traitsIcEELb1ELb0EEE@Base 13
 _ZTSNSt8__detail12_CharMatcherINSt7__cxx1112regex_traitsIcEELb1ELb1EEE@Base 13
 _ZTSNSt8__detail15_BracketMatcherINSt7__cxx1112regex_traitsIcEELb0ELb0EEE@Base 13
 _ZTSNSt8__detail15_BracketMatcherINSt7__cxx1112regex_traitsIcEELb0ELb1EEE@Base 13
 _ZTSNSt8__detail15_BracketMatcherINSt7__cxx1112regex_traitsIcEELb1ELb0EEE@Base 13
 _ZTSNSt8__detail15_BracketMatcherINSt7__cxx1112regex_traitsIcEELb1ELb1EEE@Base 13
 (arch=armel riscv64)_ZTSSt11_Mutex_baseILN9__gnu_cxx12_Lock_policyE1EE@Base 13
 (arch=!armel !riscv64)_ZTSSt11_Mutex_baseILN9__gnu_cxx12_Lock_policyE2EE@Base 13
 (arch=armel riscv64)_ZTSSt16_Sp_counted_baseILN9__gnu_cxx12_Lock_policyE1EE@Base 13
 (arch=!armel !riscv64)_ZTSSt16_Sp_counted_baseILN9__gnu_cxx12_Lock_policyE2EE@Base 13
 _ZTSSt19_Sp_make_shared_tag@Base 13
 (optional=templinst|arch=armel riscv64)_ZTSSt23_Sp_counted_ptr_inplaceINSt8__detail4_NFAINSt7__cxx1112regex_traitsIcEEEESaIvELN9__gnu_cxx12_Lock_policyE1EE@Base 13
 (optional=templinst|arch=!armel !riscv64)_ZTSSt23_Sp_counted_ptr_inplaceINSt8__detail4_NFAINSt7__cxx1112regex_traitsIcEEEESaIvELN9__gnu_cxx12_Lock_policyE2EE@Base 13
 (optional=lto)_ZTVN4llvm3Any11StorageBaseE@Base 17
 (optional=lto)_ZTVN4llvm3Any11StorageImplIPKNS_6ModuleEEE@Base 16
 (optional=lto|arch=riscv64)_ZTVSt16_Sp_counted_baseILN9__gnu_cxx12_Lock_policyE1EE@Base 17
 (optional=lto|arch=!riscv64)_ZTVSt16_Sp_counted_baseILN9__gnu_cxx12_Lock_policyE2EE@Base 17
 (optional=templinst|arch=armel riscv64)_ZTVSt23_Sp_counted_ptr_inplaceINSt8__detail4_NFAINSt7__cxx1112regex_traitsIcEEEESaIvELN9__gnu_cxx12_Lock_policyE1EE@Base 0
 (optional=templinst|arch=!armel !riscv64)_ZTVSt23_Sp_counted_ptr_inplaceINSt8__detail4_NFAINSt7__cxx1112regex_traitsIcEEEESaIvELN9__gnu_cxx12_Lock_policyE2EE@Base 0
 (optional=templinst)_ZZNKSt7__cxx1112regex_traitsIcE16lookup_classnameIPKcEENS1_10_RegexMaskET_S6_bE12__classnames@Base 0
 (optional=templinst)_ZZNKSt7__cxx1112regex_traitsIcE18lookup_collatenameIPKcEENS_12basic_stringIcSt11char_traitsIcESaIcEEET_SA_E14__collatenames@Base 0
 (optional=templinst)_ZZNKSt8__detail11_AnyMatcherINSt7__cxx1112regex_traitsIcEELb0ELb0ELb0EEclEcE5__nul@Base 0
 (optional=templinst)_ZZNKSt8__detail11_AnyMatcherINSt7__cxx1112regex_traitsIcEELb0ELb0ELb1EEclEcE5__nul@Base 0
 (optional=templinst)_ZZNKSt8__detail11_AnyMatcherINSt7__cxx1112regex_traitsIcEELb0ELb1ELb0EEclEcE5__nul@Base 0
 (optional=templinst)_ZZNKSt8__detail11_AnyMatcherINSt7__cxx1112regex_traitsIcEELb0ELb1ELb1EEclEcE5__nul@Base 0
 (optional=templinst)_ZZNKSt8__detail9_ExecutorIPKcSaINSt7__cxx119sub_matchIS2_EEENS3_12regex_traitsIcEELb0EE10_M_is_wordEcE3__s@Base 0
 (optional=templinst)_ZZNKSt8__detail9_ExecutorIPKcSaINSt7__cxx119sub_matchIS2_EEENS3_12regex_traitsIcEELb1EE10_M_is_wordEcE3__s@Base 0
 _ZZNSt19_Sp_make_shared_tag5_S_tiEvE5__tag@Base 0
#MISSING: 14.0.0-7~gcc13# (optional=templinst)_ZZNSt8__detail18__to_chars_10_implIjEEvPcjT_E8__digits@Base 0
#MISSING: 14.0.0-7~gcc13# (optional=templinst|subst)_ZZNSt8__detail18__to_chars_10_implI{uint64_t}EEvPcjT_E8__digits@Base 13
 (optional=templinst|arch=!powerpc !ppc64)_ZZNSt9once_flag18_Prepare_executionC4IZSt9call_onceIRFPvRN4llvm12PassRegistryEEJSt17reference_wrapperIS5_EEEvRS_OT_DpOT0_EUlvE_EERSC_ENUlvE_4_FUNEv@Base 0
